
WebcamFirmware.elf:     file format elf32-littlearm

Sections:
Idx Name          Size      VMA       LMA       File off  Algn
  0 .text         0000916c  00400000  00400000  00010000  2**6
                  CONTENTS, ALLOC, LOAD, READONLY, CODE
  1 .ARM.exidx    00000008  0040916c  0040916c  0001916c  2**2
                  CONTENTS, ALLOC, LOAD, READONLY, DATA
  2 .relocate     000009c0  20000000  00409174  00020000  2**3
                  CONTENTS, ALLOC, LOAD, CODE
  3 .bss          00018ba4  200009c0  00409b34  000209c0  2**2
                  ALLOC
  4 .stack        00003004  20019564  004226d8  000209c0  2**0
                  ALLOC
  5 .ARM.attributes 0000002a  00000000  00000000  000209c0  2**0
                  CONTENTS, READONLY
  6 .comment      00000059  00000000  00000000  000209ea  2**0
                  CONTENTS, READONLY
  7 .debug_info   000179e6  00000000  00000000  00020a43  2**0
                  CONTENTS, READONLY, DEBUGGING
  8 .debug_abbrev 00003091  00000000  00000000  00038429  2**0
                  CONTENTS, READONLY, DEBUGGING
  9 .debug_loc    00006fe0  00000000  00000000  0003b4ba  2**0
                  CONTENTS, READONLY, DEBUGGING
 10 .debug_aranges 00000c68  00000000  00000000  0004249a  2**0
                  CONTENTS, READONLY, DEBUGGING
 11 .debug_ranges 00000b98  00000000  00000000  00043102  2**0
                  CONTENTS, READONLY, DEBUGGING
 12 .debug_macro  00007da1  00000000  00000000  00043c9a  2**0
                  CONTENTS, READONLY, DEBUGGING
 13 .debug_line   0000f220  00000000  00000000  0004ba3b  2**0
                  CONTENTS, READONLY, DEBUGGING
 14 .debug_str    0004f50d  00000000  00000000  0005ac5b  2**0
                  CONTENTS, READONLY, DEBUGGING
 15 .debug_frame  000040e0  00000000  00000000  000aa168  2**2
                  CONTENTS, READONLY, DEBUGGING

Disassembly of section .text:

00400000 <exception_table>:
  400000:	68 c5 01 20 71 2b 40 00 39 2c 40 00 39 2c 40 00     h.. q+@.9,@.9,@.
  400010:	39 2c 40 00 39 2c 40 00 39 2c 40 00 00 00 00 00     9,@.9,@.9,@.....
	...
  40002c:	39 2c 40 00 39 2c 40 00 00 00 00 00 39 2c 40 00     9,@.9,@.....9,@.
  40003c:	39 2c 40 00 39 2c 40 00 39 2c 40 00 39 2c 40 00     9,@.9,@.9,@.9,@.
  40004c:	39 2c 40 00 39 2c 40 00 39 2c 40 00 39 2c 40 00     9,@.9,@.9,@.9,@.
  40005c:	00 00 00 00 39 2c 40 00 39 2c 40 00 00 00 00 00     ....9,@.9,@.....
  40006c:	c9 1d 40 00 e1 1d 40 00 00 00 00 00 5d 10 40 00     ..@...@.....].@.
  40007c:	39 2c 40 00 00 00 00 00 00 00 00 00 39 2c 40 00     9,@.........9,@.
  40008c:	39 2c 40 00 39 2c 40 00 39 2c 40 00 39 2c 40 00     9,@.9,@.9,@.9,@.
  40009c:	91 0e 40 00 39 2c 40 00 39 2c 40 00 00 00 00 00     ..@.9,@.9,@.....
	...
  4000b4:	39 2c 40 00 39 2c 40 00 39 2c 40 00 39 2c 40 00     9,@.9,@.9,@.9,@.
  4000c4:	39 2c 40 00 39 2c 40 00                             9,@.9,@.

004000cc <__do_global_dtors_aux>:
  4000cc:	b510      	push	{r4, lr}
  4000ce:	4c05      	ldr	r4, [pc, #20]	; (4000e4 <__do_global_dtors_aux+0x18>)
  4000d0:	7823      	ldrb	r3, [r4, #0]
  4000d2:	b933      	cbnz	r3, 4000e2 <__do_global_dtors_aux+0x16>
  4000d4:	4b04      	ldr	r3, [pc, #16]	; (4000e8 <__do_global_dtors_aux+0x1c>)
  4000d6:	b113      	cbz	r3, 4000de <__do_global_dtors_aux+0x12>
  4000d8:	4804      	ldr	r0, [pc, #16]	; (4000ec <__do_global_dtors_aux+0x20>)
  4000da:	f3af 8000 	nop.w
  4000de:	2301      	movs	r3, #1
  4000e0:	7023      	strb	r3, [r4, #0]
  4000e2:	bd10      	pop	{r4, pc}
  4000e4:	200009c0 	.word	0x200009c0
  4000e8:	00000000 	.word	0x00000000
  4000ec:	00409174 	.word	0x00409174

004000f0 <frame_dummy>:
  4000f0:	4b0c      	ldr	r3, [pc, #48]	; (400124 <frame_dummy+0x34>)
  4000f2:	b143      	cbz	r3, 400106 <frame_dummy+0x16>
  4000f4:	480c      	ldr	r0, [pc, #48]	; (400128 <frame_dummy+0x38>)
  4000f6:	490d      	ldr	r1, [pc, #52]	; (40012c <frame_dummy+0x3c>)
  4000f8:	b510      	push	{r4, lr}
  4000fa:	f3af 8000 	nop.w
  4000fe:	480c      	ldr	r0, [pc, #48]	; (400130 <frame_dummy+0x40>)
  400100:	6803      	ldr	r3, [r0, #0]
  400102:	b923      	cbnz	r3, 40010e <frame_dummy+0x1e>
  400104:	bd10      	pop	{r4, pc}
  400106:	480a      	ldr	r0, [pc, #40]	; (400130 <frame_dummy+0x40>)
  400108:	6803      	ldr	r3, [r0, #0]
  40010a:	b933      	cbnz	r3, 40011a <frame_dummy+0x2a>
  40010c:	4770      	bx	lr
  40010e:	4b09      	ldr	r3, [pc, #36]	; (400134 <frame_dummy+0x44>)
  400110:	2b00      	cmp	r3, #0
  400112:	d0f7      	beq.n	400104 <frame_dummy+0x14>
  400114:	e8bd 4010 	ldmia.w	sp!, {r4, lr}
  400118:	4718      	bx	r3
  40011a:	4b06      	ldr	r3, [pc, #24]	; (400134 <frame_dummy+0x44>)
  40011c:	2b00      	cmp	r3, #0
  40011e:	d0f5      	beq.n	40010c <frame_dummy+0x1c>
  400120:	4718      	bx	r3
  400122:	bf00      	nop
  400124:	00000000 	.word	0x00000000
  400128:	00409174 	.word	0x00409174
  40012c:	200009c4 	.word	0x200009c4
  400130:	00409174 	.word	0x00409174
  400134:	00000000 	.word	0x00000000

00400138 <tc_init>:
 */
void tc_init(
		Tc *p_tc,
		uint32_t ul_channel,
		uint32_t ul_mode)
{
  400138:	b480      	push	{r7}
  40013a:	b087      	sub	sp, #28
  40013c:	af00      	add	r7, sp, #0
  40013e:	60f8      	str	r0, [r7, #12]
  400140:	60b9      	str	r1, [r7, #8]
  400142:	607a      	str	r2, [r7, #4]

	/* Validate inputs. */
	Assert(p_tc);
	Assert(ul_channel <
			(sizeof(p_tc->TC_CHANNEL) / sizeof(p_tc->TC_CHANNEL[0])));
	tc_channel = p_tc->TC_CHANNEL + ul_channel;
  400144:	68fa      	ldr	r2, [r7, #12]
  400146:	68bb      	ldr	r3, [r7, #8]
  400148:	019b      	lsls	r3, r3, #6
  40014a:	4413      	add	r3, r2
  40014c:	617b      	str	r3, [r7, #20]

	/*  Disable TC clock. */
	tc_channel->TC_CCR = TC_CCR_CLKDIS;
  40014e:	697b      	ldr	r3, [r7, #20]
  400150:	2202      	movs	r2, #2
  400152:	601a      	str	r2, [r3, #0]

	/*  Disable interrupts. */
	tc_channel->TC_IDR = 0xFFFFFFFF;
  400154:	697b      	ldr	r3, [r7, #20]
  400156:	f04f 32ff 	mov.w	r2, #4294967295
  40015a:	629a      	str	r2, [r3, #40]	; 0x28

	/*  Clear status register. */
	tc_channel->TC_SR;
  40015c:	697b      	ldr	r3, [r7, #20]
  40015e:	6a1b      	ldr	r3, [r3, #32]

	/*  Set mode. */
	tc_channel->TC_CMR = ul_mode;
  400160:	697b      	ldr	r3, [r7, #20]
  400162:	687a      	ldr	r2, [r7, #4]
  400164:	605a      	str	r2, [r3, #4]
}
  400166:	bf00      	nop
  400168:	371c      	adds	r7, #28
  40016a:	46bd      	mov	sp, r7
  40016c:	bc80      	pop	{r7}
  40016e:	4770      	bx	lr

00400170 <tc_start>:
 * \param[in] ul_channel Channel to configure
 */
void tc_start(
		Tc *p_tc,
		uint32_t ul_channel)
{
  400170:	b480      	push	{r7}
  400172:	b083      	sub	sp, #12
  400174:	af00      	add	r7, sp, #0
  400176:	6078      	str	r0, [r7, #4]
  400178:	6039      	str	r1, [r7, #0]
	/* Validate inputs. */
	Assert(p_tc);
	Assert(ul_channel <
			(sizeof(p_tc->TC_CHANNEL) / sizeof(p_tc->TC_CHANNEL[0])));

	p_tc->TC_CHANNEL[ul_channel].TC_CCR = TC_CCR_CLKEN | TC_CCR_SWTRG;
  40017a:	687a      	ldr	r2, [r7, #4]
  40017c:	683b      	ldr	r3, [r7, #0]
  40017e:	019b      	lsls	r3, r3, #6
  400180:	4413      	add	r3, r2
  400182:	2205      	movs	r2, #5
  400184:	601a      	str	r2, [r3, #0]
}
  400186:	bf00      	nop
  400188:	370c      	adds	r7, #12
  40018a:	46bd      	mov	sp, r7
  40018c:	bc80      	pop	{r7}
  40018e:	4770      	bx	lr

00400190 <tc_write_rc>:
 */
void tc_write_rc(
		Tc *p_tc,
		uint32_t ul_channel,
		uint32_t ul_value)
{
  400190:	b480      	push	{r7}
  400192:	b085      	sub	sp, #20
  400194:	af00      	add	r7, sp, #0
  400196:	60f8      	str	r0, [r7, #12]
  400198:	60b9      	str	r1, [r7, #8]
  40019a:	607a      	str	r2, [r7, #4]
	/* Validate inputs. */
	Assert(p_tc);
	Assert(ul_channel <
			(sizeof(p_tc->TC_CHANNEL) / sizeof(p_tc->TC_CHANNEL[0])));

	p_tc->TC_CHANNEL[ul_channel].TC_RC = ul_value;
  40019c:	68fa      	ldr	r2, [r7, #12]
  40019e:	68bb      	ldr	r3, [r7, #8]
  4001a0:	019b      	lsls	r3, r3, #6
  4001a2:	4413      	add	r3, r2
  4001a4:	331c      	adds	r3, #28
  4001a6:	687a      	ldr	r2, [r7, #4]
  4001a8:	601a      	str	r2, [r3, #0]
}
  4001aa:	bf00      	nop
  4001ac:	3714      	adds	r7, #20
  4001ae:	46bd      	mov	sp, r7
  4001b0:	bc80      	pop	{r7}
  4001b2:	4770      	bx	lr

004001b4 <tc_enable_interrupt>:
 */
void tc_enable_interrupt(
		Tc *p_tc,
		uint32_t ul_channel,
		uint32_t ul_sources)
{
  4001b4:	b480      	push	{r7}
  4001b6:	b087      	sub	sp, #28
  4001b8:	af00      	add	r7, sp, #0
  4001ba:	60f8      	str	r0, [r7, #12]
  4001bc:	60b9      	str	r1, [r7, #8]
  4001be:	607a      	str	r2, [r7, #4]

	/* Validate inputs. */
	Assert(p_tc);
	Assert(ul_channel <
			(sizeof(p_tc->TC_CHANNEL) / sizeof(p_tc->TC_CHANNEL[0])));
	tc_channel = p_tc->TC_CHANNEL + ul_channel;
  4001c0:	68fa      	ldr	r2, [r7, #12]
  4001c2:	68bb      	ldr	r3, [r7, #8]
  4001c4:	019b      	lsls	r3, r3, #6
  4001c6:	4413      	add	r3, r2
  4001c8:	617b      	str	r3, [r7, #20]
	tc_channel->TC_IER = ul_sources;
  4001ca:	697b      	ldr	r3, [r7, #20]
  4001cc:	687a      	ldr	r2, [r7, #4]
  4001ce:	625a      	str	r2, [r3, #36]	; 0x24
}
  4001d0:	bf00      	nop
  4001d2:	371c      	adds	r7, #28
  4001d4:	46bd      	mov	sp, r7
  4001d6:	bc80      	pop	{r7}
  4001d8:	4770      	bx	lr

004001da <tc_get_status>:
 * \return The current TC status.
 */
uint32_t tc_get_status(
		Tc *p_tc,
		uint32_t ul_channel)
{
  4001da:	b480      	push	{r7}
  4001dc:	b085      	sub	sp, #20
  4001de:	af00      	add	r7, sp, #0
  4001e0:	6078      	str	r0, [r7, #4]
  4001e2:	6039      	str	r1, [r7, #0]
	/* Validate inputs. */
	Assert(p_tc);
	Assert(ul_channel <
			(sizeof(p_tc->TC_CHANNEL) / sizeof(p_tc->TC_CHANNEL[0])));
			
	tc_channel = p_tc->TC_CHANNEL + ul_channel;
  4001e4:	687a      	ldr	r2, [r7, #4]
  4001e6:	683b      	ldr	r3, [r7, #0]
  4001e8:	019b      	lsls	r3, r3, #6
  4001ea:	4413      	add	r3, r2
  4001ec:	60fb      	str	r3, [r7, #12]
	return tc_channel->TC_SR;
  4001ee:	68fb      	ldr	r3, [r7, #12]
  4001f0:	6a1b      	ldr	r3, [r3, #32]
}
  4001f2:	4618      	mov	r0, r3
  4001f4:	3714      	adds	r7, #20
  4001f6:	46bd      	mov	sp, r7
  4001f8:	bc80      	pop	{r7}
  4001fa:	4770      	bx	lr

004001fc <tc_find_mck_divisor>:
		uint32_t ul_freq,
		uint32_t ul_mck,
		uint32_t *p_uldiv,
		uint32_t *p_ultcclks,
		uint32_t ul_boardmck)
{
  4001fc:	b480      	push	{r7}
  4001fe:	b08d      	sub	sp, #52	; 0x34
  400200:	af00      	add	r7, sp, #0
  400202:	60f8      	str	r0, [r7, #12]
  400204:	60b9      	str	r1, [r7, #8]
  400206:	607a      	str	r2, [r7, #4]
  400208:	603b      	str	r3, [r7, #0]
	const uint32_t divisors[5] = { 2, 8, 32, 128,
  40020a:	2302      	movs	r3, #2
  40020c:	613b      	str	r3, [r7, #16]
  40020e:	2308      	movs	r3, #8
  400210:	617b      	str	r3, [r7, #20]
  400212:	2320      	movs	r3, #32
  400214:	61bb      	str	r3, [r7, #24]
  400216:	2380      	movs	r3, #128	; 0x80
  400218:	61fb      	str	r3, [r7, #28]
			ul_boardmck / FREQ_SLOW_CLOCK_EXT };
  40021a:	6bbb      	ldr	r3, [r7, #56]	; 0x38
  40021c:	0bdb      	lsrs	r3, r3, #15
	const uint32_t divisors[5] = { 2, 8, 32, 128,
  40021e:	623b      	str	r3, [r7, #32]
	uint32_t ul_index;
	uint32_t ul_high, ul_low;

	/*  Satisfy frequency bound. */
	for (ul_index = 0;
  400220:	2300      	movs	r3, #0
  400222:	62fb      	str	r3, [r7, #44]	; 0x2c
  400224:	e01a      	b.n	40025c <tc_find_mck_divisor+0x60>
			ul_index < (sizeof(divisors) / sizeof(divisors[0]));
			ul_index++) {
		ul_high = ul_mck / divisors[ul_index];
  400226:	6afb      	ldr	r3, [r7, #44]	; 0x2c
  400228:	009b      	lsls	r3, r3, #2
  40022a:	f107 0230 	add.w	r2, r7, #48	; 0x30
  40022e:	4413      	add	r3, r2
  400230:	f853 3c20 	ldr.w	r3, [r3, #-32]
  400234:	68ba      	ldr	r2, [r7, #8]
  400236:	fbb2 f3f3 	udiv	r3, r2, r3
  40023a:	62bb      	str	r3, [r7, #40]	; 0x28
		ul_low  = ul_high / TC_DIV_FACTOR;
  40023c:	6abb      	ldr	r3, [r7, #40]	; 0x28
  40023e:	0c1b      	lsrs	r3, r3, #16
  400240:	627b      	str	r3, [r7, #36]	; 0x24
		if (ul_freq > ul_high) {
  400242:	68fa      	ldr	r2, [r7, #12]
  400244:	6abb      	ldr	r3, [r7, #40]	; 0x28
  400246:	429a      	cmp	r2, r3
  400248:	d901      	bls.n	40024e <tc_find_mck_divisor+0x52>
			return 0;
  40024a:	2300      	movs	r3, #0
  40024c:	e023      	b.n	400296 <tc_find_mck_divisor+0x9a>
		} else if (ul_freq >= ul_low) {
  40024e:	68fa      	ldr	r2, [r7, #12]
  400250:	6a7b      	ldr	r3, [r7, #36]	; 0x24
  400252:	429a      	cmp	r2, r3
  400254:	d206      	bcs.n	400264 <tc_find_mck_divisor+0x68>
			ul_index++) {
  400256:	6afb      	ldr	r3, [r7, #44]	; 0x2c
  400258:	3301      	adds	r3, #1
  40025a:	62fb      	str	r3, [r7, #44]	; 0x2c
	for (ul_index = 0;
  40025c:	6afb      	ldr	r3, [r7, #44]	; 0x2c
  40025e:	2b04      	cmp	r3, #4
  400260:	d9e1      	bls.n	400226 <tc_find_mck_divisor+0x2a>
  400262:	e000      	b.n	400266 <tc_find_mck_divisor+0x6a>
			break;
  400264:	bf00      	nop
		}
	}
	if (ul_index >= (sizeof(divisors) / sizeof(divisors[0]))) {
  400266:	6afb      	ldr	r3, [r7, #44]	; 0x2c
  400268:	2b04      	cmp	r3, #4
  40026a:	d901      	bls.n	400270 <tc_find_mck_divisor+0x74>
		return 0;
  40026c:	2300      	movs	r3, #0
  40026e:	e012      	b.n	400296 <tc_find_mck_divisor+0x9a>
	}

	/*  Store results. */
	if (p_uldiv) {
  400270:	687b      	ldr	r3, [r7, #4]
  400272:	2b00      	cmp	r3, #0
  400274:	d008      	beq.n	400288 <tc_find_mck_divisor+0x8c>
		*p_uldiv = divisors[ul_index];
  400276:	6afb      	ldr	r3, [r7, #44]	; 0x2c
  400278:	009b      	lsls	r3, r3, #2
  40027a:	f107 0230 	add.w	r2, r7, #48	; 0x30
  40027e:	4413      	add	r3, r2
  400280:	f853 2c20 	ldr.w	r2, [r3, #-32]
  400284:	687b      	ldr	r3, [r7, #4]
  400286:	601a      	str	r2, [r3, #0]
	}

	if (p_ultcclks) {
  400288:	683b      	ldr	r3, [r7, #0]
  40028a:	2b00      	cmp	r3, #0
  40028c:	d002      	beq.n	400294 <tc_find_mck_divisor+0x98>
		*p_ultcclks = ul_index;
  40028e:	683b      	ldr	r3, [r7, #0]
  400290:	6afa      	ldr	r2, [r7, #44]	; 0x2c
  400292:	601a      	str	r2, [r3, #0]
	}

	return 1;
  400294:	2301      	movs	r3, #1
}
  400296:	4618      	mov	r0, r3
  400298:	3734      	adds	r7, #52	; 0x34
  40029a:	46bd      	mov	sp, r7
  40029c:	bc80      	pop	{r7}
  40029e:	4770      	bx	lr

004002a0 <wdt_disable>:

/**
 * \brief Disable the watchdog timer.
 */
void wdt_disable(Wdt *p_wdt)
{
  4002a0:	b480      	push	{r7}
  4002a2:	b083      	sub	sp, #12
  4002a4:	af00      	add	r7, sp, #0
  4002a6:	6078      	str	r0, [r7, #4]
	p_wdt->WDT_MR = WDT_MR_WDDIS;
  4002a8:	687b      	ldr	r3, [r7, #4]
  4002aa:	f44f 4200 	mov.w	r2, #32768	; 0x8000
  4002ae:	605a      	str	r2, [r3, #4]

}
  4002b0:	bf00      	nop
  4002b2:	370c      	adds	r7, #12
  4002b4:	46bd      	mov	sp, r7
  4002b6:	bc80      	pop	{r7}
  4002b8:	4770      	bx	lr
	...

004002bc <NVIC_EnableIRQ>:
    The function enables a device-specific interrupt in the NVIC interrupt controller.

    \param [in]      IRQn  External interrupt number. Value cannot be negative.
 */
__STATIC_INLINE void NVIC_EnableIRQ(IRQn_Type IRQn)
{
  4002bc:	b480      	push	{r7}
  4002be:	b083      	sub	sp, #12
  4002c0:	af00      	add	r7, sp, #0
  4002c2:	4603      	mov	r3, r0
  4002c4:	71fb      	strb	r3, [r7, #7]
/*  NVIC->ISER[((uint32_t)(IRQn) >> 5)] = (1 << ((uint32_t)(IRQn) & 0x1F));  enable interrupt */
  NVIC->ISER[(uint32_t)((int32_t)IRQn) >> 5] = (uint32_t)(1 << ((uint32_t)((int32_t)IRQn) & (uint32_t)0x1F)); /* enable interrupt */
  4002c6:	4908      	ldr	r1, [pc, #32]	; (4002e8 <NVIC_EnableIRQ+0x2c>)
  4002c8:	f997 3007 	ldrsb.w	r3, [r7, #7]
  4002cc:	095b      	lsrs	r3, r3, #5
  4002ce:	79fa      	ldrb	r2, [r7, #7]
  4002d0:	f002 021f 	and.w	r2, r2, #31
  4002d4:	2001      	movs	r0, #1
  4002d6:	fa00 f202 	lsl.w	r2, r0, r2
  4002da:	f841 2023 	str.w	r2, [r1, r3, lsl #2]
}
  4002de:	bf00      	nop
  4002e0:	370c      	adds	r7, #12
  4002e2:	46bd      	mov	sp, r7
  4002e4:	bc80      	pop	{r7}
  4002e6:	4770      	bx	lr
  4002e8:	e000e100 	.word	0xe000e100

004002ec <NVIC_DisableIRQ>:
    The function disables a device-specific interrupt in the NVIC interrupt controller.

    \param [in]      IRQn  External interrupt number. Value cannot be negative.
 */
__STATIC_INLINE void NVIC_DisableIRQ(IRQn_Type IRQn)
{
  4002ec:	b480      	push	{r7}
  4002ee:	b083      	sub	sp, #12
  4002f0:	af00      	add	r7, sp, #0
  4002f2:	4603      	mov	r3, r0
  4002f4:	71fb      	strb	r3, [r7, #7]
  NVIC->ICER[((uint32_t)(IRQn) >> 5)] = (1 << ((uint32_t)(IRQn) & 0x1F)); /* disable interrupt */
  4002f6:	4909      	ldr	r1, [pc, #36]	; (40031c <NVIC_DisableIRQ+0x30>)
  4002f8:	f997 3007 	ldrsb.w	r3, [r7, #7]
  4002fc:	095b      	lsrs	r3, r3, #5
  4002fe:	79fa      	ldrb	r2, [r7, #7]
  400300:	f002 021f 	and.w	r2, r2, #31
  400304:	2001      	movs	r0, #1
  400306:	fa00 f202 	lsl.w	r2, r0, r2
  40030a:	3320      	adds	r3, #32
  40030c:	f841 2023 	str.w	r2, [r1, r3, lsl #2]
}
  400310:	bf00      	nop
  400312:	370c      	adds	r7, #12
  400314:	46bd      	mov	sp, r7
  400316:	bc80      	pop	{r7}
  400318:	4770      	bx	lr
  40031a:	bf00      	nop
  40031c:	e000e100 	.word	0xe000e100

00400320 <NVIC_ClearPendingIRQ>:
    The function clears the pending bit of an external interrupt.

    \param [in]      IRQn  External interrupt number. Value cannot be negative.
 */
__STATIC_INLINE void NVIC_ClearPendingIRQ(IRQn_Type IRQn)
{
  400320:	b480      	push	{r7}
  400322:	b083      	sub	sp, #12
  400324:	af00      	add	r7, sp, #0
  400326:	4603      	mov	r3, r0
  400328:	71fb      	strb	r3, [r7, #7]
  NVIC->ICPR[((uint32_t)(IRQn) >> 5)] = (1 << ((uint32_t)(IRQn) & 0x1F)); /* Clear pending interrupt */
  40032a:	4909      	ldr	r1, [pc, #36]	; (400350 <NVIC_ClearPendingIRQ+0x30>)
  40032c:	f997 3007 	ldrsb.w	r3, [r7, #7]
  400330:	095b      	lsrs	r3, r3, #5
  400332:	79fa      	ldrb	r2, [r7, #7]
  400334:	f002 021f 	and.w	r2, r2, #31
  400338:	2001      	movs	r0, #1
  40033a:	fa00 f202 	lsl.w	r2, r0, r2
  40033e:	3360      	adds	r3, #96	; 0x60
  400340:	f841 2023 	str.w	r2, [r1, r3, lsl #2]
}
  400344:	bf00      	nop
  400346:	370c      	adds	r7, #12
  400348:	46bd      	mov	sp, r7
  40034a:	bc80      	pop	{r7}
  40034c:	4770      	bx	lr
  40034e:	bf00      	nop
  400350:	e000e100 	.word	0xe000e100

00400354 <NVIC_SetPriority>:

    \param [in]      IRQn  Interrupt number.
    \param [in]  priority  Priority to set.
 */
__STATIC_INLINE void NVIC_SetPriority(IRQn_Type IRQn, uint32_t priority)
{
  400354:	b480      	push	{r7}
  400356:	b083      	sub	sp, #12
  400358:	af00      	add	r7, sp, #0
  40035a:	4603      	mov	r3, r0
  40035c:	6039      	str	r1, [r7, #0]
  40035e:	71fb      	strb	r3, [r7, #7]
  if(IRQn < 0) {
  400360:	f997 3007 	ldrsb.w	r3, [r7, #7]
  400364:	2b00      	cmp	r3, #0
  400366:	da0b      	bge.n	400380 <NVIC_SetPriority+0x2c>
    SCB->SHP[((uint32_t)(IRQn) & 0xF)-4] = ((priority << (8 - __NVIC_PRIO_BITS)) & 0xff); } /* set Priority for Cortex-M  System Interrupts */
  400368:	490d      	ldr	r1, [pc, #52]	; (4003a0 <NVIC_SetPriority+0x4c>)
  40036a:	79fb      	ldrb	r3, [r7, #7]
  40036c:	f003 030f 	and.w	r3, r3, #15
  400370:	3b04      	subs	r3, #4
  400372:	683a      	ldr	r2, [r7, #0]
  400374:	b2d2      	uxtb	r2, r2
  400376:	0112      	lsls	r2, r2, #4
  400378:	b2d2      	uxtb	r2, r2
  40037a:	440b      	add	r3, r1
  40037c:	761a      	strb	r2, [r3, #24]
  else {
    NVIC->IP[(uint32_t)(IRQn)] = ((priority << (8 - __NVIC_PRIO_BITS)) & 0xff);    }        /* set Priority for device specific Interrupts  */
}
  40037e:	e009      	b.n	400394 <NVIC_SetPriority+0x40>
    NVIC->IP[(uint32_t)(IRQn)] = ((priority << (8 - __NVIC_PRIO_BITS)) & 0xff);    }        /* set Priority for device specific Interrupts  */
  400380:	4908      	ldr	r1, [pc, #32]	; (4003a4 <NVIC_SetPriority+0x50>)
  400382:	f997 3007 	ldrsb.w	r3, [r7, #7]
  400386:	683a      	ldr	r2, [r7, #0]
  400388:	b2d2      	uxtb	r2, r2
  40038a:	0112      	lsls	r2, r2, #4
  40038c:	b2d2      	uxtb	r2, r2
  40038e:	440b      	add	r3, r1
  400390:	f883 2300 	strb.w	r2, [r3, #768]	; 0x300
}
  400394:	bf00      	nop
  400396:	370c      	adds	r7, #12
  400398:	46bd      	mov	sp, r7
  40039a:	bc80      	pop	{r7}
  40039c:	4770      	bx	lr
  40039e:	bf00      	nop
  4003a0:	e000ed00 	.word	0xe000ed00
  4003a4:	e000e100 	.word	0xe000e100

004003a8 <osc_get_rate>:

	return 0;
}

static inline uint32_t osc_get_rate(uint32_t ul_id)
{
  4003a8:	b480      	push	{r7}
  4003aa:	b083      	sub	sp, #12
  4003ac:	af00      	add	r7, sp, #0
  4003ae:	6078      	str	r0, [r7, #4]
	switch (ul_id) {
  4003b0:	687b      	ldr	r3, [r7, #4]
  4003b2:	2b07      	cmp	r3, #7
  4003b4:	d825      	bhi.n	400402 <osc_get_rate+0x5a>
  4003b6:	a201      	add	r2, pc, #4	; (adr r2, 4003bc <osc_get_rate+0x14>)
  4003b8:	f852 f023 	ldr.w	pc, [r2, r3, lsl #2]
  4003bc:	004003dd 	.word	0x004003dd
  4003c0:	004003e3 	.word	0x004003e3
  4003c4:	004003e9 	.word	0x004003e9
  4003c8:	004003ef 	.word	0x004003ef
  4003cc:	004003f3 	.word	0x004003f3
  4003d0:	004003f7 	.word	0x004003f7
  4003d4:	004003fb 	.word	0x004003fb
  4003d8:	004003ff 	.word	0x004003ff
	case OSC_SLCK_32K_RC:
		return OSC_SLCK_32K_RC_HZ;
  4003dc:	f44f 43fa 	mov.w	r3, #32000	; 0x7d00
  4003e0:	e010      	b.n	400404 <osc_get_rate+0x5c>

	case OSC_SLCK_32K_XTAL:
		return BOARD_FREQ_SLCK_XTAL;
  4003e2:	f44f 4300 	mov.w	r3, #32768	; 0x8000
  4003e6:	e00d      	b.n	400404 <osc_get_rate+0x5c>

	case OSC_SLCK_32K_BYPASS:
		return BOARD_FREQ_SLCK_BYPASS;
  4003e8:	f44f 4300 	mov.w	r3, #32768	; 0x8000
  4003ec:	e00a      	b.n	400404 <osc_get_rate+0x5c>

	case OSC_MAINCK_4M_RC:
		return OSC_MAINCK_4M_RC_HZ;
  4003ee:	4b08      	ldr	r3, [pc, #32]	; (400410 <osc_get_rate+0x68>)
  4003f0:	e008      	b.n	400404 <osc_get_rate+0x5c>

	case OSC_MAINCK_8M_RC:
		return OSC_MAINCK_8M_RC_HZ;
  4003f2:	4b08      	ldr	r3, [pc, #32]	; (400414 <osc_get_rate+0x6c>)
  4003f4:	e006      	b.n	400404 <osc_get_rate+0x5c>

	case OSC_MAINCK_12M_RC:
		return OSC_MAINCK_12M_RC_HZ;
  4003f6:	4b08      	ldr	r3, [pc, #32]	; (400418 <osc_get_rate+0x70>)
  4003f8:	e004      	b.n	400404 <osc_get_rate+0x5c>

	case OSC_MAINCK_XTAL:
		return BOARD_FREQ_MAINCK_XTAL;
  4003fa:	4b07      	ldr	r3, [pc, #28]	; (400418 <osc_get_rate+0x70>)
  4003fc:	e002      	b.n	400404 <osc_get_rate+0x5c>

	case OSC_MAINCK_BYPASS:
		return BOARD_FREQ_MAINCK_BYPASS;
  4003fe:	4b06      	ldr	r3, [pc, #24]	; (400418 <osc_get_rate+0x70>)
  400400:	e000      	b.n	400404 <osc_get_rate+0x5c>
	}

	return 0;
  400402:	2300      	movs	r3, #0
}
  400404:	4618      	mov	r0, r3
  400406:	370c      	adds	r7, #12
  400408:	46bd      	mov	sp, r7
  40040a:	bc80      	pop	{r7}
  40040c:	4770      	bx	lr
  40040e:	bf00      	nop
  400410:	003d0900 	.word	0x003d0900
  400414:	007a1200 	.word	0x007a1200
  400418:	00b71b00 	.word	0x00b71b00

0040041c <sysclk_get_main_hz>:
 */
#if (defined CONFIG_SYSCLK_DEFAULT_RETURNS_SLOW_OSC)
extern uint32_t sysclk_initialized;
#endif
static inline uint32_t sysclk_get_main_hz(void)
{
  40041c:	b580      	push	{r7, lr}
  40041e:	af00      	add	r7, sp, #0
	} else if (CONFIG_SYSCLK_SOURCE == SYSCLK_SRC_MAINCK_BYPASS) {
		return OSC_MAINCK_BYPASS_HZ;
	}
#ifdef CONFIG_PLL0_SOURCE
	else if (CONFIG_SYSCLK_SOURCE == SYSCLK_SRC_PLLACK) {
		return pll_get_default_rate(0);
  400420:	2006      	movs	r0, #6
  400422:	4b04      	ldr	r3, [pc, #16]	; (400434 <sysclk_get_main_hz+0x18>)
  400424:	4798      	blx	r3
  400426:	4602      	mov	r2, r0
  400428:	4613      	mov	r3, r2
  40042a:	009b      	lsls	r3, r3, #2
  40042c:	4413      	add	r3, r2
  40042e:	009b      	lsls	r3, r3, #2

	else {
		/* unhandled_case(CONFIG_SYSCLK_SOURCE); */
		return 0;
	}
}
  400430:	4618      	mov	r0, r3
  400432:	bd80      	pop	{r7, pc}
  400434:	004003a9 	.word	0x004003a9

00400438 <sysclk_get_cpu_hz>:
 * clocks.
 *
 * \return Frequency of the CPU clock, in Hz.
 */
static inline uint32_t sysclk_get_cpu_hz(void)
{
  400438:	b580      	push	{r7, lr}
  40043a:	af00      	add	r7, sp, #0
	/* CONFIG_SYSCLK_PRES is the register value for setting the expected */
	/* prescaler, not an immediate value. */
	return sysclk_get_main_hz() /
  40043c:	4b02      	ldr	r3, [pc, #8]	; (400448 <sysclk_get_cpu_hz+0x10>)
  40043e:	4798      	blx	r3
  400440:	4603      	mov	r3, r0
  400442:	085b      	lsrs	r3, r3, #1
		((CONFIG_SYSCLK_PRES == SYSCLK_PRES_3) ? 3 :
			(1 << (CONFIG_SYSCLK_PRES >> PMC_MCKR_PRES_Pos)));
}
  400444:	4618      	mov	r0, r3
  400446:	bd80      	pop	{r7, pc}
  400448:	0040041d 	.word	0x0040041d

0040044c <ioport_set_pin_level>:
 *
 * \param pin IOPORT pin to configure
 * \param level Logical value of the pin
 */
static inline void ioport_set_pin_level(ioport_pin_t pin, bool level)
{
  40044c:	b480      	push	{r7}
  40044e:	b08b      	sub	sp, #44	; 0x2c
  400450:	af00      	add	r7, sp, #0
  400452:	6078      	str	r0, [r7, #4]
  400454:	460b      	mov	r3, r1
  400456:	70fb      	strb	r3, [r7, #3]
  400458:	687b      	ldr	r3, [r7, #4]
  40045a:	627b      	str	r3, [r7, #36]	; 0x24
  40045c:	78fb      	ldrb	r3, [r7, #3]
  40045e:	f887 3023 	strb.w	r3, [r7, #35]	; 0x23
  400462:	6a7b      	ldr	r3, [r7, #36]	; 0x24
  400464:	61fb      	str	r3, [r7, #28]
  400466:	69fb      	ldr	r3, [r7, #28]
  400468:	61bb      	str	r3, [r7, #24]
typedef uint32_t ioport_port_t;
typedef uint32_t ioport_port_mask_t;

__always_inline static ioport_port_t arch_ioport_pin_to_port_id(ioport_pin_t pin)
{
	return pin >> 5;
  40046a:	69bb      	ldr	r3, [r7, #24]
  40046c:	095b      	lsrs	r3, r3, #5
  40046e:	617b      	str	r3, [r7, #20]
	} else {
		return (Pio *)((uintptr_t)IOPORT_BASE_ADDRESS +
		       (IOPORT_PIO_OFFSET * port));
	}
#else
	return (Pio *)((uintptr_t)IOPORT_BASE_ADDRESS +
  400470:	697b      	ldr	r3, [r7, #20]
  400472:	f503 1300 	add.w	r3, r3, #2097152	; 0x200000
  400476:	f203 7307 	addw	r3, r3, #1799	; 0x707
  40047a:	025b      	lsls	r3, r3, #9
}

__always_inline static void arch_ioport_set_pin_level(ioport_pin_t pin,
		bool level)
{
	Pio *base = arch_ioport_pin_to_base(pin);
  40047c:	613b      	str	r3, [r7, #16]

	if (level) {
  40047e:	f897 3023 	ldrb.w	r3, [r7, #35]	; 0x23
  400482:	2b00      	cmp	r3, #0
  400484:	d009      	beq.n	40049a <ioport_set_pin_level+0x4e>
  400486:	6a7b      	ldr	r3, [r7, #36]	; 0x24
  400488:	60fb      	str	r3, [r7, #12]
	return 1U << (pin & 0x1F);
  40048a:	68fb      	ldr	r3, [r7, #12]
  40048c:	f003 031f 	and.w	r3, r3, #31
  400490:	2201      	movs	r2, #1
  400492:	409a      	lsls	r2, r3
		base->PIO_SODR = arch_ioport_pin_to_mask(pin);
  400494:	693b      	ldr	r3, [r7, #16]
  400496:	631a      	str	r2, [r3, #48]	; 0x30
	arch_ioport_set_pin_level(pin, level);
}
  400498:	e008      	b.n	4004ac <ioport_set_pin_level+0x60>
  40049a:	6a7b      	ldr	r3, [r7, #36]	; 0x24
  40049c:	60bb      	str	r3, [r7, #8]
	return 1U << (pin & 0x1F);
  40049e:	68bb      	ldr	r3, [r7, #8]
  4004a0:	f003 031f 	and.w	r3, r3, #31
  4004a4:	2201      	movs	r2, #1
  4004a6:	409a      	lsls	r2, r3
	} else {
		base->PIO_CODR = arch_ioport_pin_to_mask(pin);
  4004a8:	693b      	ldr	r3, [r7, #16]
  4004aa:	635a      	str	r2, [r3, #52]	; 0x34
  4004ac:	bf00      	nop
  4004ae:	372c      	adds	r7, #44	; 0x2c
  4004b0:	46bd      	mov	sp, r7
  4004b2:	bc80      	pop	{r7}
  4004b4:	4770      	bx	lr
	...

004004b8 <vsync_handler>:
/**
 * \brief Handler for vertical synchronisation using by the OV2640 image
 * sensor.
 */
void vsync_handler(uint32_t ul_id, uint32_t ul_mask)
{
  4004b8:	b480      	push	{r7}
  4004ba:	b083      	sub	sp, #12
  4004bc:	af00      	add	r7, sp, #0
  4004be:	6078      	str	r0, [r7, #4]
  4004c0:	6039      	str	r1, [r7, #0]
	unused(ul_id);
	unused(ul_mask);
	
	g_ul_vsync_flag = true;
  4004c2:	4b04      	ldr	r3, [pc, #16]	; (4004d4 <vsync_handler+0x1c>)
  4004c4:	2201      	movs	r2, #1
  4004c6:	601a      	str	r2, [r3, #0]
}
  4004c8:	bf00      	nop
  4004ca:	370c      	adds	r7, #12
  4004cc:	46bd      	mov	sp, r7
  4004ce:	bc80      	pop	{r7}
  4004d0:	4770      	bx	lr
  4004d2:	bf00      	nop
  4004d4:	200009dc 	.word	0x200009dc

004004d8 <init_vsync_interrupts>:

/**
 * \brief Intialize Vsync_Handler.
 */
void init_vsync_interrupts(void)
{
  4004d8:	b590      	push	{r4, r7, lr}
  4004da:	b083      	sub	sp, #12
  4004dc:	af02      	add	r7, sp, #8
		/* Initialize PIO interrupt handler, see PIO definition in camera.h
	**/
	pio_handler_set(OV2640_VSYNC_PIO, OV2640_VSYNC_ID, OV2640_VSYNC_MASK,
  4004de:	4b08      	ldr	r3, [pc, #32]	; (400500 <init_vsync_interrupts+0x28>)
  4004e0:	9300      	str	r3, [sp, #0]
  4004e2:	2301      	movs	r3, #1
  4004e4:	f44f 4200 	mov.w	r2, #32768	; 0x8000
  4004e8:	210b      	movs	r1, #11
  4004ea:	4806      	ldr	r0, [pc, #24]	; (400504 <init_vsync_interrupts+0x2c>)
  4004ec:	4c06      	ldr	r4, [pc, #24]	; (400508 <init_vsync_interrupts+0x30>)
  4004ee:	47a0      	blx	r4
			OV2640_VSYNC_TYPE, vsync_handler);

	/* Enable PIO controller IRQs */
	NVIC_EnableIRQ((IRQn_Type)OV2640_VSYNC_ID);
  4004f0:	200b      	movs	r0, #11
  4004f2:	4b06      	ldr	r3, [pc, #24]	; (40050c <init_vsync_interrupts+0x34>)
  4004f4:	4798      	blx	r3
}
  4004f6:	bf00      	nop
  4004f8:	3704      	adds	r7, #4
  4004fa:	46bd      	mov	sp, r7
  4004fc:	bd90      	pop	{r4, r7, pc}
  4004fe:	bf00      	nop
  400500:	004004b9 	.word	0x004004b9
  400504:	400e0e00 	.word	0x400e0e00
  400508:	00401d29 	.word	0x00401d29
  40050c:	004002bd 	.word	0x004002bd

00400510 <pio_capture_init>:
 *
 * \param p_pio PIO instance to be configured in PIO capture mode.
 * \param ul_id Corresponding PIO ID.
 */
void pio_capture_init(Pio *p_pio, uint32_t ul_id)
{
  400510:	b580      	push	{r7, lr}
  400512:	b082      	sub	sp, #8
  400514:	af00      	add	r7, sp, #0
  400516:	6078      	str	r0, [r7, #4]
  400518:	6039      	str	r1, [r7, #0]
		/* Enable periphral clock */
		pmc_enable_periph_clk(ul_id);
  40051a:	6838      	ldr	r0, [r7, #0]
  40051c:	4b22      	ldr	r3, [pc, #136]	; (4005a8 <pio_capture_init+0x98>)
  40051e:	4798      	blx	r3

		/* Disable pio capture */
		p_pio->PIO_PCMR &= ~((uint32_t)PIO_PCMR_PCEN);
  400520:	687b      	ldr	r3, [r7, #4]
  400522:	f8d3 3150 	ldr.w	r3, [r3, #336]	; 0x150
  400526:	f023 0201 	bic.w	r2, r3, #1
  40052a:	687b      	ldr	r3, [r7, #4]
  40052c:	f8c3 2150 	str.w	r2, [r3, #336]	; 0x150

		/* Disable rxbuff interrupt */
		p_pio->PIO_PCIDR |= PIO_PCIDR_RXBUFF;
  400530:	687b      	ldr	r3, [r7, #4]
  400532:	f8d3 3158 	ldr.w	r3, [r3, #344]	; 0x158
  400536:	f043 0208 	orr.w	r2, r3, #8
  40053a:	687b      	ldr	r3, [r7, #4]
  40053c:	f8c3 2158 	str.w	r2, [r3, #344]	; 0x158

		/* 32bit width*/
		p_pio->PIO_PCMR &= ~((uint32_t)PIO_PCMR_DSIZE_Msk);
  400540:	687b      	ldr	r3, [r7, #4]
  400542:	f8d3 3150 	ldr.w	r3, [r3, #336]	; 0x150
  400546:	f023 0230 	bic.w	r2, r3, #48	; 0x30
  40054a:	687b      	ldr	r3, [r7, #4]
  40054c:	f8c3 2150 	str.w	r2, [r3, #336]	; 0x150
		p_pio->PIO_PCMR |= PIO_PCMR_DSIZE_WORD;
  400550:	687b      	ldr	r3, [r7, #4]
  400552:	f8d3 3150 	ldr.w	r3, [r3, #336]	; 0x150
  400556:	f043 0220 	orr.w	r2, r3, #32
  40055a:	687b      	ldr	r3, [r7, #4]
  40055c:	f8c3 2150 	str.w	r2, [r3, #336]	; 0x150

		/* Only HSYNC and VSYNC enabled */
		p_pio->PIO_PCMR &= ~((uint32_t)PIO_PCMR_ALWYS);
  400560:	687b      	ldr	r3, [r7, #4]
  400562:	f8d3 3150 	ldr.w	r3, [r3, #336]	; 0x150
  400566:	f423 7200 	bic.w	r2, r3, #512	; 0x200
  40056a:	687b      	ldr	r3, [r7, #4]
  40056c:	f8c3 2150 	str.w	r2, [r3, #336]	; 0x150
		p_pio->PIO_PCMR &= ~((uint32_t)PIO_PCMR_HALFS);
  400570:	687b      	ldr	r3, [r7, #4]
  400572:	f8d3 3150 	ldr.w	r3, [r3, #336]	; 0x150
  400576:	f423 6280 	bic.w	r2, r3, #1024	; 0x400
  40057a:	687b      	ldr	r3, [r7, #4]
  40057c:	f8c3 2150 	str.w	r2, [r3, #336]	; 0x150

		#if !defined(DEFAULT_MODE_COLORED)
		/* Samples only data with even index */
		p_pio->PIO_PCMR |= PIO_PCMR_HALFS;
  400580:	687b      	ldr	r3, [r7, #4]
  400582:	f8d3 3150 	ldr.w	r3, [r3, #336]	; 0x150
  400586:	f443 6280 	orr.w	r2, r3, #1024	; 0x400
  40058a:	687b      	ldr	r3, [r7, #4]
  40058c:	f8c3 2150 	str.w	r2, [r3, #336]	; 0x150
		p_pio->PIO_PCMR &= ~((uint32_t)PIO_PCMR_FRSTS);
  400590:	687b      	ldr	r3, [r7, #4]
  400592:	f8d3 3150 	ldr.w	r3, [r3, #336]	; 0x150
  400596:	f423 6200 	bic.w	r2, r3, #2048	; 0x800
  40059a:	687b      	ldr	r3, [r7, #4]
  40059c:	f8c3 2150 	str.w	r2, [r3, #336]	; 0x150
		#endif
}
  4005a0:	bf00      	nop
  4005a2:	3708      	adds	r7, #8
  4005a4:	46bd      	mov	sp, r7
  4005a6:	bd80      	pop	{r7, pc}
  4005a8:	0040298d 	.word	0x0040298d

004005ac <pio_capture_to_buffer>:
 * \param p_pio PIO instance which will capture data from OV2640 iamge sensor.
 * \param p_uc_buf Buffer address where captured data must be stored.
 * \param ul_size Data frame size.
 */
uint8_t pio_capture_to_buffer(Pio *p_pio, uint8_t *uc_buf, uint32_t ul_size)
{
  4005ac:	b480      	push	{r7}
  4005ae:	b085      	sub	sp, #20
  4005b0:	af00      	add	r7, sp, #0
  4005b2:	60f8      	str	r0, [r7, #12]
  4005b4:	60b9      	str	r1, [r7, #8]
  4005b6:	607a      	str	r2, [r7, #4]
		/* Check if the first PDC bank is free */
		if ((p_pio->PIO_RCR == 0) && (p_pio->PIO_RNCR == 0)) {
  4005b8:	68fb      	ldr	r3, [r7, #12]
  4005ba:	f8d3 316c 	ldr.w	r3, [r3, #364]	; 0x16c
  4005be:	2b00      	cmp	r3, #0
  4005c0:	d112      	bne.n	4005e8 <pio_capture_to_buffer+0x3c>
  4005c2:	68fb      	ldr	r3, [r7, #12]
  4005c4:	f8d3 317c 	ldr.w	r3, [r3, #380]	; 0x17c
  4005c8:	2b00      	cmp	r3, #0
  4005ca:	d10d      	bne.n	4005e8 <pio_capture_to_buffer+0x3c>
			p_pio->PIO_RPR = (uint32_t)uc_buf;
  4005cc:	68ba      	ldr	r2, [r7, #8]
  4005ce:	68fb      	ldr	r3, [r7, #12]
  4005d0:	f8c3 2168 	str.w	r2, [r3, #360]	; 0x168
			p_pio->PIO_RCR = ul_size;
  4005d4:	68fb      	ldr	r3, [r7, #12]
  4005d6:	687a      	ldr	r2, [r7, #4]
  4005d8:	f8c3 216c 	str.w	r2, [r3, #364]	; 0x16c
			p_pio->PIO_PTCR = PIO_PTCR_RXTEN;
  4005dc:	68fb      	ldr	r3, [r7, #12]
  4005de:	2201      	movs	r2, #1
  4005e0:	f8c3 2188 	str.w	r2, [r3, #392]	; 0x188
			return 1;
  4005e4:	2301      	movs	r3, #1
  4005e6:	e00f      	b.n	400608 <pio_capture_to_buffer+0x5c>
			} else if (p_pio->PIO_RNCR == 0) {
  4005e8:	68fb      	ldr	r3, [r7, #12]
  4005ea:	f8d3 317c 	ldr.w	r3, [r3, #380]	; 0x17c
  4005ee:	2b00      	cmp	r3, #0
  4005f0:	d109      	bne.n	400606 <pio_capture_to_buffer+0x5a>
			p_pio->PIO_RNPR = (uint32_t)uc_buf;
  4005f2:	68ba      	ldr	r2, [r7, #8]
  4005f4:	68fb      	ldr	r3, [r7, #12]
  4005f6:	f8c3 2178 	str.w	r2, [r3, #376]	; 0x178
			p_pio->PIO_RNCR = ul_size;
  4005fa:	68fb      	ldr	r3, [r7, #12]
  4005fc:	687a      	ldr	r2, [r7, #4]
  4005fe:	f8c3 217c 	str.w	r2, [r3, #380]	; 0x17c
			return 1;
  400602:	2301      	movs	r3, #1
  400604:	e000      	b.n	400608 <pio_capture_to_buffer+0x5c>
			} else {
			return 0;
  400606:	2300      	movs	r3, #0
		}
}
  400608:	4618      	mov	r0, r3
  40060a:	3714      	adds	r7, #20
  40060c:	46bd      	mov	sp, r7
  40060e:	bc80      	pop	{r7}
  400610:	4770      	bx	lr
	...

00400614 <init_camera>:

/**
 * \brief Initialize PIO capture and the OV2640 image sensor.
 */
void init_camera(void)
{
  400614:	e92d 4ff0 	stmdb	sp!, {r4, r5, r6, r7, r8, r9, sl, fp, lr}
  400618:	b085      	sub	sp, #20
  40061a:	af00      	add	r7, sp, #0
	twi_options_t opt;

	/* Init Vsync handler*/
	init_vsync_interrupts();
  40061c:	4b61      	ldr	r3, [pc, #388]	; (4007a4 <init_camera+0x190>)
  40061e:	4798      	blx	r3

	gpio_configure_pin(TWI_DATA_GPIO,TWI0_DATA_FLAGS);
  400620:	f04f 6100 	mov.w	r1, #134217728	; 0x8000000
  400624:	2003      	movs	r0, #3
  400626:	4b60      	ldr	r3, [pc, #384]	; (4007a8 <init_camera+0x194>)
  400628:	4798      	blx	r3
	gpio_configure_pin(TWI0_CLK_GPIO,TWI_CLK_FLAGS);
  40062a:	f04f 6100 	mov.w	r1, #134217728	; 0x8000000
  40062e:	2004      	movs	r0, #4
  400630:	4b5d      	ldr	r3, [pc, #372]	; (4007a8 <init_camera+0x194>)
  400632:	4798      	blx	r3

	gpio_configure_pin(PIN_PCK1,PIN_PCK1_FLAGS);
  400634:	f04f 6100 	mov.w	r1, #134217728	; 0x8000000
  400638:	2011      	movs	r0, #17
  40063a:	4b5b      	ldr	r3, [pc, #364]	; (4007a8 <init_camera+0x194>)
  40063c:	4798      	blx	r3
	gpio_configure_pin(PIN_PCK0,PIN_PCK0_FLAGS);
  40063e:	f04f 6100 	mov.w	r1, #134217728	; 0x8000000
  400642:	2017      	movs	r0, #23
  400644:	4b58      	ldr	r3, [pc, #352]	; (4007a8 <init_camera+0x194>)
  400646:	4798      	blx	r3

	//gpio_configure_pin(OV_SW_OVT_GPIO, OV_SW_OVT_FLAGS);
	//gpio_configure_pin(OV_RST_GPIO, OV_RST_FLAGS);
	gpio_configure_pin(OV_FSIN_GPIO, OV_FSIN_FLAGS);
  400648:	f04f 5140 	mov.w	r1, #805306368	; 0x30000000
  40064c:	2015      	movs	r0, #21
  40064e:	4b56      	ldr	r3, [pc, #344]	; (4007a8 <init_camera+0x194>)
  400650:	4798      	blx	r3
	gpio_configure_pin(OV_HSYNC_GPIO, OV_HSYNC_FLAGS);
  400652:	2171      	movs	r1, #113	; 0x71
  400654:	2010      	movs	r0, #16
  400656:	4b54      	ldr	r3, [pc, #336]	; (4007a8 <init_camera+0x194>)
  400658:	4798      	blx	r3
	gpio_configure_pin(OV_VSYNC_GPIO, OV_VSYNC_FLAGS);
  40065a:	2171      	movs	r1, #113	; 0x71
  40065c:	200f      	movs	r0, #15
  40065e:	4b52      	ldr	r3, [pc, #328]	; (4007a8 <init_camera+0x194>)
  400660:	4798      	blx	r3
	gpio_configure_pin(OV_DATA_BUS_D0, OV_DATA_BUS_FLAGS);
  400662:	4952      	ldr	r1, [pc, #328]	; (4007ac <init_camera+0x198>)
  400664:	2018      	movs	r0, #24
  400666:	4b50      	ldr	r3, [pc, #320]	; (4007a8 <init_camera+0x194>)
  400668:	4798      	blx	r3
	gpio_configure_pin(OV_DATA_BUS_D1, OV_DATA_BUS_FLAGS);
  40066a:	4950      	ldr	r1, [pc, #320]	; (4007ac <init_camera+0x198>)
  40066c:	2019      	movs	r0, #25
  40066e:	4b4e      	ldr	r3, [pc, #312]	; (4007a8 <init_camera+0x194>)
  400670:	4798      	blx	r3
	gpio_configure_pin(OV_DATA_BUS_D2, OV_DATA_BUS_FLAGS);
  400672:	494e      	ldr	r1, [pc, #312]	; (4007ac <init_camera+0x198>)
  400674:	201a      	movs	r0, #26
  400676:	4b4c      	ldr	r3, [pc, #304]	; (4007a8 <init_camera+0x194>)
  400678:	4798      	blx	r3
	gpio_configure_pin(OV_DATA_BUS_D3, OV_DATA_BUS_FLAGS);
  40067a:	494c      	ldr	r1, [pc, #304]	; (4007ac <init_camera+0x198>)
  40067c:	201b      	movs	r0, #27
  40067e:	4b4a      	ldr	r3, [pc, #296]	; (4007a8 <init_camera+0x194>)
  400680:	4798      	blx	r3
	gpio_configure_pin(OV_DATA_BUS_D4, OV_DATA_BUS_FLAGS);
  400682:	494a      	ldr	r1, [pc, #296]	; (4007ac <init_camera+0x198>)
  400684:	201c      	movs	r0, #28
  400686:	4b48      	ldr	r3, [pc, #288]	; (4007a8 <init_camera+0x194>)
  400688:	4798      	blx	r3
	gpio_configure_pin(OV_DATA_BUS_D5, OV_DATA_BUS_FLAGS);
  40068a:	4948      	ldr	r1, [pc, #288]	; (4007ac <init_camera+0x198>)
  40068c:	201d      	movs	r0, #29
  40068e:	4b46      	ldr	r3, [pc, #280]	; (4007a8 <init_camera+0x194>)
  400690:	4798      	blx	r3
	gpio_configure_pin(OV_DATA_BUS_D6, OV_DATA_BUS_FLAGS);
  400692:	4946      	ldr	r1, [pc, #280]	; (4007ac <init_camera+0x198>)
  400694:	201e      	movs	r0, #30
  400696:	4b44      	ldr	r3, [pc, #272]	; (4007a8 <init_camera+0x194>)
  400698:	4798      	blx	r3
	gpio_configure_pin(OV_DATA_BUS_D7, OV_DATA_BUS_FLAGS);
  40069a:	4944      	ldr	r1, [pc, #272]	; (4007ac <init_camera+0x198>)
  40069c:	201f      	movs	r0, #31
  40069e:	4b42      	ldr	r3, [pc, #264]	; (4007a8 <init_camera+0x194>)
  4006a0:	4798      	blx	r3

	/* Init PCK1 to work at 24 Mhz */
	/* 96/4=24 Mhz */
	/// PLLB is started at 96Mhz in main function and divided by 4 to 24Mhz to drive PCK1
	PMC->PMC_PCK[1] = (PMC_PCK_PRES_CLK_4 | PMC_PCK_CSS_PLLB_CLK);
  4006a2:	4b43      	ldr	r3, [pc, #268]	; (4007b0 <init_camera+0x19c>)
  4006a4:	2223      	movs	r2, #35	; 0x23
  4006a6:	645a      	str	r2, [r3, #68]	; 0x44
	PMC->PMC_SCER = PMC_SCER_PCK1;
  4006a8:	4b41      	ldr	r3, [pc, #260]	; (4007b0 <init_camera+0x19c>)
  4006aa:	f44f 7200 	mov.w	r2, #512	; 0x200
  4006ae:	601a      	str	r2, [r3, #0]
	while (!(PMC->PMC_SCSR & PMC_SCSR_PCK1)) {
  4006b0:	bf00      	nop
  4006b2:	4b3f      	ldr	r3, [pc, #252]	; (4007b0 <init_camera+0x19c>)
  4006b4:	689b      	ldr	r3, [r3, #8]
  4006b6:	f403 7300 	and.w	r3, r3, #512	; 0x200
  4006ba:	2b00      	cmp	r3, #0
  4006bc:	d0f9      	beq.n	4006b2 <init_camera+0x9e>
	}

	

	/* Init PIO capture*/
	pio_capture_init(OV_DATA_BUS_PIO, OV_DATA_BUS_ID);
  4006be:	210b      	movs	r1, #11
  4006c0:	483c      	ldr	r0, [pc, #240]	; (4007b4 <init_camera+0x1a0>)
  4006c2:	4b3d      	ldr	r3, [pc, #244]	; (4007b8 <init_camera+0x1a4>)
  4006c4:	4798      	blx	r3

	/* Turn on ov2640 image sensor using power pin */
	//ov_power(true, OV_POWER_PIO, OV_POWER_MASK);
	/*camera will always be on, by setting pa20 high*/
	ioport_set_pin_level(pin_camera_ret,HIGH);
  4006c6:	2101      	movs	r1, #1
  4006c8:	2014      	movs	r0, #20
  4006ca:	4b3c      	ldr	r3, [pc, #240]	; (4007bc <init_camera+0x1a8>)
  4006cc:	4798      	blx	r3


	/* Enable TWI peripheral */
	pmc_enable_periph_clk(ID_BOARD_TWI);
  4006ce:	2013      	movs	r0, #19
  4006d0:	4b3b      	ldr	r3, [pc, #236]	; (4007c0 <init_camera+0x1ac>)
  4006d2:	4798      	blx	r3

	/* Init TWI peripheral */
	opt.master_clk = sysclk_get_cpu_hz();
  4006d4:	4b3b      	ldr	r3, [pc, #236]	; (4007c4 <init_camera+0x1b0>)
  4006d6:	4798      	blx	r3
  4006d8:	4603      	mov	r3, r0
  4006da:	607b      	str	r3, [r7, #4]
	opt.speed      = TWI_CLK;
  4006dc:	4b3a      	ldr	r3, [pc, #232]	; (4007c8 <init_camera+0x1b4>)
  4006de:	60bb      	str	r3, [r7, #8]
	twi_master_init(BOARD_TWI, &opt);
  4006e0:	1d3b      	adds	r3, r7, #4
  4006e2:	4619      	mov	r1, r3
  4006e4:	4839      	ldr	r0, [pc, #228]	; (4007cc <init_camera+0x1b8>)
  4006e6:	4b3a      	ldr	r3, [pc, #232]	; (4007d0 <init_camera+0x1bc>)
  4006e8:	4798      	blx	r3

	/* Configure TWI interrupts */
	NVIC_DisableIRQ(BOARD_TWI_IRQn);
  4006ea:	2013      	movs	r0, #19
  4006ec:	4b39      	ldr	r3, [pc, #228]	; (4007d4 <init_camera+0x1c0>)
  4006ee:	4798      	blx	r3
	NVIC_ClearPendingIRQ(BOARD_TWI_IRQn);
  4006f0:	2013      	movs	r0, #19
  4006f2:	4b39      	ldr	r3, [pc, #228]	; (4007d8 <init_camera+0x1c4>)
  4006f4:	4798      	blx	r3
	NVIC_SetPriority(BOARD_TWI_IRQn, 0);
  4006f6:	2100      	movs	r1, #0
  4006f8:	2013      	movs	r0, #19
  4006fa:	4b38      	ldr	r3, [pc, #224]	; (4007dc <init_camera+0x1c8>)
  4006fc:	4798      	blx	r3
	NVIC_EnableIRQ(BOARD_TWI_IRQn);
  4006fe:	2013      	movs	r0, #19
  400700:	4b37      	ldr	r3, [pc, #220]	; (4007e0 <init_camera+0x1cc>)
  400702:	4798      	blx	r3

	/* ov2640 Initialization */
	while (ov_init(BOARD_TWI) == 1) {
  400704:	bf00      	nop
  400706:	4831      	ldr	r0, [pc, #196]	; (4007cc <init_camera+0x1b8>)
  400708:	4b36      	ldr	r3, [pc, #216]	; (4007e4 <init_camera+0x1d0>)
  40070a:	4798      	blx	r3
  40070c:	4603      	mov	r3, r0
  40070e:	2b01      	cmp	r3, #1
  400710:	d0f9      	beq.n	400706 <init_camera+0xf2>
	}

	/* ov2640 configuration */
	/*ov_configure(BOARD_TWI, QVGA_YUV422_20FPS);*/
	ov_configure(BOARD_TWI, JPEG_640x480);
  400712:	2104      	movs	r1, #4
  400714:	482d      	ldr	r0, [pc, #180]	; (4007cc <init_camera+0x1b8>)
  400716:	4b34      	ldr	r3, [pc, #208]	; (4007e8 <init_camera+0x1d4>)
  400718:	4798      	blx	r3

	/* Wait 3 seconds to let the image sensor to adapt to environment */
	delay_ms(3000);
  40071a:	4b2a      	ldr	r3, [pc, #168]	; (4007c4 <init_camera+0x1b0>)
  40071c:	4798      	blx	r3
  40071e:	4603      	mov	r3, r0
  400720:	4619      	mov	r1, r3
  400722:	f04f 0200 	mov.w	r2, #0
  400726:	460b      	mov	r3, r1
  400728:	4614      	mov	r4, r2
  40072a:	18db      	adds	r3, r3, r3
  40072c:	eb44 0404 	adc.w	r4, r4, r4
  400730:	185b      	adds	r3, r3, r1
  400732:	eb44 0402 	adc.w	r4, r4, r2
  400736:	ea4f 1b04 	mov.w	fp, r4, lsl #4
  40073a:	ea4b 7b13 	orr.w	fp, fp, r3, lsr #28
  40073e:	ea4f 1a03 	mov.w	sl, r3, lsl #4
  400742:	4653      	mov	r3, sl
  400744:	465c      	mov	r4, fp
  400746:	1a5b      	subs	r3, r3, r1
  400748:	eb64 0402 	sbc.w	r4, r4, r2
  40074c:	ea4f 09c4 	mov.w	r9, r4, lsl #3
  400750:	ea49 7953 	orr.w	r9, r9, r3, lsr #29
  400754:	ea4f 08c3 	mov.w	r8, r3, lsl #3
  400758:	4643      	mov	r3, r8
  40075a:	464c      	mov	r4, r9
  40075c:	1a5b      	subs	r3, r3, r1
  40075e:	eb64 0402 	sbc.w	r4, r4, r2
  400762:	00e6      	lsls	r6, r4, #3
  400764:	ea46 7653 	orr.w	r6, r6, r3, lsr #29
  400768:	00dd      	lsls	r5, r3, #3
  40076a:	462b      	mov	r3, r5
  40076c:	4634      	mov	r4, r6
  40076e:	4619      	mov	r1, r3
  400770:	4622      	mov	r2, r4
  400772:	f243 63af 	movw	r3, #13999	; 0x36af
  400776:	f04f 0400 	mov.w	r4, #0
  40077a:	18cd      	adds	r5, r1, r3
  40077c:	eb42 0604 	adc.w	r6, r2, r4
  400780:	4628      	mov	r0, r5
  400782:	4631      	mov	r1, r6
  400784:	4c19      	ldr	r4, [pc, #100]	; (4007ec <init_camera+0x1d8>)
  400786:	f243 62b0 	movw	r2, #14000	; 0x36b0
  40078a:	f04f 0300 	mov.w	r3, #0
  40078e:	47a0      	blx	r4
  400790:	4603      	mov	r3, r0
  400792:	460c      	mov	r4, r1
  400794:	4618      	mov	r0, r3
  400796:	4b16      	ldr	r3, [pc, #88]	; (4007f0 <init_camera+0x1dc>)
  400798:	4798      	blx	r3
}
  40079a:	bf00      	nop
  40079c:	3714      	adds	r7, #20
  40079e:	46bd      	mov	sp, r7
  4007a0:	e8bd 8ff0 	ldmia.w	sp!, {r4, r5, r6, r7, r8, r9, sl, fp, pc}
  4007a4:	004004d9 	.word	0x004004d9
  4007a8:	00402471 	.word	0x00402471
  4007ac:	28000001 	.word	0x28000001
  4007b0:	400e0400 	.word	0x400e0400
  4007b4:	400e0e00 	.word	0x400e0e00
  4007b8:	00400511 	.word	0x00400511
  4007bc:	0040044d 	.word	0x0040044d
  4007c0:	0040298d 	.word	0x0040298d
  4007c4:	00400439 	.word	0x00400439
  4007c8:	00061a80 	.word	0x00061a80
  4007cc:	40018000 	.word	0x40018000
  4007d0:	00401545 	.word	0x00401545
  4007d4:	004002ed 	.word	0x004002ed
  4007d8:	00400321 	.word	0x00400321
  4007dc:	00400355 	.word	0x00400355
  4007e0:	004002bd 	.word	0x004002bd
  4007e4:	00400bf5 	.word	0x00400bf5
  4007e8:	00400c81 	.word	0x00400c81
  4007ec:	00403305 	.word	0x00403305
  4007f0:	20000001 	.word	0x20000001

004007f4 <start_capture>:
void configure_camera(void);
this function is included in the init_camera function above
*/

uint8_t start_capture(void)
{
  4007f4:	b580      	push	{r7, lr}
  4007f6:	af00      	add	r7, sp, #0

	/* Set cap_rows value*/
	//g_us_cap_rows = IMAGE_HEIGHT;

	/* Enable vsync interrupt*/
	pio_enable_interrupt(OV2640_VSYNC_PIO, OV2640_VSYNC_MASK);
  4007f8:	f44f 4100 	mov.w	r1, #32768	; 0x8000
  4007fc:	4815      	ldr	r0, [pc, #84]	; (400854 <start_capture+0x60>)
  4007fe:	4b16      	ldr	r3, [pc, #88]	; (400858 <start_capture+0x64>)
  400800:	4798      	blx	r3

	/* Capture acquisition will start on rising edge of Vsync signal.
	 * So wait g_vsync_flag = 1 before start process
	 */
	while (!g_ul_vsync_flag) {
  400802:	bf00      	nop
  400804:	4b15      	ldr	r3, [pc, #84]	; (40085c <start_capture+0x68>)
  400806:	681b      	ldr	r3, [r3, #0]
  400808:	2b00      	cmp	r3, #0
  40080a:	d0fb      	beq.n	400804 <start_capture+0x10>
	}

	/* Disable vsync interrupt*/
	pio_disable_interrupt(OV2640_VSYNC_PIO, OV2640_VSYNC_MASK);
  40080c:	f44f 4100 	mov.w	r1, #32768	; 0x8000
  400810:	4810      	ldr	r0, [pc, #64]	; (400854 <start_capture+0x60>)
  400812:	4b13      	ldr	r3, [pc, #76]	; (400860 <start_capture+0x6c>)
  400814:	4798      	blx	r3

	/* Enable pio capture*/
	pio_capture_enable(OV2640_DATA_BUS_PIO);
  400816:	480f      	ldr	r0, [pc, #60]	; (400854 <start_capture+0x60>)
  400818:	4b12      	ldr	r3, [pc, #72]	; (400864 <start_capture+0x70>)
  40081a:	4798      	blx	r3
	/* Capture data and send it to external SRAM memory thanks to PDC
	 * feature */
	/*pio_capture_to_buffer(OV2640_DATA_BUS_PIO, g_p_uc_cap_dest_buf,
			(g_us_cap_line * g_us_cap_rows) >> 2);
*/
	pio_capture_to_buffer(OV2640_DATA_BUS_PIO, g_p_uc_cap_dest_buf,
  40081c:	4b12      	ldr	r3, [pc, #72]	; (400868 <start_capture+0x74>)
  40081e:	881b      	ldrh	r3, [r3, #0]
  400820:	b29b      	uxth	r3, r3
  400822:	089b      	lsrs	r3, r3, #2
  400824:	b29b      	uxth	r3, r3
  400826:	461a      	mov	r2, r3
  400828:	4910      	ldr	r1, [pc, #64]	; (40086c <start_capture+0x78>)
  40082a:	480a      	ldr	r0, [pc, #40]	; (400854 <start_capture+0x60>)
  40082c:	4b10      	ldr	r3, [pc, #64]	; (400870 <start_capture+0x7c>)
  40082e:	4798      	blx	r3
	(g_us_cap_size) >> 2);
	
	/* Wait end of capture*/
	while (!((OV2640_DATA_BUS_PIO->PIO_PCISR & PIO_PCIMR_RXBUFF) ==
  400830:	bf00      	nop
  400832:	4b08      	ldr	r3, [pc, #32]	; (400854 <start_capture+0x60>)
  400834:	f8d3 3160 	ldr.w	r3, [r3, #352]	; 0x160
  400838:	f003 0308 	and.w	r3, r3, #8
  40083c:	2b08      	cmp	r3, #8
  40083e:	d1f8      	bne.n	400832 <start_capture+0x3e>
			PIO_PCIMR_RXBUFF)) {
	}

	/* Disable pio capture*/
	pio_capture_disable(OV2640_DATA_BUS_PIO);
  400840:	4804      	ldr	r0, [pc, #16]	; (400854 <start_capture+0x60>)
  400842:	4b0c      	ldr	r3, [pc, #48]	; (400874 <start_capture+0x80>)
  400844:	4798      	blx	r3

	/* Reset vsync flag*/
	g_ul_vsync_flag = false;
  400846:	4b05      	ldr	r3, [pc, #20]	; (40085c <start_capture+0x68>)
  400848:	2200      	movs	r2, #0
  40084a:	601a      	str	r2, [r3, #0]
}
  40084c:	bf00      	nop
  40084e:	4618      	mov	r0, r3
  400850:	bd80      	pop	{r7, pc}
  400852:	bf00      	nop
  400854:	400e0e00 	.word	0x400e0e00
  400858:	0040240f 	.word	0x0040240f
  40085c:	200009dc 	.word	0x200009dc
  400860:	00402429 	.word	0x00402429
  400864:	00402645 	.word	0x00402645
  400868:	2000000a 	.word	0x2000000a
  40086c:	20000aac 	.word	0x20000aac
  400870:	004005ad 	.word	0x004005ad
  400874:	00402671 	.word	0x00402671

00400878 <find_image_len>:

uint8_t find_image_len(void)
{
  400878:	b480      	push	{r7}
  40087a:	b083      	sub	sp, #12
  40087c:	af00      	add	r7, sp, #0
	int i=0;
  40087e:	2300      	movs	r3, #0
  400880:	607b      	str	r3, [r7, #4]
	if(g_p_uc_cap_dest_buf[0]=='ff'& g_p_uc_cap_dest_buf[1]=='d8'){
  400882:	4b05      	ldr	r3, [pc, #20]	; (400898 <find_image_len+0x20>)
  400884:	781b      	ldrb	r3, [r3, #0]
  400886:	4b04      	ldr	r3, [pc, #16]	; (400898 <find_image_len+0x20>)
  400888:	785b      	ldrb	r3, [r3, #1]
			i++;
		}
		return(i+2);
	}
	else{
		return(0);
  40088a:	2300      	movs	r3, #0
	}
}
  40088c:	4618      	mov	r0, r3
  40088e:	370c      	adds	r7, #12
  400890:	46bd      	mov	sp, r7
  400892:	bc80      	pop	{r7}
  400894:	4770      	bx	lr
  400896:	bf00      	nop
  400898:	20000aac 	.word	0x20000aac

0040089c <osc_get_rate>:
{
  40089c:	b480      	push	{r7}
  40089e:	b083      	sub	sp, #12
  4008a0:	af00      	add	r7, sp, #0
  4008a2:	6078      	str	r0, [r7, #4]
	switch (ul_id) {
  4008a4:	687b      	ldr	r3, [r7, #4]
  4008a6:	2b07      	cmp	r3, #7
  4008a8:	d825      	bhi.n	4008f6 <osc_get_rate+0x5a>
  4008aa:	a201      	add	r2, pc, #4	; (adr r2, 4008b0 <osc_get_rate+0x14>)
  4008ac:	f852 f023 	ldr.w	pc, [r2, r3, lsl #2]
  4008b0:	004008d1 	.word	0x004008d1
  4008b4:	004008d7 	.word	0x004008d7
  4008b8:	004008dd 	.word	0x004008dd
  4008bc:	004008e3 	.word	0x004008e3
  4008c0:	004008e7 	.word	0x004008e7
  4008c4:	004008eb 	.word	0x004008eb
  4008c8:	004008ef 	.word	0x004008ef
  4008cc:	004008f3 	.word	0x004008f3
		return OSC_SLCK_32K_RC_HZ;
  4008d0:	f44f 43fa 	mov.w	r3, #32000	; 0x7d00
  4008d4:	e010      	b.n	4008f8 <osc_get_rate+0x5c>
		return BOARD_FREQ_SLCK_XTAL;
  4008d6:	f44f 4300 	mov.w	r3, #32768	; 0x8000
  4008da:	e00d      	b.n	4008f8 <osc_get_rate+0x5c>
		return BOARD_FREQ_SLCK_BYPASS;
  4008dc:	f44f 4300 	mov.w	r3, #32768	; 0x8000
  4008e0:	e00a      	b.n	4008f8 <osc_get_rate+0x5c>
		return OSC_MAINCK_4M_RC_HZ;
  4008e2:	4b08      	ldr	r3, [pc, #32]	; (400904 <osc_get_rate+0x68>)
  4008e4:	e008      	b.n	4008f8 <osc_get_rate+0x5c>
		return OSC_MAINCK_8M_RC_HZ;
  4008e6:	4b08      	ldr	r3, [pc, #32]	; (400908 <osc_get_rate+0x6c>)
  4008e8:	e006      	b.n	4008f8 <osc_get_rate+0x5c>
		return OSC_MAINCK_12M_RC_HZ;
  4008ea:	4b08      	ldr	r3, [pc, #32]	; (40090c <osc_get_rate+0x70>)
  4008ec:	e004      	b.n	4008f8 <osc_get_rate+0x5c>
		return BOARD_FREQ_MAINCK_XTAL;
  4008ee:	4b07      	ldr	r3, [pc, #28]	; (40090c <osc_get_rate+0x70>)
  4008f0:	e002      	b.n	4008f8 <osc_get_rate+0x5c>
		return BOARD_FREQ_MAINCK_BYPASS;
  4008f2:	4b06      	ldr	r3, [pc, #24]	; (40090c <osc_get_rate+0x70>)
  4008f4:	e000      	b.n	4008f8 <osc_get_rate+0x5c>
	return 0;
  4008f6:	2300      	movs	r3, #0
}
  4008f8:	4618      	mov	r0, r3
  4008fa:	370c      	adds	r7, #12
  4008fc:	46bd      	mov	sp, r7
  4008fe:	bc80      	pop	{r7}
  400900:	4770      	bx	lr
  400902:	bf00      	nop
  400904:	003d0900 	.word	0x003d0900
  400908:	007a1200 	.word	0x007a1200
  40090c:	00b71b00 	.word	0x00b71b00

00400910 <sysclk_get_main_hz>:
{
  400910:	b580      	push	{r7, lr}
  400912:	af00      	add	r7, sp, #0
		return pll_get_default_rate(0);
  400914:	2006      	movs	r0, #6
  400916:	4b04      	ldr	r3, [pc, #16]	; (400928 <sysclk_get_main_hz+0x18>)
  400918:	4798      	blx	r3
  40091a:	4602      	mov	r2, r0
  40091c:	4613      	mov	r3, r2
  40091e:	009b      	lsls	r3, r3, #2
  400920:	4413      	add	r3, r2
  400922:	009b      	lsls	r3, r3, #2
}
  400924:	4618      	mov	r0, r3
  400926:	bd80      	pop	{r7, pc}
  400928:	0040089d 	.word	0x0040089d

0040092c <sysclk_get_cpu_hz>:
{
  40092c:	b580      	push	{r7, lr}
  40092e:	af00      	add	r7, sp, #0
	return sysclk_get_main_hz() /
  400930:	4b02      	ldr	r3, [pc, #8]	; (40093c <sysclk_get_cpu_hz+0x10>)
  400932:	4798      	blx	r3
  400934:	4603      	mov	r3, r0
  400936:	085b      	lsrs	r3, r3, #1
}
  400938:	4618      	mov	r0, r3
  40093a:	bd80      	pop	{r7, pc}
  40093c:	00400911 	.word	0x00400911

00400940 <ov_id>:
 *
 * \param p_twi TWI interface.
 * \return PID and VER.
 */
static uint32_t ov_id(Twi* const p_twi)
{
  400940:	b580      	push	{r7, lr}
  400942:	b08e      	sub	sp, #56	; 0x38
  400944:	af00      	add	r7, sp, #0
  400946:	6078      	str	r0, [r7, #4]
	twi_packet_t packet_pid;
	twi_packet_t packet_ver;
	uint32_t ul_id = 0;
  400948:	2300      	movs	r3, #0
  40094a:	60fb      	str	r3, [r7, #12]
	uint32_t ul_ver = 0;
  40094c:	2300      	movs	r3, #0
  40094e:	60bb      	str	r3, [r7, #8]

	/* OV_PID */
	packet_pid.chip = OV_I2C_SENSOR_ADDRESS;
  400950:	2330      	movs	r3, #48	; 0x30
  400952:	f887 3034 	strb.w	r3, [r7, #52]	; 0x34
	packet_pid.addr[0] = OV2640_PIDH;
  400956:	230a      	movs	r3, #10
  400958:	f887 3024 	strb.w	r3, [r7, #36]	; 0x24
	packet_pid.addr_length = 1;
  40095c:	2301      	movs	r3, #1
  40095e:	62bb      	str	r3, [r7, #40]	; 0x28
	packet_pid.buffer = &ul_id;
  400960:	f107 030c 	add.w	r3, r7, #12
  400964:	62fb      	str	r3, [r7, #44]	; 0x2c
	packet_pid.length = 1;
  400966:	2301      	movs	r3, #1
  400968:	633b      	str	r3, [r7, #48]	; 0x30

	ov_read_reg(p_twi, &packet_pid);
  40096a:	f107 0324 	add.w	r3, r7, #36	; 0x24
  40096e:	4619      	mov	r1, r3
  400970:	6878      	ldr	r0, [r7, #4]
  400972:	4b0e      	ldr	r3, [pc, #56]	; (4009ac <ov_id+0x6c>)
  400974:	4798      	blx	r3

	/* OV_VER */
	packet_ver.chip = OV_I2C_SENSOR_ADDRESS;
  400976:	2330      	movs	r3, #48	; 0x30
  400978:	f887 3020 	strb.w	r3, [r7, #32]
	packet_ver.addr[0] = OV2640_PIDL;
  40097c:	230b      	movs	r3, #11
  40097e:	743b      	strb	r3, [r7, #16]
	packet_ver.addr_length = 1;
  400980:	2301      	movs	r3, #1
  400982:	617b      	str	r3, [r7, #20]
	packet_ver.buffer = &ul_ver;
  400984:	f107 0308 	add.w	r3, r7, #8
  400988:	61bb      	str	r3, [r7, #24]
	packet_ver.length = 1;
  40098a:	2301      	movs	r3, #1
  40098c:	61fb      	str	r3, [r7, #28]

	ov_read_reg(p_twi, &packet_ver);
  40098e:	f107 0310 	add.w	r3, r7, #16
  400992:	4619      	mov	r1, r3
  400994:	6878      	ldr	r0, [r7, #4]
  400996:	4b05      	ldr	r3, [pc, #20]	; (4009ac <ov_id+0x6c>)
  400998:	4798      	blx	r3
	return ((uint32_t)(ul_id << 8) | ul_ver);
  40099a:	68fb      	ldr	r3, [r7, #12]
  40099c:	021a      	lsls	r2, r3, #8
  40099e:	68bb      	ldr	r3, [r7, #8]
  4009a0:	4313      	orrs	r3, r2
}
  4009a2:	4618      	mov	r0, r3
  4009a4:	3738      	adds	r7, #56	; 0x38
  4009a6:	46bd      	mov	sp, r7
  4009a8:	bd80      	pop	{r7, pc}
  4009aa:	bf00      	nop
  4009ac:	00400ad9 	.word	0x00400ad9

004009b0 <ov_manufacturer>:
 *
 * \param p_twi TWI interface.
 * \return 0 if the sensor is present, 1 otherwise.
 */
static uint32_t ov_manufacturer(Twi* const p_twi)
{
  4009b0:	b580      	push	{r7, lr}
  4009b2:	b08a      	sub	sp, #40	; 0x28
  4009b4:	af00      	add	r7, sp, #0
  4009b6:	6078      	str	r0, [r7, #4]
	twi_packet_t twi_packet;
	uint32_t ul_midh = 0;
  4009b8:	2300      	movs	r3, #0
  4009ba:	613b      	str	r3, [r7, #16]
	uint32_t ul_midl = 0;
  4009bc:	2300      	movs	r3, #0
  4009be:	60fb      	str	r3, [r7, #12]

	/* OV_MIDH */
	twi_packet.addr[0] = OV2640_MIDH;
  4009c0:	231c      	movs	r3, #28
  4009c2:	753b      	strb	r3, [r7, #20]
	twi_packet.addr_length = 1;
  4009c4:	2301      	movs	r3, #1
  4009c6:	61bb      	str	r3, [r7, #24]
	twi_packet.chip = OV_I2C_SENSOR_ADDRESS;
  4009c8:	2330      	movs	r3, #48	; 0x30
  4009ca:	f887 3024 	strb.w	r3, [r7, #36]	; 0x24
	twi_packet.buffer = &ul_midh;
  4009ce:	f107 0310 	add.w	r3, r7, #16
  4009d2:	61fb      	str	r3, [r7, #28]
	twi_packet.length = 1;
  4009d4:	2301      	movs	r3, #1
  4009d6:	623b      	str	r3, [r7, #32]

	ov_read_reg(p_twi, &twi_packet);
  4009d8:	f107 0314 	add.w	r3, r7, #20
  4009dc:	4619      	mov	r1, r3
  4009de:	6878      	ldr	r0, [r7, #4]
  4009e0:	4b10      	ldr	r3, [pc, #64]	; (400a24 <ov_manufacturer+0x74>)
  4009e2:	4798      	blx	r3

	/* OV_MIDL */
	twi_packet.addr[0] = OV2640_MIDL;
  4009e4:	231d      	movs	r3, #29
  4009e6:	753b      	strb	r3, [r7, #20]
	twi_packet.addr_length = 1;
  4009e8:	2301      	movs	r3, #1
  4009ea:	61bb      	str	r3, [r7, #24]
	twi_packet.chip = OV_I2C_SENSOR_ADDRESS;
  4009ec:	2330      	movs	r3, #48	; 0x30
  4009ee:	f887 3024 	strb.w	r3, [r7, #36]	; 0x24
	twi_packet.buffer = &ul_midl;
  4009f2:	f107 030c 	add.w	r3, r7, #12
  4009f6:	61fb      	str	r3, [r7, #28]
	twi_packet.length = 1;
  4009f8:	2301      	movs	r3, #1
  4009fa:	623b      	str	r3, [r7, #32]

	ov_read_reg(p_twi, &twi_packet);
  4009fc:	f107 0314 	add.w	r3, r7, #20
  400a00:	4619      	mov	r1, r3
  400a02:	6878      	ldr	r0, [r7, #4]
  400a04:	4b07      	ldr	r3, [pc, #28]	; (400a24 <ov_manufacturer+0x74>)
  400a06:	4798      	blx	r3

	if ((ul_midh == OV2640_MIDH_DEFAULT) && (ul_midl == OV2640_MIDL_DEFAULT)) {
  400a08:	693b      	ldr	r3, [r7, #16]
  400a0a:	2b7f      	cmp	r3, #127	; 0x7f
  400a0c:	d104      	bne.n	400a18 <ov_manufacturer+0x68>
  400a0e:	68fb      	ldr	r3, [r7, #12]
  400a10:	2ba2      	cmp	r3, #162	; 0xa2
  400a12:	d101      	bne.n	400a18 <ov_manufacturer+0x68>
		return 0;
  400a14:	2300      	movs	r3, #0
  400a16:	e000      	b.n	400a1a <ov_manufacturer+0x6a>
	}

	return 1;
  400a18:	2301      	movs	r3, #1
}
  400a1a:	4618      	mov	r0, r3
  400a1c:	3728      	adds	r7, #40	; 0x28
  400a1e:	46bd      	mov	sp, r7
  400a20:	bd80      	pop	{r7, pc}
  400a22:	bf00      	nop
  400a24:	00400ad9 	.word	0x00400ad9

00400a28 <ov_test_write>:
 *
 * \param p_twi TWI interface.
 * \return 0 on success, 1 otherwise.
 */
static uint32_t ov_test_write(Twi* const p_twi)
{
  400a28:	b580      	push	{r7, lr}
  400a2a:	b08a      	sub	sp, #40	; 0x28
  400a2c:	af00      	add	r7, sp, #0
  400a2e:	6078      	str	r0, [r7, #4]
	twi_packet_t twi_packet;
	uint32_t ul_value = 0;
  400a30:	2300      	movs	r3, #0
  400a32:	613b      	str	r3, [r7, #16]
	uint32_t ul_oldvalue = 0;
  400a34:	2300      	movs	r3, #0
  400a36:	60fb      	str	r3, [r7, #12]
	uint32_t ul_entervalue = 0;
  400a38:	2300      	movs	r3, #0
  400a3a:	60bb      	str	r3, [r7, #8]

	/* OV_BLUE_GAIN */
	twi_packet.addr[0] = 0x01;
  400a3c:	2301      	movs	r3, #1
  400a3e:	753b      	strb	r3, [r7, #20]
	twi_packet.addr_length = 1;
  400a40:	2301      	movs	r3, #1
  400a42:	61bb      	str	r3, [r7, #24]
	twi_packet.chip = OV_I2C_SENSOR_ADDRESS;
  400a44:	2330      	movs	r3, #48	; 0x30
  400a46:	f887 3024 	strb.w	r3, [r7, #36]	; 0x24
	twi_packet.length = 1;
  400a4a:	2301      	movs	r3, #1
  400a4c:	623b      	str	r3, [r7, #32]

	twi_packet.buffer = &ul_oldvalue;
  400a4e:	f107 030c 	add.w	r3, r7, #12
  400a52:	61fb      	str	r3, [r7, #28]
	ov_read_reg(p_twi, &twi_packet);
  400a54:	f107 0314 	add.w	r3, r7, #20
  400a58:	4619      	mov	r1, r3
  400a5a:	6878      	ldr	r0, [r7, #4]
  400a5c:	4b1c      	ldr	r3, [pc, #112]	; (400ad0 <ov_test_write+0xa8>)
  400a5e:	4798      	blx	r3

	ul_entervalue = 0xAD;
  400a60:	23ad      	movs	r3, #173	; 0xad
  400a62:	60bb      	str	r3, [r7, #8]
	twi_packet.buffer = &ul_entervalue;
  400a64:	f107 0308 	add.w	r3, r7, #8
  400a68:	61fb      	str	r3, [r7, #28]
	ov_write_reg(p_twi, &twi_packet);
  400a6a:	f107 0314 	add.w	r3, r7, #20
  400a6e:	4619      	mov	r1, r3
  400a70:	6878      	ldr	r0, [r7, #4]
  400a72:	4b18      	ldr	r3, [pc, #96]	; (400ad4 <ov_test_write+0xac>)
  400a74:	4798      	blx	r3

	twi_packet.buffer = &ul_value;
  400a76:	f107 0310 	add.w	r3, r7, #16
  400a7a:	61fb      	str	r3, [r7, #28]
	ov_read_reg(p_twi, &twi_packet);
  400a7c:	f107 0314 	add.w	r3, r7, #20
  400a80:	4619      	mov	r1, r3
  400a82:	6878      	ldr	r0, [r7, #4]
  400a84:	4b12      	ldr	r3, [pc, #72]	; (400ad0 <ov_test_write+0xa8>)
  400a86:	4798      	blx	r3

	if (ul_value != ul_entervalue) {
  400a88:	693a      	ldr	r2, [r7, #16]
  400a8a:	68bb      	ldr	r3, [r7, #8]
  400a8c:	429a      	cmp	r2, r3
  400a8e:	d001      	beq.n	400a94 <ov_test_write+0x6c>
		return 1;
  400a90:	2301      	movs	r3, #1
  400a92:	e018      	b.n	400ac6 <ov_test_write+0x9e>
	}

	/* return old value */
	twi_packet.buffer = &ul_oldvalue;
  400a94:	f107 030c 	add.w	r3, r7, #12
  400a98:	61fb      	str	r3, [r7, #28]
	ov_write_reg(p_twi, &twi_packet);
  400a9a:	f107 0314 	add.w	r3, r7, #20
  400a9e:	4619      	mov	r1, r3
  400aa0:	6878      	ldr	r0, [r7, #4]
  400aa2:	4b0c      	ldr	r3, [pc, #48]	; (400ad4 <ov_test_write+0xac>)
  400aa4:	4798      	blx	r3

	twi_packet.buffer = &ul_value;
  400aa6:	f107 0310 	add.w	r3, r7, #16
  400aaa:	61fb      	str	r3, [r7, #28]
	ov_read_reg(p_twi, &twi_packet);
  400aac:	f107 0314 	add.w	r3, r7, #20
  400ab0:	4619      	mov	r1, r3
  400ab2:	6878      	ldr	r0, [r7, #4]
  400ab4:	4b06      	ldr	r3, [pc, #24]	; (400ad0 <ov_test_write+0xa8>)
  400ab6:	4798      	blx	r3

	if (ul_value != ul_oldvalue) {
  400ab8:	693a      	ldr	r2, [r7, #16]
  400aba:	68fb      	ldr	r3, [r7, #12]
  400abc:	429a      	cmp	r2, r3
  400abe:	d001      	beq.n	400ac4 <ov_test_write+0x9c>
		return 1;
  400ac0:	2301      	movs	r3, #1
  400ac2:	e000      	b.n	400ac6 <ov_test_write+0x9e>
	}

	return 0;
  400ac4:	2300      	movs	r3, #0
}
  400ac6:	4618      	mov	r0, r3
  400ac8:	3728      	adds	r7, #40	; 0x28
  400aca:	46bd      	mov	sp, r7
  400acc:	bd80      	pop	{r7, pc}
  400ace:	bf00      	nop
  400ad0:	00400ad9 	.word	0x00400ad9
  400ad4:	00400afd 	.word	0x00400afd

00400ad8 <ov_read_reg>:
 * \param p_twi TWI interface.
 * \param p_packet TWI packet.
 * \return 0 on success, TWID_ERROR_BUSY otherwise.
 */
uint32_t ov_read_reg(Twi* const p_twi, twi_packet_t* const p_packet)
{
  400ad8:	b580      	push	{r7, lr}
  400ada:	b084      	sub	sp, #16
  400adc:	af00      	add	r7, sp, #0
  400ade:	6078      	str	r0, [r7, #4]
  400ae0:	6039      	str	r1, [r7, #0]
	uint32_t ul_status;

	ul_status = twi_master_read(p_twi, p_packet);
  400ae2:	6839      	ldr	r1, [r7, #0]
  400ae4:	6878      	ldr	r0, [r7, #4]
  400ae6:	4b04      	ldr	r3, [pc, #16]	; (400af8 <ov_read_reg+0x20>)
  400ae8:	4798      	blx	r3
  400aea:	60f8      	str	r0, [r7, #12]

	return ul_status;
  400aec:	68fb      	ldr	r3, [r7, #12]
}
  400aee:	4618      	mov	r0, r3
  400af0:	3710      	adds	r7, #16
  400af2:	46bd      	mov	sp, r7
  400af4:	bd80      	pop	{r7, pc}
  400af6:	bf00      	nop
  400af8:	004016f9 	.word	0x004016f9

00400afc <ov_write_reg>:
 * \param p_twi TWI interface.
 * \param p_packet TWI packet.
 * \return 0 on success, TWID_ERROR_BUSY otherwise.
 */
uint32_t ov_write_reg(Twi* const p_twi, twi_packet_t* const p_packet)
{
  400afc:	b580      	push	{r7, lr}
  400afe:	b084      	sub	sp, #16
  400b00:	af00      	add	r7, sp, #0
  400b02:	6078      	str	r0, [r7, #4]
  400b04:	6039      	str	r1, [r7, #0]
	uint32_t ul_status;

	ul_status = twi_master_write(p_twi, p_packet);
  400b06:	6839      	ldr	r1, [r7, #0]
  400b08:	6878      	ldr	r0, [r7, #4]
  400b0a:	4b04      	ldr	r3, [pc, #16]	; (400b1c <ov_write_reg+0x20>)
  400b0c:	4798      	blx	r3
  400b0e:	60f8      	str	r0, [r7, #12]

	return ul_status;
  400b10:	68fb      	ldr	r3, [r7, #12]
}
  400b12:	4618      	mov	r0, r3
  400b14:	3710      	adds	r7, #16
  400b16:	46bd      	mov	sp, r7
  400b18:	bd80      	pop	{r7, pc}
  400b1a:	bf00      	nop
  400b1c:	00401805 	.word	0x00401805

00400b20 <ov_write_regs>:
 * \param p_twi TWI interface.
 * \param p_reg_list Register list to be written.
 * \return 0 on success, TWID_ERROR_BUSY otherwise.
 */
uint32_t ov_write_regs(Twi* const p_twi, const ov_reg *p_reg_list)
{
  400b20:	e92d 48f0 	stmdb	sp!, {r4, r5, r6, r7, fp, lr}
  400b24:	b08a      	sub	sp, #40	; 0x28
  400b26:	af00      	add	r7, sp, #0
  400b28:	6078      	str	r0, [r7, #4]
  400b2a:	6039      	str	r1, [r7, #0]
	uint32_t ul_err;
	uint32_t ul_size = 0;
  400b2c:	2300      	movs	r3, #0
  400b2e:	627b      	str	r3, [r7, #36]	; 0x24
	twi_packet_t twi_packet_regs;
	ov_reg *p_next = (ov_reg *)p_reg_list;
  400b30:	683b      	ldr	r3, [r7, #0]
  400b32:	623b      	str	r3, [r7, #32]

	while (!((p_next->reg == OV_REG_TERM) &&
  400b34:	e048      	b.n	400bc8 <ov_write_regs+0xa8>
			(p_next->val == OV_VAL_TERM))) {
		if (p_next->reg == 0xFE) {
  400b36:	6a3b      	ldr	r3, [r7, #32]
  400b38:	781b      	ldrb	r3, [r3, #0]
  400b3a:	2bfe      	cmp	r3, #254	; 0xfe
  400b3c:	d126      	bne.n	400b8c <ov_write_regs+0x6c>
			delay_ms(5);
  400b3e:	4b29      	ldr	r3, [pc, #164]	; (400be4 <ov_write_regs+0xc4>)
  400b40:	4798      	blx	r3
  400b42:	4603      	mov	r3, r0
  400b44:	4619      	mov	r1, r3
  400b46:	f04f 0200 	mov.w	r2, #0
  400b4a:	460b      	mov	r3, r1
  400b4c:	4614      	mov	r4, r2
  400b4e:	00a6      	lsls	r6, r4, #2
  400b50:	ea46 7693 	orr.w	r6, r6, r3, lsr #30
  400b54:	009d      	lsls	r5, r3, #2
  400b56:	462b      	mov	r3, r5
  400b58:	4634      	mov	r4, r6
  400b5a:	185b      	adds	r3, r3, r1
  400b5c:	eb44 0402 	adc.w	r4, r4, r2
  400b60:	f243 61af 	movw	r1, #13999	; 0x36af
  400b64:	f04f 0200 	mov.w	r2, #0
  400b68:	eb13 0b01 	adds.w	fp, r3, r1
  400b6c:	eb44 0c02 	adc.w	ip, r4, r2
  400b70:	4658      	mov	r0, fp
  400b72:	4661      	mov	r1, ip
  400b74:	4c1c      	ldr	r4, [pc, #112]	; (400be8 <ov_write_regs+0xc8>)
  400b76:	f243 62b0 	movw	r2, #14000	; 0x36b0
  400b7a:	f04f 0300 	mov.w	r3, #0
  400b7e:	47a0      	blx	r4
  400b80:	4603      	mov	r3, r0
  400b82:	460c      	mov	r4, r1
  400b84:	4618      	mov	r0, r3
  400b86:	4b19      	ldr	r3, [pc, #100]	; (400bec <ov_write_regs+0xcc>)
  400b88:	4798      	blx	r3
  400b8a:	e01a      	b.n	400bc2 <ov_write_regs+0xa2>
		} else {
			twi_packet_regs.addr[0] = p_next->reg;
  400b8c:	6a3b      	ldr	r3, [r7, #32]
  400b8e:	781b      	ldrb	r3, [r3, #0]
  400b90:	723b      	strb	r3, [r7, #8]
			twi_packet_regs.addr_length = 1;
  400b92:	2301      	movs	r3, #1
  400b94:	60fb      	str	r3, [r7, #12]
			twi_packet_regs.chip = OV_I2C_SENSOR_ADDRESS;
  400b96:	2330      	movs	r3, #48	; 0x30
  400b98:	763b      	strb	r3, [r7, #24]
			twi_packet_regs.length = 1;
  400b9a:	2301      	movs	r3, #1
  400b9c:	617b      	str	r3, [r7, #20]
			twi_packet_regs.buffer = &(p_next->val);
  400b9e:	6a3b      	ldr	r3, [r7, #32]
  400ba0:	3301      	adds	r3, #1
  400ba2:	613b      	str	r3, [r7, #16]

			ul_err = ov_write_reg(p_twi, &twi_packet_regs);
  400ba4:	f107 0308 	add.w	r3, r7, #8
  400ba8:	4619      	mov	r1, r3
  400baa:	6878      	ldr	r0, [r7, #4]
  400bac:	4b10      	ldr	r3, [pc, #64]	; (400bf0 <ov_write_regs+0xd0>)
  400bae:	4798      	blx	r3
  400bb0:	61f8      	str	r0, [r7, #28]
			ul_size++;
  400bb2:	6a7b      	ldr	r3, [r7, #36]	; 0x24
  400bb4:	3301      	adds	r3, #1
  400bb6:	627b      	str	r3, [r7, #36]	; 0x24

			if (ul_err == TWI_BUSY) {
  400bb8:	69fb      	ldr	r3, [r7, #28]
  400bba:	2b08      	cmp	r3, #8
  400bbc:	d101      	bne.n	400bc2 <ov_write_regs+0xa2>
				return ul_err;
  400bbe:	69fb      	ldr	r3, [r7, #28]
  400bc0:	e00b      	b.n	400bda <ov_write_regs+0xba>
			}
		}

		p_next++;
  400bc2:	6a3b      	ldr	r3, [r7, #32]
  400bc4:	3302      	adds	r3, #2
  400bc6:	623b      	str	r3, [r7, #32]
	while (!((p_next->reg == OV_REG_TERM) &&
  400bc8:	6a3b      	ldr	r3, [r7, #32]
  400bca:	781b      	ldrb	r3, [r3, #0]
  400bcc:	2bff      	cmp	r3, #255	; 0xff
  400bce:	d1b2      	bne.n	400b36 <ov_write_regs+0x16>
			(p_next->val == OV_VAL_TERM))) {
  400bd0:	6a3b      	ldr	r3, [r7, #32]
  400bd2:	785b      	ldrb	r3, [r3, #1]
	while (!((p_next->reg == OV_REG_TERM) &&
  400bd4:	2bff      	cmp	r3, #255	; 0xff
  400bd6:	d1ae      	bne.n	400b36 <ov_write_regs+0x16>
	}
	return 0;
  400bd8:	2300      	movs	r3, #0
}
  400bda:	4618      	mov	r0, r3
  400bdc:	3728      	adds	r7, #40	; 0x28
  400bde:	46bd      	mov	sp, r7
  400be0:	e8bd 88f0 	ldmia.w	sp!, {r4, r5, r6, r7, fp, pc}
  400be4:	0040092d 	.word	0x0040092d
  400be8:	00403305 	.word	0x00403305
  400bec:	20000001 	.word	0x20000001
  400bf0:	00400afd 	.word	0x00400afd

00400bf4 <ov_init>:
 *
 * \param p_twi TWI interface.
 * \return 0 on success, 1 otherwise.
 */
uint32_t ov_init(Twi* const p_twi)
{
  400bf4:	b580      	push	{r7, lr}
  400bf6:	b08a      	sub	sp, #40	; 0x28
  400bf8:	af00      	add	r7, sp, #0
  400bfa:	6078      	str	r0, [r7, #4]
	const uint8_t cont_reg_val = 1;
  400bfc:	2301      	movs	r3, #1
  400bfe:	f887 3023 	strb.w	r3, [r7, #35]	; 0x23
	twi_packet_t init_packet = {
  400c02:	f107 030c 	add.w	r3, r7, #12
  400c06:	2200      	movs	r2, #0
  400c08:	601a      	str	r2, [r3, #0]
  400c0a:	605a      	str	r2, [r3, #4]
  400c0c:	609a      	str	r2, [r3, #8]
  400c0e:	60da      	str	r2, [r3, #12]
  400c10:	611a      	str	r2, [r3, #16]
  400c12:	23ff      	movs	r3, #255	; 0xff
  400c14:	733b      	strb	r3, [r7, #12]
  400c16:	2301      	movs	r3, #1
  400c18:	613b      	str	r3, [r7, #16]
  400c1a:	f107 0323 	add.w	r3, r7, #35	; 0x23
  400c1e:	617b      	str	r3, [r7, #20]
  400c20:	2301      	movs	r3, #1
  400c22:	61bb      	str	r3, [r7, #24]
  400c24:	2330      	movs	r3, #48	; 0x30
  400c26:	773b      	strb	r3, [r7, #28]
		.addr_length  = 1, //sizeof (uint16_t),    // TWI slave memory address data size
		.chip         = OV_I2C_SENSOR_ADDRESS,      // TWI slave bus address
		.buffer       = &cont_reg_val,        // transfer data destination buffer
		.length       = 1                    // transfer data size (bytes)
	};
	ov_write_reg(p_twi, &init_packet);
  400c28:	f107 030c 	add.w	r3, r7, #12
  400c2c:	4619      	mov	r1, r3
  400c2e:	6878      	ldr	r0, [r7, #4]
  400c30:	4b0f      	ldr	r3, [pc, #60]	; (400c70 <ov_init+0x7c>)
  400c32:	4798      	blx	r3
	
	
	uint32_t ul_id = 0;
  400c34:	2300      	movs	r3, #0
  400c36:	627b      	str	r3, [r7, #36]	; 0x24

	ul_id = ov_id( p_twi );
  400c38:	6878      	ldr	r0, [r7, #4]
  400c3a:	4b0e      	ldr	r3, [pc, #56]	; (400c74 <ov_init+0x80>)
  400c3c:	4798      	blx	r3
  400c3e:	6278      	str	r0, [r7, #36]	; 0x24

	if (((ul_id >> 8)&0xff)  == OV2640_PIDH_DEFAULT) {
  400c40:	6a7b      	ldr	r3, [r7, #36]	; 0x24
  400c42:	0a1b      	lsrs	r3, r3, #8
  400c44:	b2db      	uxtb	r3, r3
  400c46:	2b26      	cmp	r3, #38	; 0x26
  400c48:	d10d      	bne.n	400c66 <ov_init+0x72>
		if (ov_manufacturer( p_twi ) == 0) {
  400c4a:	6878      	ldr	r0, [r7, #4]
  400c4c:	4b0a      	ldr	r3, [pc, #40]	; (400c78 <ov_init+0x84>)
  400c4e:	4798      	blx	r3
  400c50:	4603      	mov	r3, r0
  400c52:	2b00      	cmp	r3, #0
  400c54:	d107      	bne.n	400c66 <ov_init+0x72>
			if (ov_test_write( p_twi ) == 0) {
  400c56:	6878      	ldr	r0, [r7, #4]
  400c58:	4b08      	ldr	r3, [pc, #32]	; (400c7c <ov_init+0x88>)
  400c5a:	4798      	blx	r3
  400c5c:	4603      	mov	r3, r0
  400c5e:	2b00      	cmp	r3, #0
  400c60:	d101      	bne.n	400c66 <ov_init+0x72>
				return 0;
  400c62:	2300      	movs	r3, #0
  400c64:	e000      	b.n	400c68 <ov_init+0x74>
			}
		}
	}

	return 1;
  400c66:	2301      	movs	r3, #1
}
  400c68:	4618      	mov	r0, r3
  400c6a:	3728      	adds	r7, #40	; 0x28
  400c6c:	46bd      	mov	sp, r7
  400c6e:	bd80      	pop	{r7, pc}
  400c70:	00400afd 	.word	0x00400afd
  400c74:	00400941 	.word	0x00400941
  400c78:	004009b1 	.word	0x004009b1
  400c7c:	00400a29 	.word	0x00400a29

00400c80 <ov_configure>:
 * \param p_twi TWI interface.
 * \param format Specific format to configure.
 * \return 0 on success, 1 otherwise.
 */
uint32_t ov_configure(Twi* const p_twi, const e_OV2640_format format)
{
  400c80:	b580      	push	{r7, lr}
  400c82:	b084      	sub	sp, #16
  400c84:	af00      	add	r7, sp, #0
  400c86:	6078      	str	r0, [r7, #4]
  400c88:	460b      	mov	r3, r1
  400c8a:	70fb      	strb	r3, [r7, #3]
	const ov_reg *p_regs_conf = NULL;
  400c8c:	2300      	movs	r3, #0
  400c8e:	60fb      	str	r3, [r7, #12]

	/* Common register initialization */
	switch (format) {
  400c90:	78fb      	ldrb	r3, [r7, #3]
  400c92:	2b11      	cmp	r3, #17
  400c94:	d85c      	bhi.n	400d50 <ov_configure+0xd0>
  400c96:	a201      	add	r2, pc, #4	; (adr r2, 400c9c <ov_configure+0x1c>)
  400c98:	f852 f023 	ldr.w	pc, [r2, r3, lsl #2]
  400c9c:	00400ce5 	.word	0x00400ce5
  400ca0:	00400ceb 	.word	0x00400ceb
  400ca4:	00400cf1 	.word	0x00400cf1
  400ca8:	00400cf7 	.word	0x00400cf7
  400cac:	00400cfd 	.word	0x00400cfd
  400cb0:	00400d03 	.word	0x00400d03
  400cb4:	00400d09 	.word	0x00400d09
  400cb8:	00400d0f 	.word	0x00400d0f
  400cbc:	00400d15 	.word	0x00400d15
  400cc0:	00400d1b 	.word	0x00400d1b
  400cc4:	00400d21 	.word	0x00400d21
  400cc8:	00400d27 	.word	0x00400d27
  400ccc:	00400d2d 	.word	0x00400d2d
  400cd0:	00400d33 	.word	0x00400d33
  400cd4:	00400d39 	.word	0x00400d39
  400cd8:	00400d3f 	.word	0x00400d3f
  400cdc:	00400d45 	.word	0x00400d45
  400ce0:	00400d4b 	.word	0x00400d4b
		
	case JPEG_INIT:
		p_regs_conf = OV2640_JPEG_INIT;
  400ce4:	4b22      	ldr	r3, [pc, #136]	; (400d70 <ov_configure+0xf0>)
  400ce6:	60fb      	str	r3, [r7, #12]
		break;
  400ce8:	e033      	b.n	400d52 <ov_configure+0xd2>
		
	case YUV422:
		p_regs_conf = OV2640_YUV422;
  400cea:	4b22      	ldr	r3, [pc, #136]	; (400d74 <ov_configure+0xf4>)
  400cec:	60fb      	str	r3, [r7, #12]
		break;
  400cee:	e030      	b.n	400d52 <ov_configure+0xd2>
		
	case JPEG:
		p_regs_conf = OV2640_JPEG;
  400cf0:	4b21      	ldr	r3, [pc, #132]	; (400d78 <ov_configure+0xf8>)
  400cf2:	60fb      	str	r3, [r7, #12]
		break;
  400cf4:	e02d      	b.n	400d52 <ov_configure+0xd2>
		
	case JPEG_320x240:
		p_regs_conf = OV2640_JPEG_320x240;
  400cf6:	4b21      	ldr	r3, [pc, #132]	; (400d7c <ov_configure+0xfc>)
  400cf8:	60fb      	str	r3, [r7, #12]
		break;
  400cfa:	e02a      	b.n	400d52 <ov_configure+0xd2>
		
	case JPEG_640x480:
		p_regs_conf = OV2640_JPEG_640x480;
  400cfc:	4b20      	ldr	r3, [pc, #128]	; (400d80 <ov_configure+0x100>)
  400cfe:	60fb      	str	r3, [r7, #12]
		break;
  400d00:	e027      	b.n	400d52 <ov_configure+0xd2>
		
	case JPEG_800x600:
		p_regs_conf = OV2640_JPEG_800x600;
  400d02:	4b20      	ldr	r3, [pc, #128]	; (400d84 <ov_configure+0x104>)
  400d04:	60fb      	str	r3, [r7, #12]
		break;
  400d06:	e024      	b.n	400d52 <ov_configure+0xd2>
		
	case JPEG_1024x768:
		p_regs_conf = OV2640_JPEG_1024x768;
  400d08:	4b1f      	ldr	r3, [pc, #124]	; (400d88 <ov_configure+0x108>)
  400d0a:	60fb      	str	r3, [r7, #12]
		break;
  400d0c:	e021      	b.n	400d52 <ov_configure+0xd2>
		
	case JPEG_1280x1024:
		p_regs_conf = OV2640_JPEG_1280x1024;
  400d0e:	4b1f      	ldr	r3, [pc, #124]	; (400d8c <ov_configure+0x10c>)
  400d10:	60fb      	str	r3, [r7, #12]
		break;
  400d12:	e01e      	b.n	400d52 <ov_configure+0xd2>
		
	case JPEG_1600x1200:
		p_regs_conf = OV2640_JPEG_1600x1200;
  400d14:	4b1e      	ldr	r3, [pc, #120]	; (400d90 <ov_configure+0x110>)
  400d16:	60fb      	str	r3, [r7, #12]
		break;
  400d18:	e01b      	b.n	400d52 <ov_configure+0xd2>
		
	case QVGA_YUV422_10FPS:
		p_regs_conf = OV2640_QVGA_YUV422_10FPS;
  400d1a:	4b1e      	ldr	r3, [pc, #120]	; (400d94 <ov_configure+0x114>)
  400d1c:	60fb      	str	r3, [r7, #12]
		break;
  400d1e:	e018      	b.n	400d52 <ov_configure+0xd2>

	case QVGA_YUV422_15FPS:
		p_regs_conf = OV2640_QVGA_YUV422_15FPS;
  400d20:	4b1d      	ldr	r3, [pc, #116]	; (400d98 <ov_configure+0x118>)
  400d22:	60fb      	str	r3, [r7, #12]
		break;
  400d24:	e015      	b.n	400d52 <ov_configure+0xd2>

	case QVGA_YUV422_20FPS:
		p_regs_conf = OV2640_QVGA_YUV422_20FPS;
  400d26:	4b1d      	ldr	r3, [pc, #116]	; (400d9c <ov_configure+0x11c>)
  400d28:	60fb      	str	r3, [r7, #12]
		break;
  400d2a:	e012      	b.n	400d52 <ov_configure+0xd2>

	case QVGA_YUV422_30FPS:
		p_regs_conf = OV2640_QVGA_YUV422_30FPS;
  400d2c:	4b1c      	ldr	r3, [pc, #112]	; (400da0 <ov_configure+0x120>)
  400d2e:	60fb      	str	r3, [r7, #12]
		break;
  400d30:	e00f      	b.n	400d52 <ov_configure+0xd2>

	case QVGA_RGB888:
		p_regs_conf = OV2640_QVGA_RGB888;
  400d32:	4b1c      	ldr	r3, [pc, #112]	; (400da4 <ov_configure+0x124>)
  400d34:	60fb      	str	r3, [r7, #12]
		break;
  400d36:	e00c      	b.n	400d52 <ov_configure+0xd2>

	case QQVGA_YUV422:
		p_regs_conf = OV2640_QQVGA_YUV422;
  400d38:	4b1b      	ldr	r3, [pc, #108]	; (400da8 <ov_configure+0x128>)
  400d3a:	60fb      	str	r3, [r7, #12]
		break;
  400d3c:	e009      	b.n	400d52 <ov_configure+0xd2>

	case QQVGA_RGB888:
		p_regs_conf = OV2640_QQVGA_RGB888;
  400d3e:	4b1b      	ldr	r3, [pc, #108]	; (400dac <ov_configure+0x12c>)
  400d40:	60fb      	str	r3, [r7, #12]
		break;
  400d42:	e006      	b.n	400d52 <ov_configure+0xd2>

	case TEST_PATTERN:
		p_regs_conf = OV2640_TEST_PATTERN;
  400d44:	4b1a      	ldr	r3, [pc, #104]	; (400db0 <ov_configure+0x130>)
  400d46:	60fb      	str	r3, [r7, #12]
		break;
  400d48:	e003      	b.n	400d52 <ov_configure+0xd2>

	case VGA_YUV422_20FPS:
		p_regs_conf = OV2640_VGA_YUV422_20FPS;
  400d4a:	4b1a      	ldr	r3, [pc, #104]	; (400db4 <ov_configure+0x134>)
  400d4c:	60fb      	str	r3, [r7, #12]
		break;
  400d4e:	e000      	b.n	400d52 <ov_configure+0xd2>

	default:
		break;
  400d50:	bf00      	nop
	}

	if (p_regs_conf != NULL) {
  400d52:	68fb      	ldr	r3, [r7, #12]
  400d54:	2b00      	cmp	r3, #0
  400d56:	d005      	beq.n	400d64 <ov_configure+0xe4>
		ov_write_regs( p_twi, p_regs_conf );
  400d58:	68f9      	ldr	r1, [r7, #12]
  400d5a:	6878      	ldr	r0, [r7, #4]
  400d5c:	4b16      	ldr	r3, [pc, #88]	; (400db8 <ov_configure+0x138>)
  400d5e:	4798      	blx	r3
		return 0;
  400d60:	2300      	movs	r3, #0
  400d62:	e000      	b.n	400d66 <ov_configure+0xe6>
	}

	return 1;
  400d64:	2301      	movs	r3, #1
}
  400d66:	4618      	mov	r0, r3
  400d68:	3710      	adds	r7, #16
  400d6a:	46bd      	mov	sp, r7
  400d6c:	bd80      	pop	{r7, pc}
  400d6e:	bf00      	nop
  400d70:	00408224 	.word	0x00408224
  400d74:	004083a4 	.word	0x004083a4
  400d78:	004083b8 	.word	0x004083b8
  400d7c:	004083cc 	.word	0x004083cc
  400d80:	0040841c 	.word	0x0040841c
  400d84:	00408470 	.word	0x00408470
  400d88:	004084c4 	.word	0x004084c4
  400d8c:	00408514 	.word	0x00408514
  400d90:	00408568 	.word	0x00408568
  400d94:	004085bc 	.word	0x004085bc
  400d98:	004086ac 	.word	0x004086ac
  400d9c:	0040879c 	.word	0x0040879c
  400da0:	0040888c 	.word	0x0040888c
  400da4:	0040897c 	.word	0x0040897c
  400da8:	00408a70 	.word	0x00408a70
  400dac:	00408b64 	.word	0x00408b64
  400db0:	00408c58 	.word	0x00408c58
  400db4:	00408d4c 	.word	0x00408d4c
  400db8:	00400b21 	.word	0x00400b21

00400dbc <NVIC_EnableIRQ>:
{
  400dbc:	b480      	push	{r7}
  400dbe:	b083      	sub	sp, #12
  400dc0:	af00      	add	r7, sp, #0
  400dc2:	4603      	mov	r3, r0
  400dc4:	71fb      	strb	r3, [r7, #7]
  NVIC->ISER[(uint32_t)((int32_t)IRQn) >> 5] = (uint32_t)(1 << ((uint32_t)((int32_t)IRQn) & (uint32_t)0x1F)); /* enable interrupt */
  400dc6:	4908      	ldr	r1, [pc, #32]	; (400de8 <NVIC_EnableIRQ+0x2c>)
  400dc8:	f997 3007 	ldrsb.w	r3, [r7, #7]
  400dcc:	095b      	lsrs	r3, r3, #5
  400dce:	79fa      	ldrb	r2, [r7, #7]
  400dd0:	f002 021f 	and.w	r2, r2, #31
  400dd4:	2001      	movs	r0, #1
  400dd6:	fa00 f202 	lsl.w	r2, r0, r2
  400dda:	f841 2023 	str.w	r2, [r1, r3, lsl #2]
}
  400dde:	bf00      	nop
  400de0:	370c      	adds	r7, #12
  400de2:	46bd      	mov	sp, r7
  400de4:	bc80      	pop	{r7}
  400de6:	4770      	bx	lr
  400de8:	e000e100 	.word	0xe000e100

00400dec <osc_get_rate>:
{
  400dec:	b480      	push	{r7}
  400dee:	b083      	sub	sp, #12
  400df0:	af00      	add	r7, sp, #0
  400df2:	6078      	str	r0, [r7, #4]
	switch (ul_id) {
  400df4:	687b      	ldr	r3, [r7, #4]
  400df6:	2b07      	cmp	r3, #7
  400df8:	d825      	bhi.n	400e46 <osc_get_rate+0x5a>
  400dfa:	a201      	add	r2, pc, #4	; (adr r2, 400e00 <osc_get_rate+0x14>)
  400dfc:	f852 f023 	ldr.w	pc, [r2, r3, lsl #2]
  400e00:	00400e21 	.word	0x00400e21
  400e04:	00400e27 	.word	0x00400e27
  400e08:	00400e2d 	.word	0x00400e2d
  400e0c:	00400e33 	.word	0x00400e33
  400e10:	00400e37 	.word	0x00400e37
  400e14:	00400e3b 	.word	0x00400e3b
  400e18:	00400e3f 	.word	0x00400e3f
  400e1c:	00400e43 	.word	0x00400e43
		return OSC_SLCK_32K_RC_HZ;
  400e20:	f44f 43fa 	mov.w	r3, #32000	; 0x7d00
  400e24:	e010      	b.n	400e48 <osc_get_rate+0x5c>
		return BOARD_FREQ_SLCK_XTAL;
  400e26:	f44f 4300 	mov.w	r3, #32768	; 0x8000
  400e2a:	e00d      	b.n	400e48 <osc_get_rate+0x5c>
		return BOARD_FREQ_SLCK_BYPASS;
  400e2c:	f44f 4300 	mov.w	r3, #32768	; 0x8000
  400e30:	e00a      	b.n	400e48 <osc_get_rate+0x5c>
		return OSC_MAINCK_4M_RC_HZ;
  400e32:	4b08      	ldr	r3, [pc, #32]	; (400e54 <osc_get_rate+0x68>)
  400e34:	e008      	b.n	400e48 <osc_get_rate+0x5c>
		return OSC_MAINCK_8M_RC_HZ;
  400e36:	4b08      	ldr	r3, [pc, #32]	; (400e58 <osc_get_rate+0x6c>)
  400e38:	e006      	b.n	400e48 <osc_get_rate+0x5c>
		return OSC_MAINCK_12M_RC_HZ;
  400e3a:	4b08      	ldr	r3, [pc, #32]	; (400e5c <osc_get_rate+0x70>)
  400e3c:	e004      	b.n	400e48 <osc_get_rate+0x5c>
		return BOARD_FREQ_MAINCK_XTAL;
  400e3e:	4b07      	ldr	r3, [pc, #28]	; (400e5c <osc_get_rate+0x70>)
  400e40:	e002      	b.n	400e48 <osc_get_rate+0x5c>
		return BOARD_FREQ_MAINCK_BYPASS;
  400e42:	4b06      	ldr	r3, [pc, #24]	; (400e5c <osc_get_rate+0x70>)
  400e44:	e000      	b.n	400e48 <osc_get_rate+0x5c>
	return 0;
  400e46:	2300      	movs	r3, #0
}
  400e48:	4618      	mov	r0, r3
  400e4a:	370c      	adds	r7, #12
  400e4c:	46bd      	mov	sp, r7
  400e4e:	bc80      	pop	{r7}
  400e50:	4770      	bx	lr
  400e52:	bf00      	nop
  400e54:	003d0900 	.word	0x003d0900
  400e58:	007a1200 	.word	0x007a1200
  400e5c:	00b71b00 	.word	0x00b71b00

00400e60 <sysclk_get_main_hz>:
{
  400e60:	b580      	push	{r7, lr}
  400e62:	af00      	add	r7, sp, #0
		return pll_get_default_rate(0);
  400e64:	2006      	movs	r0, #6
  400e66:	4b04      	ldr	r3, [pc, #16]	; (400e78 <sysclk_get_main_hz+0x18>)
  400e68:	4798      	blx	r3
  400e6a:	4602      	mov	r2, r0
  400e6c:	4613      	mov	r3, r2
  400e6e:	009b      	lsls	r3, r3, #2
  400e70:	4413      	add	r3, r2
  400e72:	009b      	lsls	r3, r3, #2
}
  400e74:	4618      	mov	r0, r3
  400e76:	bd80      	pop	{r7, pc}
  400e78:	00400ded 	.word	0x00400ded

00400e7c <sysclk_get_cpu_hz>:
{
  400e7c:	b580      	push	{r7, lr}
  400e7e:	af00      	add	r7, sp, #0
	return sysclk_get_main_hz() /
  400e80:	4b02      	ldr	r3, [pc, #8]	; (400e8c <sysclk_get_cpu_hz+0x10>)
  400e82:	4798      	blx	r3
  400e84:	4603      	mov	r3, r0
  400e86:	085b      	lsrs	r3, r3, #1
}
  400e88:	4618      	mov	r0, r3
  400e8a:	bd80      	pop	{r7, pc}
  400e8c:	00400e61 	.word	0x00400e61

00400e90 <TC0_Handler>:
 */ 

#include "timer_interface.h"

void TC0_Handler(void)
{
  400e90:	b580      	push	{r7, lr}
  400e92:	b082      	sub	sp, #8
  400e94:	af00      	add	r7, sp, #0
	uint32_t ul_status;

	// Read TC0 status.
	ul_status = tc_get_status(TC0, 0);
  400e96:	2100      	movs	r1, #0
  400e98:	4809      	ldr	r0, [pc, #36]	; (400ec0 <TC0_Handler+0x30>)
  400e9a:	4b0a      	ldr	r3, [pc, #40]	; (400ec4 <TC0_Handler+0x34>)
  400e9c:	4798      	blx	r3
  400e9e:	6078      	str	r0, [r7, #4]

	// RC compare.
	if ((ul_status & TC_SR_CPCS) == TC_SR_CPCS) {
  400ea0:	687b      	ldr	r3, [r7, #4]
  400ea2:	f003 0310 	and.w	r3, r3, #16
  400ea6:	2b00      	cmp	r3, #0
  400ea8:	d006      	beq.n	400eb8 <TC0_Handler+0x28>
		counts++;
  400eaa:	4b07      	ldr	r3, [pc, #28]	; (400ec8 <TC0_Handler+0x38>)
  400eac:	781b      	ldrb	r3, [r3, #0]
  400eae:	b2db      	uxtb	r3, r3
  400eb0:	3301      	adds	r3, #1
  400eb2:	b2da      	uxtb	r2, r3
  400eb4:	4b04      	ldr	r3, [pc, #16]	; (400ec8 <TC0_Handler+0x38>)
  400eb6:	701a      	strb	r2, [r3, #0]
	}
}
  400eb8:	bf00      	nop
  400eba:	3708      	adds	r7, #8
  400ebc:	46bd      	mov	sp, r7
  400ebe:	bd80      	pop	{r7, pc}
  400ec0:	40010000 	.word	0x40010000
  400ec4:	004001db 	.word	0x004001db
  400ec8:	200009ec 	.word	0x200009ec

00400ecc <configure_tc>:

void configure_tc(void)
{
  400ecc:	b590      	push	{r4, r7, lr}
  400ece:	b087      	sub	sp, #28
  400ed0:	af02      	add	r7, sp, #8
	uint32_t ul_div;
	uint32_t ul_tcclks;
	uint32_t ul_sysclk;

	// Get system clock.
	ul_sysclk = sysclk_get_cpu_hz();
  400ed2:	4b18      	ldr	r3, [pc, #96]	; (400f34 <configure_tc+0x68>)
  400ed4:	4798      	blx	r3
  400ed6:	60f8      	str	r0, [r7, #12]

	// Configure PMC.
	pmc_enable_periph_clk(ID_TC0);
  400ed8:	2017      	movs	r0, #23
  400eda:	4b17      	ldr	r3, [pc, #92]	; (400f38 <configure_tc+0x6c>)
  400edc:	4798      	blx	r3

	// Configure TC for a 1Hz frequency and trigger on RC compare.
	tc_find_mck_divisor(TC_FREQ, ul_sysclk, &ul_div, &ul_tcclks, ul_sysclk);
  400ede:	1d39      	adds	r1, r7, #4
  400ee0:	f107 0208 	add.w	r2, r7, #8
  400ee4:	68fb      	ldr	r3, [r7, #12]
  400ee6:	9300      	str	r3, [sp, #0]
  400ee8:	460b      	mov	r3, r1
  400eea:	68f9      	ldr	r1, [r7, #12]
  400eec:	2001      	movs	r0, #1
  400eee:	4c13      	ldr	r4, [pc, #76]	; (400f3c <configure_tc+0x70>)
  400ef0:	47a0      	blx	r4
	tc_init(TC0, 0, ul_tcclks | TC_CMR_CPCTRG);
  400ef2:	687b      	ldr	r3, [r7, #4]
  400ef4:	f443 4380 	orr.w	r3, r3, #16384	; 0x4000
  400ef8:	461a      	mov	r2, r3
  400efa:	2100      	movs	r1, #0
  400efc:	4810      	ldr	r0, [pc, #64]	; (400f40 <configure_tc+0x74>)
  400efe:	4b11      	ldr	r3, [pc, #68]	; (400f44 <configure_tc+0x78>)
  400f00:	4798      	blx	r3
	tc_write_rc(TC0, 0, (ul_sysclk / ul_div) / TC_FREQ);
  400f02:	68bb      	ldr	r3, [r7, #8]
  400f04:	68fa      	ldr	r2, [r7, #12]
  400f06:	fbb2 f3f3 	udiv	r3, r2, r3
  400f0a:	461a      	mov	r2, r3
  400f0c:	2100      	movs	r1, #0
  400f0e:	480c      	ldr	r0, [pc, #48]	; (400f40 <configure_tc+0x74>)
  400f10:	4b0d      	ldr	r3, [pc, #52]	; (400f48 <configure_tc+0x7c>)
  400f12:	4798      	blx	r3

	// Configure and enable interrupt on RC compare.
	NVIC_EnableIRQ((IRQn_Type) ID_TC0);
  400f14:	2017      	movs	r0, #23
  400f16:	4b0d      	ldr	r3, [pc, #52]	; (400f4c <configure_tc+0x80>)
  400f18:	4798      	blx	r3
	tc_enable_interrupt(TC0, 0, TC_IER_CPCS);
  400f1a:	2210      	movs	r2, #16
  400f1c:	2100      	movs	r1, #0
  400f1e:	4808      	ldr	r0, [pc, #32]	; (400f40 <configure_tc+0x74>)
  400f20:	4b0b      	ldr	r3, [pc, #44]	; (400f50 <configure_tc+0x84>)
  400f22:	4798      	blx	r3
	
	// Start the timer
	tc_start(TC0, 0);
  400f24:	2100      	movs	r1, #0
  400f26:	4806      	ldr	r0, [pc, #24]	; (400f40 <configure_tc+0x74>)
  400f28:	4b0a      	ldr	r3, [pc, #40]	; (400f54 <configure_tc+0x88>)
  400f2a:	4798      	blx	r3
  400f2c:	bf00      	nop
  400f2e:	3714      	adds	r7, #20
  400f30:	46bd      	mov	sp, r7
  400f32:	bd90      	pop	{r4, r7, pc}
  400f34:	00400e7d 	.word	0x00400e7d
  400f38:	0040298d 	.word	0x0040298d
  400f3c:	004001fd 	.word	0x004001fd
  400f40:	40010000 	.word	0x40010000
  400f44:	00400139 	.word	0x00400139
  400f48:	00400191 	.word	0x00400191
  400f4c:	00400dbd 	.word	0x00400dbd
  400f50:	004001b5 	.word	0x004001b5
  400f54:	00400171 	.word	0x00400171

00400f58 <NVIC_EnableIRQ>:
{
  400f58:	b480      	push	{r7}
  400f5a:	b083      	sub	sp, #12
  400f5c:	af00      	add	r7, sp, #0
  400f5e:	4603      	mov	r3, r0
  400f60:	71fb      	strb	r3, [r7, #7]
  NVIC->ISER[(uint32_t)((int32_t)IRQn) >> 5] = (uint32_t)(1 << ((uint32_t)((int32_t)IRQn) & (uint32_t)0x1F)); /* enable interrupt */
  400f62:	4908      	ldr	r1, [pc, #32]	; (400f84 <NVIC_EnableIRQ+0x2c>)
  400f64:	f997 3007 	ldrsb.w	r3, [r7, #7]
  400f68:	095b      	lsrs	r3, r3, #5
  400f6a:	79fa      	ldrb	r2, [r7, #7]
  400f6c:	f002 021f 	and.w	r2, r2, #31
  400f70:	2001      	movs	r0, #1
  400f72:	fa00 f202 	lsl.w	r2, r0, r2
  400f76:	f841 2023 	str.w	r2, [r1, r3, lsl #2]
}
  400f7a:	bf00      	nop
  400f7c:	370c      	adds	r7, #12
  400f7e:	46bd      	mov	sp, r7
  400f80:	bc80      	pop	{r7}
  400f82:	4770      	bx	lr
  400f84:	e000e100 	.word	0xe000e100

00400f88 <osc_get_rate>:
{
  400f88:	b480      	push	{r7}
  400f8a:	b083      	sub	sp, #12
  400f8c:	af00      	add	r7, sp, #0
  400f8e:	6078      	str	r0, [r7, #4]
	switch (ul_id) {
  400f90:	687b      	ldr	r3, [r7, #4]
  400f92:	2b07      	cmp	r3, #7
  400f94:	d825      	bhi.n	400fe2 <osc_get_rate+0x5a>
  400f96:	a201      	add	r2, pc, #4	; (adr r2, 400f9c <osc_get_rate+0x14>)
  400f98:	f852 f023 	ldr.w	pc, [r2, r3, lsl #2]
  400f9c:	00400fbd 	.word	0x00400fbd
  400fa0:	00400fc3 	.word	0x00400fc3
  400fa4:	00400fc9 	.word	0x00400fc9
  400fa8:	00400fcf 	.word	0x00400fcf
  400fac:	00400fd3 	.word	0x00400fd3
  400fb0:	00400fd7 	.word	0x00400fd7
  400fb4:	00400fdb 	.word	0x00400fdb
  400fb8:	00400fdf 	.word	0x00400fdf
		return OSC_SLCK_32K_RC_HZ;
  400fbc:	f44f 43fa 	mov.w	r3, #32000	; 0x7d00
  400fc0:	e010      	b.n	400fe4 <osc_get_rate+0x5c>
		return BOARD_FREQ_SLCK_XTAL;
  400fc2:	f44f 4300 	mov.w	r3, #32768	; 0x8000
  400fc6:	e00d      	b.n	400fe4 <osc_get_rate+0x5c>
		return BOARD_FREQ_SLCK_BYPASS;
  400fc8:	f44f 4300 	mov.w	r3, #32768	; 0x8000
  400fcc:	e00a      	b.n	400fe4 <osc_get_rate+0x5c>
		return OSC_MAINCK_4M_RC_HZ;
  400fce:	4b08      	ldr	r3, [pc, #32]	; (400ff0 <osc_get_rate+0x68>)
  400fd0:	e008      	b.n	400fe4 <osc_get_rate+0x5c>
		return OSC_MAINCK_8M_RC_HZ;
  400fd2:	4b08      	ldr	r3, [pc, #32]	; (400ff4 <osc_get_rate+0x6c>)
  400fd4:	e006      	b.n	400fe4 <osc_get_rate+0x5c>
		return OSC_MAINCK_12M_RC_HZ;
  400fd6:	4b08      	ldr	r3, [pc, #32]	; (400ff8 <osc_get_rate+0x70>)
  400fd8:	e004      	b.n	400fe4 <osc_get_rate+0x5c>
		return BOARD_FREQ_MAINCK_XTAL;
  400fda:	4b07      	ldr	r3, [pc, #28]	; (400ff8 <osc_get_rate+0x70>)
  400fdc:	e002      	b.n	400fe4 <osc_get_rate+0x5c>
		return BOARD_FREQ_MAINCK_BYPASS;
  400fde:	4b06      	ldr	r3, [pc, #24]	; (400ff8 <osc_get_rate+0x70>)
  400fe0:	e000      	b.n	400fe4 <osc_get_rate+0x5c>
	return 0;
  400fe2:	2300      	movs	r3, #0
}
  400fe4:	4618      	mov	r0, r3
  400fe6:	370c      	adds	r7, #12
  400fe8:	46bd      	mov	sp, r7
  400fea:	bc80      	pop	{r7}
  400fec:	4770      	bx	lr
  400fee:	bf00      	nop
  400ff0:	003d0900 	.word	0x003d0900
  400ff4:	007a1200 	.word	0x007a1200
  400ff8:	00b71b00 	.word	0x00b71b00

00400ffc <sysclk_get_main_hz>:
{
  400ffc:	b580      	push	{r7, lr}
  400ffe:	af00      	add	r7, sp, #0
		return pll_get_default_rate(0);
  401000:	2006      	movs	r0, #6
  401002:	4b04      	ldr	r3, [pc, #16]	; (401014 <sysclk_get_main_hz+0x18>)
  401004:	4798      	blx	r3
  401006:	4602      	mov	r2, r0
  401008:	4613      	mov	r3, r2
  40100a:	009b      	lsls	r3, r3, #2
  40100c:	4413      	add	r3, r2
  40100e:	009b      	lsls	r3, r3, #2
}
  401010:	4618      	mov	r0, r3
  401012:	bd80      	pop	{r7, pc}
  401014:	00400f89 	.word	0x00400f89

00401018 <sysclk_get_cpu_hz>:
{
  401018:	b580      	push	{r7, lr}
  40101a:	af00      	add	r7, sp, #0
	return sysclk_get_main_hz() /
  40101c:	4b02      	ldr	r3, [pc, #8]	; (401028 <sysclk_get_cpu_hz+0x10>)
  40101e:	4798      	blx	r3
  401020:	4603      	mov	r3, r0
  401022:	085b      	lsrs	r3, r3, #1
}
  401024:	4618      	mov	r0, r3
  401026:	bd80      	pop	{r7, pc}
  401028:	00400ffd 	.word	0x00400ffd

0040102c <sysclk_get_peripheral_hz>:
 * \brief Retrieves the current rate in Hz of the peripheral clocks.
 *
 * \return Frequency of the peripheral clocks, in Hz.
 */
static inline uint32_t sysclk_get_peripheral_hz(void)
{
  40102c:	b580      	push	{r7, lr}
  40102e:	af00      	add	r7, sp, #0
	/* CONFIG_SYSCLK_PRES is the register value for setting the expected */
	/* prescaler, not an immediate value. */
	return sysclk_get_main_hz() /
  401030:	4b02      	ldr	r3, [pc, #8]	; (40103c <sysclk_get_peripheral_hz+0x10>)
  401032:	4798      	blx	r3
  401034:	4603      	mov	r3, r0
  401036:	085b      	lsrs	r3, r3, #1
		((CONFIG_SYSCLK_PRES == SYSCLK_PRES_3) ? 3 :
			(1 << (CONFIG_SYSCLK_PRES >> PMC_MCKR_PRES_Pos)));
}
  401038:	4618      	mov	r0, r3
  40103a:	bd80      	pop	{r7, pc}
  40103c:	00400ffd 	.word	0x00400ffd

00401040 <sysclk_enable_peripheral_clock>:
 * \brief Enable a peripheral's clock.
 *
 * \param ul_id Id (number) of the peripheral clock.
 */
static inline void sysclk_enable_peripheral_clock(uint32_t ul_id)
{
  401040:	b580      	push	{r7, lr}
  401042:	b082      	sub	sp, #8
  401044:	af00      	add	r7, sp, #0
  401046:	6078      	str	r0, [r7, #4]
	pmc_enable_periph_clk(ul_id);
  401048:	6878      	ldr	r0, [r7, #4]
  40104a:	4b03      	ldr	r3, [pc, #12]	; (401058 <sysclk_enable_peripheral_clock+0x18>)
  40104c:	4798      	blx	r3
}
  40104e:	bf00      	nop
  401050:	3708      	adds	r7, #8
  401052:	46bd      	mov	sp, r7
  401054:	bd80      	pop	{r7, pc}
  401056:	bf00      	nop
  401058:	0040298d 	.word	0x0040298d

0040105c <USART0_Handler>:
/*
Handler for incoming data from the WiFi. Should call
process incoming byte wifi when a new byte arrives
*/
void WIFI_USART_HANDLER(void) 
{
  40105c:	b580      	push	{r7, lr}
  40105e:	b082      	sub	sp, #8
  401060:	af00      	add	r7, sp, #0
	uint32_t ul_status;
	
	/* Read USART status. */
	ul_status = usart_get_status(BOARD_USART);
  401062:	480d      	ldr	r0, [pc, #52]	; (401098 <USART0_Handler+0x3c>)
  401064:	4b0d      	ldr	r3, [pc, #52]	; (40109c <USART0_Handler+0x40>)
  401066:	4798      	blx	r3
  401068:	6078      	str	r0, [r7, #4]

	/* Receive buffer is full. */
	if (ul_status & US_CSR_RXBUFF) {
  40106a:	687b      	ldr	r3, [r7, #4]
  40106c:	f403 5380 	and.w	r3, r3, #4096	; 0x1000
  401070:	2b00      	cmp	r3, #0
  401072:	d00c      	beq.n	40108e <USART0_Handler+0x32>
		usart_read(BOARD_USART, &received_byte_wifi);
  401074:	490a      	ldr	r1, [pc, #40]	; (4010a0 <USART0_Handler+0x44>)
  401076:	4808      	ldr	r0, [pc, #32]	; (401098 <USART0_Handler+0x3c>)
  401078:	4b0a      	ldr	r3, [pc, #40]	; (4010a4 <USART0_Handler+0x48>)
  40107a:	4798      	blx	r3
		new_rx_wifi = true;
  40107c:	4b0a      	ldr	r3, [pc, #40]	; (4010a8 <USART0_Handler+0x4c>)
  40107e:	2201      	movs	r2, #1
  401080:	701a      	strb	r2, [r3, #0]
		process_incoming_byte_wifi((uint8_t)received_byte_wifi);
  401082:	4b07      	ldr	r3, [pc, #28]	; (4010a0 <USART0_Handler+0x44>)
  401084:	681b      	ldr	r3, [r3, #0]
  401086:	b2db      	uxtb	r3, r3
  401088:	4618      	mov	r0, r3
  40108a:	4b08      	ldr	r3, [pc, #32]	; (4010ac <USART0_Handler+0x50>)
  40108c:	4798      	blx	r3
	}
}
  40108e:	bf00      	nop
  401090:	3708      	adds	r7, #8
  401092:	46bd      	mov	sp, r7
  401094:	bd80      	pop	{r7, pc}
  401096:	bf00      	nop
  401098:	40024000 	.word	0x40024000
  40109c:	00401b3d 	.word	0x00401b3d
  4010a0:	200009e0 	.word	0x200009e0
  4010a4:	00401c01 	.word	0x00401c01
  4010a8:	200009e4 	.word	0x200009e4
  4010ac:	004010b1 	.word	0x004010b1

004010b0 <process_incoming_byte_wifi>:

/*
Stores every incoming byte (in byte) from the AMW136 in a buffer.
*/
void process_incoming_byte_wifi(uint8_t in_byte) 
{
  4010b0:	b480      	push	{r7}
  4010b2:	b083      	sub	sp, #12
  4010b4:	af00      	add	r7, sp, #0
  4010b6:	4603      	mov	r3, r0
  4010b8:	71fb      	strb	r3, [r7, #7]
	buffer_wifi[input_pos_wifi] = in_byte;
  4010ba:	4b07      	ldr	r3, [pc, #28]	; (4010d8 <process_incoming_byte_wifi+0x28>)
  4010bc:	681b      	ldr	r3, [r3, #0]
  4010be:	4907      	ldr	r1, [pc, #28]	; (4010dc <process_incoming_byte_wifi+0x2c>)
  4010c0:	79fa      	ldrb	r2, [r7, #7]
  4010c2:	54ca      	strb	r2, [r1, r3]
	input_pos_wifi++;
  4010c4:	4b04      	ldr	r3, [pc, #16]	; (4010d8 <process_incoming_byte_wifi+0x28>)
  4010c6:	681b      	ldr	r3, [r3, #0]
  4010c8:	3301      	adds	r3, #1
  4010ca:	4a03      	ldr	r2, [pc, #12]	; (4010d8 <process_incoming_byte_wifi+0x28>)
  4010cc:	6013      	str	r3, [r2, #0]
}
  4010ce:	bf00      	nop
  4010d0:	370c      	adds	r7, #12
  4010d2:	46bd      	mov	sp, r7
  4010d4:	bc80      	pop	{r7}
  4010d6:	4770      	bx	lr
  4010d8:	200009e8 	.word	0x200009e8
  4010dc:	2001914c 	.word	0x2001914c

004010e0 <wifi_command_response_handler>:
/*
Handler for command complete rising-edge interrupt from AMW136.
When this is triggered, it is time to process the response of the AMW136.
*/
void wifi_command_response_handler(uint32_t ul_id, uint32_t ul_mask) 
{
  4010e0:	b580      	push	{r7, lr}
  4010e2:	b084      	sub	sp, #16
  4010e4:	af00      	add	r7, sp, #0
  4010e6:	6078      	str	r0, [r7, #4]
  4010e8:	6039      	str	r1, [r7, #0]
	unused(ul_id);
	unused(ul_mask);

	process_data_wifi();
  4010ea:	4b0c      	ldr	r3, [pc, #48]	; (40111c <wifi_command_response_handler+0x3c>)
  4010ec:	4798      	blx	r3
	
	// reset the buffer
	input_pos_wifi = 0;
  4010ee:	4b0c      	ldr	r3, [pc, #48]	; (401120 <wifi_command_response_handler+0x40>)
  4010f0:	2200      	movs	r2, #0
  4010f2:	601a      	str	r2, [r3, #0]
	for(uint32_t ii = 0 ;ii < MAX_INPUT_WIFI; ii++){
  4010f4:	2300      	movs	r3, #0
  4010f6:	60fb      	str	r3, [r7, #12]
  4010f8:	e007      	b.n	40110a <wifi_command_response_handler+0x2a>
		buffer_wifi[ii] = 0;
  4010fa:	4a0a      	ldr	r2, [pc, #40]	; (401124 <wifi_command_response_handler+0x44>)
  4010fc:	68fb      	ldr	r3, [r7, #12]
  4010fe:	4413      	add	r3, r2
  401100:	2200      	movs	r2, #0
  401102:	701a      	strb	r2, [r3, #0]
	for(uint32_t ii = 0 ;ii < MAX_INPUT_WIFI; ii++){
  401104:	68fb      	ldr	r3, [r7, #12]
  401106:	3301      	adds	r3, #1
  401108:	60fb      	str	r3, [r7, #12]
  40110a:	68fb      	ldr	r3, [r7, #12]
  40110c:	f5b3 7f7a 	cmp.w	r3, #1000	; 0x3e8
  401110:	d3f3      	bcc.n	4010fa <wifi_command_response_handler+0x1a>
	}
	
}
  401112:	bf00      	nop
  401114:	3710      	adds	r7, #16
  401116:	46bd      	mov	sp, r7
  401118:	bd80      	pop	{r7, pc}
  40111a:	bf00      	nop
  40111c:	00401129 	.word	0x00401129
  401120:	200009e8 	.word	0x200009e8
  401124:	2001914c 	.word	0x2001914c

00401128 <process_data_wifi>:
filled by process incoming byte wifi. This processing should be looking for certain
responses that the AMW136 should give, such as start transfer when it is ready to
receive the image.
*/
void process_data_wifi (void) 
{
  401128:	b580      	push	{r7, lr}
  40112a:	af00      	add	r7, sp, #0
	// Compare the received string with some other string
	/*if(strstr(buffer_wifi, "StringToCompare")){
		// Do something
	}*/
	if(strstr(buffer_wifi,msg_START_TRANSFER)){
  40112c:	4913      	ldr	r1, [pc, #76]	; (40117c <process_data_wifi+0x54>)
  40112e:	4814      	ldr	r0, [pc, #80]	; (401180 <process_data_wifi+0x58>)
  401130:	4b14      	ldr	r3, [pc, #80]	; (401184 <process_data_wifi+0x5c>)
  401132:	4798      	blx	r3
  401134:	4603      	mov	r3, r0
  401136:	2b00      	cmp	r3, #0
  401138:	d003      	beq.n	401142 <process_data_wifi+0x1a>
		receivedMessage = START_TRANSFER;
  40113a:	4b13      	ldr	r3, [pc, #76]	; (401188 <process_data_wifi+0x60>)
  40113c:	2202      	movs	r2, #2
  40113e:	601a      	str	r2, [r3, #0]
	#define msg_COMPLETE				"Complete"

	#define msg_WEBSOCKET_CONNECTED		"Websocket connected"
	#define msg_WEBSOCKET_DISCONNECTED	"Websocket disconnected"
	#define msg_UNKNOWN_COMMAND			"Unknown command"*/
}
  401140:	e019      	b.n	401176 <process_data_wifi+0x4e>
    	if(strstr(buffer_wifi,msg_CLIENT_NOT_CONNECTED)){
  401142:	4912      	ldr	r1, [pc, #72]	; (40118c <process_data_wifi+0x64>)
  401144:	480e      	ldr	r0, [pc, #56]	; (401180 <process_data_wifi+0x58>)
  401146:	4b0f      	ldr	r3, [pc, #60]	; (401184 <process_data_wifi+0x5c>)
  401148:	4798      	blx	r3
  40114a:	4603      	mov	r3, r0
  40114c:	2b00      	cmp	r3, #0
  40114e:	d003      	beq.n	401158 <process_data_wifi+0x30>
			receivedMessage = CLIENT_NOT_CONNECTED	;
  401150:	4b0d      	ldr	r3, [pc, #52]	; (401188 <process_data_wifi+0x60>)
  401152:	2204      	movs	r2, #4
  401154:	601a      	str	r2, [r3, #0]
}
  401156:	e00e      	b.n	401176 <process_data_wifi+0x4e>
				if(strstr(buffer_wifi,msg_COMMAND_FAILED)){
  401158:	490d      	ldr	r1, [pc, #52]	; (401190 <process_data_wifi+0x68>)
  40115a:	4809      	ldr	r0, [pc, #36]	; (401180 <process_data_wifi+0x58>)
  40115c:	4b09      	ldr	r3, [pc, #36]	; (401184 <process_data_wifi+0x5c>)
  40115e:	4798      	blx	r3
  401160:	4603      	mov	r3, r0
  401162:	2b00      	cmp	r3, #0
  401164:	d003      	beq.n	40116e <process_data_wifi+0x46>
					receivedMessage = COMMAND_FAILED;
  401166:	4b08      	ldr	r3, [pc, #32]	; (401188 <process_data_wifi+0x60>)
  401168:	2205      	movs	r2, #5
  40116a:	601a      	str	r2, [r3, #0]
}
  40116c:	e003      	b.n	401176 <process_data_wifi+0x4e>
					receivedMessage = 4000;
  40116e:	4b06      	ldr	r3, [pc, #24]	; (401188 <process_data_wifi+0x60>)
  401170:	f44f 627a 	mov.w	r2, #4000	; 0xfa0
  401174:	601a      	str	r2, [r3, #0]
}
  401176:	bf00      	nop
  401178:	bd80      	pop	{r7, pc}
  40117a:	bf00      	nop
  40117c:	00408e3c 	.word	0x00408e3c
  401180:	2001914c 	.word	0x2001914c
  401184:	004039fd 	.word	0x004039fd
  401188:	200009f0 	.word	0x200009f0
  40118c:	00408e4c 	.word	0x00408e4c
  401190:	00408e64 	.word	0x00408e64

00401194 <wifi_web_setup_handler>:
/*
Handler for button to initiate web setup of AMW136. Should set a flag indicating a
request to initiate web setup
*/
void wifi_web_setup_handler(uint32_t ul_id, uint32_t ul_mask) 
{
  401194:	b480      	push	{r7}
  401196:	b083      	sub	sp, #12
  401198:	af00      	add	r7, sp, #0
  40119a:	6078      	str	r0, [r7, #4]
  40119c:	6039      	str	r1, [r7, #0]
	unused(ul_id);
	unused(ul_mask);

	wifi_setup_flag = true;
  40119e:	4b04      	ldr	r3, [pc, #16]	; (4011b0 <wifi_web_setup_handler+0x1c>)
  4011a0:	2201      	movs	r2, #1
  4011a2:	701a      	strb	r2, [r3, #0]
}
  4011a4:	bf00      	nop
  4011a6:	370c      	adds	r7, #12
  4011a8:	46bd      	mov	sp, r7
  4011aa:	bc80      	pop	{r7}
  4011ac:	4770      	bx	lr
  4011ae:	bf00      	nop
  4011b0:	200009ed 	.word	0x200009ed

004011b4 <configure_usart_wifi>:

/*
Configuration of USART port used to communicate with the AMW136.
*/
void configure_usart_wifi(void) 
{
  4011b4:	b5b0      	push	{r4, r5, r7, lr}
  4011b6:	b086      	sub	sp, #24
  4011b8:	af00      	add	r7, sp, #0
	
	static uint32_t ul_sysclk;
	const sam_usart_opt_t usart_console_settings = {
  4011ba:	4b21      	ldr	r3, [pc, #132]	; (401240 <configure_usart_wifi+0x8c>)
  4011bc:	463c      	mov	r4, r7
  4011be:	461d      	mov	r5, r3
  4011c0:	cd0f      	ldmia	r5!, {r0, r1, r2, r3}
  4011c2:	c40f      	stmia	r4!, {r0, r1, r2, r3}
  4011c4:	e895 0003 	ldmia.w	r5, {r0, r1}
  4011c8:	e884 0003 	stmia.w	r4, {r0, r1}
		/* This field is only used in IrDA mode. */
		0
	};

	/* Get peripheral clock. */
	ul_sysclk = sysclk_get_peripheral_hz();
  4011cc:	4b1d      	ldr	r3, [pc, #116]	; (401244 <configure_usart_wifi+0x90>)
  4011ce:	4798      	blx	r3
  4011d0:	4602      	mov	r2, r0
  4011d2:	4b1d      	ldr	r3, [pc, #116]	; (401248 <configure_usart_wifi+0x94>)
  4011d4:	601a      	str	r2, [r3, #0]

	/* Enable peripheral clock. */
	sysclk_enable_peripheral_clock(BOARD_ID_USART);
  4011d6:	200e      	movs	r0, #14
  4011d8:	4b1c      	ldr	r3, [pc, #112]	; (40124c <configure_usart_wifi+0x98>)
  4011da:	4798      	blx	r3

	/* Configure USART. */
	usart_init_hw_handshaking(BOARD_USART, &usart_console_settings, ul_sysclk);
  4011dc:	4b1a      	ldr	r3, [pc, #104]	; (401248 <configure_usart_wifi+0x94>)
  4011de:	681a      	ldr	r2, [r3, #0]
  4011e0:	463b      	mov	r3, r7
  4011e2:	4619      	mov	r1, r3
  4011e4:	481a      	ldr	r0, [pc, #104]	; (401250 <configure_usart_wifi+0x9c>)
  4011e6:	4b1b      	ldr	r3, [pc, #108]	; (401254 <configure_usart_wifi+0xa0>)
  4011e8:	4798      	blx	r3

	/* Disable all the interrupts. */
	usart_disable_interrupt(BOARD_USART, ALL_INTERRUPT_MASK);
  4011ea:	f04f 31ff 	mov.w	r1, #4294967295
  4011ee:	4818      	ldr	r0, [pc, #96]	; (401250 <configure_usart_wifi+0x9c>)
  4011f0:	4b19      	ldr	r3, [pc, #100]	; (401258 <configure_usart_wifi+0xa4>)
  4011f2:	4798      	blx	r3
	
	/* Enable TX & RX function. */
	usart_enable_tx(BOARD_USART);
  4011f4:	4816      	ldr	r0, [pc, #88]	; (401250 <configure_usart_wifi+0x9c>)
  4011f6:	4b19      	ldr	r3, [pc, #100]	; (40125c <configure_usart_wifi+0xa8>)
  4011f8:	4798      	blx	r3
	usart_enable_rx(BOARD_USART);
  4011fa:	4815      	ldr	r0, [pc, #84]	; (401250 <configure_usart_wifi+0x9c>)
  4011fc:	4b18      	ldr	r3, [pc, #96]	; (401260 <configure_usart_wifi+0xac>)
  4011fe:	4798      	blx	r3

	usart_enable_interrupt(BOARD_USART, US_IER_RXRDY);
  401200:	2101      	movs	r1, #1
  401202:	4813      	ldr	r0, [pc, #76]	; (401250 <configure_usart_wifi+0x9c>)
  401204:	4b17      	ldr	r3, [pc, #92]	; (401264 <configure_usart_wifi+0xb0>)
  401206:	4798      	blx	r3

	/* Configure and enable interrupt of USART. */
	NVIC_EnableIRQ(USART_IRQn);
  401208:	200e      	movs	r0, #14
  40120a:	4b17      	ldr	r3, [pc, #92]	; (401268 <configure_usart_wifi+0xb4>)
  40120c:	4798      	blx	r3

	// Configure the RX / TX pins
	/* Configure USART RXD pin */
	gpio_configure_pin(PIN_USART0_RXD_IDX, PIN_USART0_RXD_FLAGS);
  40120e:	f04f 6100 	mov.w	r1, #134217728	; 0x8000000
  401212:	2005      	movs	r0, #5
  401214:	4b15      	ldr	r3, [pc, #84]	; (40126c <configure_usart_wifi+0xb8>)
  401216:	4798      	blx	r3
	/* Configure USART TXD pin */
	gpio_configure_pin(PIN_USART0_TXD_IDX, PIN_USART0_TXD_FLAGS);
  401218:	f04f 6100 	mov.w	r1, #134217728	; 0x8000000
  40121c:	2006      	movs	r0, #6
  40121e:	4b13      	ldr	r3, [pc, #76]	; (40126c <configure_usart_wifi+0xb8>)
  401220:	4798      	blx	r3
	/* Configure USART CTS pin */
	gpio_configure_pin(PIN_USART0_CTS_IDX, PIN_USART0_CTS_FLAGS);
  401222:	f04f 6100 	mov.w	r1, #134217728	; 0x8000000
  401226:	2008      	movs	r0, #8
  401228:	4b10      	ldr	r3, [pc, #64]	; (40126c <configure_usart_wifi+0xb8>)
  40122a:	4798      	blx	r3
	/* Configure USART RTS pin */
	gpio_configure_pin(PIN_USART0_RTS_IDX, PIN_USART0_RTS_FLAGS);
  40122c:	f04f 6100 	mov.w	r1, #134217728	; 0x8000000
  401230:	2007      	movs	r0, #7
  401232:	4b0e      	ldr	r3, [pc, #56]	; (40126c <configure_usart_wifi+0xb8>)
  401234:	4798      	blx	r3
	
	// might just pull wifi_cts low
}
  401236:	bf00      	nop
  401238:	3718      	adds	r7, #24
  40123a:	46bd      	mov	sp, r7
  40123c:	bdb0      	pop	{r4, r5, r7, pc}
  40123e:	bf00      	nop
  401240:	00408e74 	.word	0x00408e74
  401244:	0040102d 	.word	0x0040102d
  401248:	200009f4 	.word	0x200009f4
  40124c:	00401041 	.word	0x00401041
  401250:	40024000 	.word	0x40024000
  401254:	00401a69 	.word	0x00401a69
  401258:	00401b23 	.word	0x00401b23
  40125c:	00401aa9 	.word	0x00401aa9
  401260:	00401ad9 	.word	0x00401ad9
  401264:	00401b09 	.word	0x00401b09
  401268:	00400f59 	.word	0x00400f59
  40126c:	00402471 	.word	0x00402471

00401270 <configure_wifi_comm_pin>:

/*
Configuration of command complete rising-edge interrupt.
*/
void configure_wifi_comm_pin(void) 
{
  401270:	b590      	push	{r4, r7, lr}
  401272:	b083      	sub	sp, #12
  401274:	af02      	add	r7, sp, #8
	/* Configure PIO clock. */
	
	pmc_enable_periph_clk(WIFI_COM_COMPLETE_ID);
  401276:	200b      	movs	r0, #11
  401278:	4b0e      	ldr	r3, [pc, #56]	; (4012b4 <configure_wifi_comm_pin+0x44>)
  40127a:	4798      	blx	r3
	
	/* Adjust PIO debounce filter using a 10 Hz filter. */
	pio_set_debounce_filter(WIFI_COM_COMPLETE_PIO, WIFI_COM_COMPLETE_MSK, 10);
  40127c:	220a      	movs	r2, #10
  40127e:	f44f 5180 	mov.w	r1, #4096	; 0x1000
  401282:	480d      	ldr	r0, [pc, #52]	; (4012b8 <configure_wifi_comm_pin+0x48>)
  401284:	4b0d      	ldr	r3, [pc, #52]	; (4012bc <configure_wifi_comm_pin+0x4c>)
  401286:	4798      	blx	r3

	/* Initialize PIO interrupt handler, see PIO definition in conf_board.h
	**/
	pio_handler_set(WIFI_COM_COMPLETE_PIO, WIFI_COM_COMPLETE_ID, WIFI_COM_COMPLETE_MSK,
  401288:	4b0d      	ldr	r3, [pc, #52]	; (4012c0 <configure_wifi_comm_pin+0x50>)
  40128a:	9300      	str	r3, [sp, #0]
  40128c:	2371      	movs	r3, #113	; 0x71
  40128e:	f44f 5280 	mov.w	r2, #4096	; 0x1000
  401292:	210b      	movs	r1, #11
  401294:	4808      	ldr	r0, [pc, #32]	; (4012b8 <configure_wifi_comm_pin+0x48>)
  401296:	4c0b      	ldr	r4, [pc, #44]	; (4012c4 <configure_wifi_comm_pin+0x54>)
  401298:	47a0      	blx	r4
			WIFI_COM_COMPLETE_ATTR, wifi_command_response_handler);

	/* Enable PIO controller IRQs. */
	NVIC_EnableIRQ((IRQn_Type)WIFI_COM_COMPLETE_ID);
  40129a:	200b      	movs	r0, #11
  40129c:	4b0a      	ldr	r3, [pc, #40]	; (4012c8 <configure_wifi_comm_pin+0x58>)
  40129e:	4798      	blx	r3

	/* Enable PIO interrupt lines. */
	pio_enable_interrupt(WIFI_COM_COMPLETE_PIO, WIFI_COM_COMPLETE_MSK);
  4012a0:	f44f 5180 	mov.w	r1, #4096	; 0x1000
  4012a4:	4804      	ldr	r0, [pc, #16]	; (4012b8 <configure_wifi_comm_pin+0x48>)
  4012a6:	4b09      	ldr	r3, [pc, #36]	; (4012cc <configure_wifi_comm_pin+0x5c>)
  4012a8:	4798      	blx	r3
}
  4012aa:	bf00      	nop
  4012ac:	3704      	adds	r7, #4
  4012ae:	46bd      	mov	sp, r7
  4012b0:	bd90      	pop	{r4, r7, pc}
  4012b2:	bf00      	nop
  4012b4:	0040298d 	.word	0x0040298d
  4012b8:	400e0e00 	.word	0x400e0e00
  4012bc:	0040217b 	.word	0x0040217b
  4012c0:	004010e1 	.word	0x004010e1
  4012c4:	00401d29 	.word	0x00401d29
  4012c8:	00400f59 	.word	0x00400f59
  4012cc:	0040240f 	.word	0x0040240f

004012d0 <configure_wifi_web_setup_pin>:

/*
Configuration of button interrupt to initiate web setup.
*/
void configure_wifi_web_setup_pin(void) 
{
  4012d0:	b590      	push	{r4, r7, lr}
  4012d2:	b083      	sub	sp, #12
  4012d4:	af02      	add	r7, sp, #8
	/* Configure PIO clock. */
	pmc_enable_periph_clk(PUSH_BUTTON_ID);
  4012d6:	200b      	movs	r0, #11
  4012d8:	4b0c      	ldr	r3, [pc, #48]	; (40130c <configure_wifi_web_setup_pin+0x3c>)
  4012da:	4798      	blx	r3

	/* Adjust PIO debounce filter using a 10 Hz filter. */
	pio_set_debounce_filter(PUSH_BUTTON_PIO, PUSH_BUTTON_PIN_MSK, 10);
  4012dc:	220a      	movs	r2, #10
  4012de:	2101      	movs	r1, #1
  4012e0:	480b      	ldr	r0, [pc, #44]	; (401310 <configure_wifi_web_setup_pin+0x40>)
  4012e2:	4b0c      	ldr	r3, [pc, #48]	; (401314 <configure_wifi_web_setup_pin+0x44>)
  4012e4:	4798      	blx	r3

	/* Initialize PIO interrupt handler, see PIO definition in conf_board.h
	**/
	pio_handler_set(PUSH_BUTTON_PIO, PUSH_BUTTON_ID, PUSH_BUTTON_PIN_MSK,
  4012e6:	4b0c      	ldr	r3, [pc, #48]	; (401318 <configure_wifi_web_setup_pin+0x48>)
  4012e8:	9300      	str	r3, [sp, #0]
  4012ea:	2349      	movs	r3, #73	; 0x49
  4012ec:	2201      	movs	r2, #1
  4012ee:	210b      	movs	r1, #11
  4012f0:	4807      	ldr	r0, [pc, #28]	; (401310 <configure_wifi_web_setup_pin+0x40>)
  4012f2:	4c0a      	ldr	r4, [pc, #40]	; (40131c <configure_wifi_web_setup_pin+0x4c>)
  4012f4:	47a0      	blx	r4
			PUSH_BUTTON_ATTR, wifi_web_setup_handler);

	/* Enable PIO controller IRQs. */
	NVIC_EnableIRQ((IRQn_Type)PUSH_BUTTON_ID);
  4012f6:	200b      	movs	r0, #11
  4012f8:	4b09      	ldr	r3, [pc, #36]	; (401320 <configure_wifi_web_setup_pin+0x50>)
  4012fa:	4798      	blx	r3

	/* Enable PIO interrupt lines. */
	pio_enable_interrupt(PUSH_BUTTON_PIO, PUSH_BUTTON_PIN_MSK);
  4012fc:	2101      	movs	r1, #1
  4012fe:	4804      	ldr	r0, [pc, #16]	; (401310 <configure_wifi_web_setup_pin+0x40>)
  401300:	4b08      	ldr	r3, [pc, #32]	; (401324 <configure_wifi_web_setup_pin+0x54>)
  401302:	4798      	blx	r3
}
  401304:	bf00      	nop
  401306:	3704      	adds	r7, #4
  401308:	46bd      	mov	sp, r7
  40130a:	bd90      	pop	{r4, r7, pc}
  40130c:	0040298d 	.word	0x0040298d
  401310:	400e0e00 	.word	0x400e0e00
  401314:	0040217b 	.word	0x0040217b
  401318:	00401195 	.word	0x00401195
  40131c:	00401d29 	.word	0x00401d29
  401320:	00400f59 	.word	0x00400f59
  401324:	0040240f 	.word	0x0040240f

00401328 <write_wifi_command>:
Writes a command (comm) to the AMW136, and waits either for an acknowledgment
or a timeout. The timeout can be created by setting the global variable counts
to zero, which will automatically increment every second, and waiting while counts < cnt.
*/
void write_wifi_command(char* comm, uint8_t cnt) 
{
  401328:	b580      	push	{r7, lr}
  40132a:	b082      	sub	sp, #8
  40132c:	af00      	add	r7, sp, #0
  40132e:	6078      	str	r0, [r7, #4]
  401330:	460b      	mov	r3, r1
  401332:	70fb      	strb	r3, [r7, #3]
	counts = 0;
  401334:	4b0c      	ldr	r3, [pc, #48]	; (401368 <write_wifi_command+0x40>)
  401336:	2200      	movs	r2, #0
  401338:	701a      	strb	r2, [r3, #0]
	// send a message via USART:
	//usart_write_line(BOARD_USART, "string to write\r\n");
	usart_write_line(BOARD_USART, comm);
  40133a:	6879      	ldr	r1, [r7, #4]
  40133c:	480b      	ldr	r0, [pc, #44]	; (40136c <write_wifi_command+0x44>)
  40133e:	4b0c      	ldr	r3, [pc, #48]	; (401370 <write_wifi_command+0x48>)
  401340:	4798      	blx	r3
	receivedMessage = NO_MESSAGE;
  401342:	4b0c      	ldr	r3, [pc, #48]	; (401374 <write_wifi_command+0x4c>)
  401344:	2200      	movs	r2, #0
  401346:	601a      	str	r2, [r3, #0]
	// Wait for timeout or received message
	while((counts<cnt)&&(receivedMessage==NO_MESSAGE)){
  401348:	bf00      	nop
  40134a:	4b07      	ldr	r3, [pc, #28]	; (401368 <write_wifi_command+0x40>)
  40134c:	781b      	ldrb	r3, [r3, #0]
  40134e:	b2db      	uxtb	r3, r3
  401350:	78fa      	ldrb	r2, [r7, #3]
  401352:	429a      	cmp	r2, r3
  401354:	d903      	bls.n	40135e <write_wifi_command+0x36>
  401356:	4b07      	ldr	r3, [pc, #28]	; (401374 <write_wifi_command+0x4c>)
  401358:	681b      	ldr	r3, [r3, #0]
  40135a:	2b00      	cmp	r3, #0
  40135c:	d0f5      	beq.n	40134a <write_wifi_command+0x22>
		// Action for if have received a message
	}
	else{
		// Action for if have not received a message
	}*/
}
  40135e:	bf00      	nop
  401360:	3708      	adds	r7, #8
  401362:	46bd      	mov	sp, r7
  401364:	bd80      	pop	{r7, pc}
  401366:	bf00      	nop
  401368:	200009ec 	.word	0x200009ec
  40136c:	40024000 	.word	0x40024000
  401370:	00401bd1 	.word	0x00401bd1
  401374:	200009f0 	.word	0x200009f0

00401378 <write_image_to_file>:
2. After the AMW136 acknowledges that it received your command, start streaming the image.
3. After the image is done sending, the AMW136 should say Complete? However, the command complete?pin will not have a rising edge, so it will be hard to sense. You can still try
to sense it before moving on, or simply insert a slight delay
*/
void write_image_to_file(void) 
{
  401378:	e92d 4ff0 	stmdb	sp!, {r4, r5, r6, r7, r8, r9, sl, fp, lr}
  40137c:	b09f      	sub	sp, #124	; 0x7c
  40137e:	af00      	add	r7, sp, #0
	strncpy(imageToTransfer,"1234",50);
	uint32_t img_length;
	img_length = strlen(imageToTransfer);*/
	
	// Make sure that the image is valid.
	if(find_image_len() != 0){
  401380:	4b5e      	ldr	r3, [pc, #376]	; (4014fc <write_image_to_file+0x184>)
  401382:	4798      	blx	r3
  401384:	4603      	mov	r3, r0
  401386:	2b00      	cmp	r3, #0
  401388:	f000 80b3 	beq.w	4014f2 <write_image_to_file+0x17a>
		char sendString[80];
		for(int ii = 0; ii<80; ii++){
  40138c:	2300      	movs	r3, #0
  40138e:	677b      	str	r3, [r7, #116]	; 0x74
  401390:	e008      	b.n	4013a4 <write_image_to_file+0x2c>
			sendString[ii] = 0;
  401392:	f107 021c 	add.w	r2, r7, #28
  401396:	6f7b      	ldr	r3, [r7, #116]	; 0x74
  401398:	441a      	add	r2, r3
  40139a:	2300      	movs	r3, #0
  40139c:	7013      	strb	r3, [r2, #0]
		for(int ii = 0; ii<80; ii++){
  40139e:	6f7b      	ldr	r3, [r7, #116]	; 0x74
  4013a0:	3301      	adds	r3, #1
  4013a2:	677b      	str	r3, [r7, #116]	; 0x74
  4013a4:	6f7b      	ldr	r3, [r7, #116]	; 0x74
  4013a6:	2b4f      	cmp	r3, #79	; 0x4f
  4013a8:	ddf3      	ble.n	401392 <write_image_to_file+0x1a>
    	}
		sprintf(sendString, "image_transfer %d\r\n",find_image_len());
  4013aa:	4b54      	ldr	r3, [pc, #336]	; (4014fc <write_image_to_file+0x184>)
  4013ac:	4798      	blx	r3
  4013ae:	4603      	mov	r3, r0
  4013b0:	461a      	mov	r2, r3
  4013b2:	f107 031c 	add.w	r3, r7, #28
  4013b6:	4952      	ldr	r1, [pc, #328]	; (401500 <write_image_to_file+0x188>)
  4013b8:	4618      	mov	r0, r3
  4013ba:	4b52      	ldr	r3, [pc, #328]	; (401504 <write_image_to_file+0x18c>)
  4013bc:	4798      	blx	r3
		write_wifi_command(&sendString, 5);
  4013be:	f107 031c 	add.w	r3, r7, #28
  4013c2:	2105      	movs	r1, #5
  4013c4:	4618      	mov	r0, r3
  4013c6:	4b50      	ldr	r3, [pc, #320]	; (401508 <write_image_to_file+0x190>)
  4013c8:	4798      	blx	r3
		
		// only send the image if the wifi chip is ready for it
		if(receivedMessage==START_TRANSFER){
  4013ca:	4b50      	ldr	r3, [pc, #320]	; (40150c <write_image_to_file+0x194>)
  4013cc:	681b      	ldr	r3, [r3, #0]
  4013ce:	2b02      	cmp	r3, #2
  4013d0:	d14b      	bne.n	40146a <write_image_to_file+0xf2>
			write_wifi_command(&g_p_uc_cap_dest_buf,0);
  4013d2:	2100      	movs	r1, #0
  4013d4:	484e      	ldr	r0, [pc, #312]	; (401510 <write_image_to_file+0x198>)
  4013d6:	4b4c      	ldr	r3, [pc, #304]	; (401508 <write_image_to_file+0x190>)
  4013d8:	4798      	blx	r3
			delay_ms(1000);
  4013da:	4b4e      	ldr	r3, [pc, #312]	; (401514 <write_image_to_file+0x19c>)
  4013dc:	4798      	blx	r3
  4013de:	4603      	mov	r3, r0
  4013e0:	4619      	mov	r1, r3
  4013e2:	f04f 0200 	mov.w	r2, #0
  4013e6:	460b      	mov	r3, r1
  4013e8:	4614      	mov	r4, r2
  4013ea:	0160      	lsls	r0, r4, #5
  4013ec:	6178      	str	r0, [r7, #20]
  4013ee:	6978      	ldr	r0, [r7, #20]
  4013f0:	ea40 60d3 	orr.w	r0, r0, r3, lsr #27
  4013f4:	6178      	str	r0, [r7, #20]
  4013f6:	015b      	lsls	r3, r3, #5
  4013f8:	613b      	str	r3, [r7, #16]
  4013fa:	e9d7 3404 	ldrd	r3, r4, [r7, #16]
  4013fe:	1a5b      	subs	r3, r3, r1
  401400:	eb64 0402 	sbc.w	r4, r4, r2
  401404:	00a0      	lsls	r0, r4, #2
  401406:	60f8      	str	r0, [r7, #12]
  401408:	68f8      	ldr	r0, [r7, #12]
  40140a:	ea40 7093 	orr.w	r0, r0, r3, lsr #30
  40140e:	60f8      	str	r0, [r7, #12]
  401410:	009b      	lsls	r3, r3, #2
  401412:	60bb      	str	r3, [r7, #8]
  401414:	e9d7 3402 	ldrd	r3, r4, [r7, #8]
  401418:	185b      	adds	r3, r3, r1
  40141a:	eb44 0402 	adc.w	r4, r4, r2
  40141e:	00e2      	lsls	r2, r4, #3
  401420:	607a      	str	r2, [r7, #4]
  401422:	687a      	ldr	r2, [r7, #4]
  401424:	ea42 7253 	orr.w	r2, r2, r3, lsr #29
  401428:	607a      	str	r2, [r7, #4]
  40142a:	00db      	lsls	r3, r3, #3
  40142c:	603b      	str	r3, [r7, #0]
  40142e:	e9d7 3400 	ldrd	r3, r4, [r7]
  401432:	4619      	mov	r1, r3
  401434:	4622      	mov	r2, r4
  401436:	f243 63af 	movw	r3, #13999	; 0x36af
  40143a:	f04f 0400 	mov.w	r4, #0
  40143e:	18cd      	adds	r5, r1, r3
  401440:	eb42 0604 	adc.w	r6, r2, r4
  401444:	4628      	mov	r0, r5
  401446:	4631      	mov	r1, r6
  401448:	4c33      	ldr	r4, [pc, #204]	; (401518 <write_image_to_file+0x1a0>)
  40144a:	f243 62b0 	movw	r2, #14000	; 0x36b0
  40144e:	f04f 0300 	mov.w	r3, #0
  401452:	47a0      	blx	r4
  401454:	4603      	mov	r3, r0
  401456:	460c      	mov	r4, r1
  401458:	4618      	mov	r0, r3
  40145a:	4b30      	ldr	r3, [pc, #192]	; (40151c <write_image_to_file+0x1a4>)
  40145c:	4798      	blx	r3
			int j = 1;
  40145e:	2301      	movs	r3, #1
  401460:	673b      	str	r3, [r7, #112]	; 0x70
			j++;
  401462:	6f3b      	ldr	r3, [r7, #112]	; 0x70
  401464:	3301      	adds	r3, #1
  401466:	673b      	str	r3, [r7, #112]	; 0x70
			}  					
    	}
	}
	else{
	}
  401468:	e043      	b.n	4014f2 <write_image_to_file+0x17a>
			if(receivedMessage==CLIENT_NOT_CONNECTED){
  40146a:	4b28      	ldr	r3, [pc, #160]	; (40150c <write_image_to_file+0x194>)
  40146c:	681b      	ldr	r3, [r3, #0]
  40146e:	2b04      	cmp	r3, #4
  401470:	d13a      	bne.n	4014e8 <write_image_to_file+0x170>
				delay_ms(500);
  401472:	4b28      	ldr	r3, [pc, #160]	; (401514 <write_image_to_file+0x19c>)
  401474:	4798      	blx	r3
  401476:	4603      	mov	r3, r0
  401478:	4619      	mov	r1, r3
  40147a:	f04f 0200 	mov.w	r2, #0
  40147e:	460b      	mov	r3, r1
  401480:	4614      	mov	r4, r2
  401482:	ea4f 1b44 	mov.w	fp, r4, lsl #5
  401486:	ea4b 6bd3 	orr.w	fp, fp, r3, lsr #27
  40148a:	ea4f 1a43 	mov.w	sl, r3, lsl #5
  40148e:	4653      	mov	r3, sl
  401490:	465c      	mov	r4, fp
  401492:	1a5b      	subs	r3, r3, r1
  401494:	eb64 0402 	sbc.w	r4, r4, r2
  401498:	ea4f 0984 	mov.w	r9, r4, lsl #2
  40149c:	ea49 7993 	orr.w	r9, r9, r3, lsr #30
  4014a0:	ea4f 0883 	mov.w	r8, r3, lsl #2
  4014a4:	4643      	mov	r3, r8
  4014a6:	464c      	mov	r4, r9
  4014a8:	185b      	adds	r3, r3, r1
  4014aa:	eb44 0402 	adc.w	r4, r4, r2
  4014ae:	00a6      	lsls	r6, r4, #2
  4014b0:	ea46 7693 	orr.w	r6, r6, r3, lsr #30
  4014b4:	009d      	lsls	r5, r3, #2
  4014b6:	462b      	mov	r3, r5
  4014b8:	4634      	mov	r4, r6
  4014ba:	4619      	mov	r1, r3
  4014bc:	4622      	mov	r2, r4
  4014be:	f243 63af 	movw	r3, #13999	; 0x36af
  4014c2:	f04f 0400 	mov.w	r4, #0
  4014c6:	18cd      	adds	r5, r1, r3
  4014c8:	eb42 0604 	adc.w	r6, r2, r4
  4014cc:	4628      	mov	r0, r5
  4014ce:	4631      	mov	r1, r6
  4014d0:	4c11      	ldr	r4, [pc, #68]	; (401518 <write_image_to_file+0x1a0>)
  4014d2:	f243 62b0 	movw	r2, #14000	; 0x36b0
  4014d6:	f04f 0300 	mov.w	r3, #0
  4014da:	47a0      	blx	r4
  4014dc:	4603      	mov	r3, r0
  4014de:	460c      	mov	r4, r1
  4014e0:	4618      	mov	r0, r3
  4014e2:	4b0e      	ldr	r3, [pc, #56]	; (40151c <write_image_to_file+0x1a4>)
  4014e4:	4798      	blx	r3
  4014e6:	e004      	b.n	4014f2 <write_image_to_file+0x17a>
				int i = 1;
  4014e8:	2301      	movs	r3, #1
  4014ea:	66fb      	str	r3, [r7, #108]	; 0x6c
				i++;
  4014ec:	6efb      	ldr	r3, [r7, #108]	; 0x6c
  4014ee:	3301      	adds	r3, #1
  4014f0:	66fb      	str	r3, [r7, #108]	; 0x6c
  4014f2:	bf00      	nop
  4014f4:	377c      	adds	r7, #124	; 0x7c
  4014f6:	46bd      	mov	sp, r7
  4014f8:	e8bd 8ff0 	ldmia.w	sp!, {r4, r5, r6, r7, r8, r9, sl, fp, pc}
  4014fc:	00400879 	.word	0x00400879
  401500:	00408e8c 	.word	0x00408e8c
  401504:	00403701 	.word	0x00403701
  401508:	00401329 	.word	0x00401329
  40150c:	200009f0 	.word	0x200009f0
  401510:	20000aac 	.word	0x20000aac
  401514:	00401019 	.word	0x00401019
  401518:	00403305 	.word	0x00403305
  40151c:	20000001 	.word	0x20000001

00401520 <twi_enable_master_mode>:
 * \brief Enable TWI master mode.
 *
 * \param p_twi Pointer to a TWI instance.
 */
void twi_enable_master_mode(Twi *p_twi)
{
  401520:	b480      	push	{r7}
  401522:	b083      	sub	sp, #12
  401524:	af00      	add	r7, sp, #0
  401526:	6078      	str	r0, [r7, #4]
	/* Set Master Disable bit and Slave Disable bit */
	p_twi->TWI_CR = TWI_CR_MSDIS;
  401528:	687b      	ldr	r3, [r7, #4]
  40152a:	2208      	movs	r2, #8
  40152c:	601a      	str	r2, [r3, #0]
	p_twi->TWI_CR = TWI_CR_SVDIS;
  40152e:	687b      	ldr	r3, [r7, #4]
  401530:	2220      	movs	r2, #32
  401532:	601a      	str	r2, [r3, #0]

	/* Set Master Enable bit */
	p_twi->TWI_CR = TWI_CR_MSEN;
  401534:	687b      	ldr	r3, [r7, #4]
  401536:	2204      	movs	r2, #4
  401538:	601a      	str	r2, [r3, #0]
}
  40153a:	bf00      	nop
  40153c:	370c      	adds	r7, #12
  40153e:	46bd      	mov	sp, r7
  401540:	bc80      	pop	{r7}
  401542:	4770      	bx	lr

00401544 <twi_master_init>:
 * \param p_opt Options for initializing the TWI module (see \ref twi_options_t).
 *
 * \return TWI_SUCCESS if initialization is complete, error code otherwise.
 */
uint32_t twi_master_init(Twi *p_twi, const twi_options_t *p_opt)
{
  401544:	b580      	push	{r7, lr}
  401546:	b084      	sub	sp, #16
  401548:	af00      	add	r7, sp, #0
  40154a:	6078      	str	r0, [r7, #4]
  40154c:	6039      	str	r1, [r7, #0]
	uint32_t status = TWI_SUCCESS;
  40154e:	2300      	movs	r3, #0
  401550:	60fb      	str	r3, [r7, #12]

	/* Disable TWI interrupts */
	p_twi->TWI_IDR = ~0UL;
  401552:	687b      	ldr	r3, [r7, #4]
  401554:	f04f 32ff 	mov.w	r2, #4294967295
  401558:	629a      	str	r2, [r3, #40]	; 0x28

	/* Dummy read in status register */
	p_twi->TWI_SR;
  40155a:	687b      	ldr	r3, [r7, #4]
  40155c:	6a1b      	ldr	r3, [r3, #32]

	/* Reset TWI peripheral */
	twi_reset(p_twi);
  40155e:	6878      	ldr	r0, [r7, #4]
  401560:	4b0e      	ldr	r3, [pc, #56]	; (40159c <twi_master_init+0x58>)
  401562:	4798      	blx	r3

	twi_enable_master_mode(p_twi);
  401564:	6878      	ldr	r0, [r7, #4]
  401566:	4b0e      	ldr	r3, [pc, #56]	; (4015a0 <twi_master_init+0x5c>)
  401568:	4798      	blx	r3

	/* Select the speed */
	if (twi_set_speed(p_twi, p_opt->speed, p_opt->master_clk) == FAIL) {
  40156a:	683b      	ldr	r3, [r7, #0]
  40156c:	6859      	ldr	r1, [r3, #4]
  40156e:	683b      	ldr	r3, [r7, #0]
  401570:	681b      	ldr	r3, [r3, #0]
  401572:	461a      	mov	r2, r3
  401574:	6878      	ldr	r0, [r7, #4]
  401576:	4b0b      	ldr	r3, [pc, #44]	; (4015a4 <twi_master_init+0x60>)
  401578:	4798      	blx	r3
  40157a:	4603      	mov	r3, r0
  40157c:	2b01      	cmp	r3, #1
  40157e:	d101      	bne.n	401584 <twi_master_init+0x40>
		/* The desired speed setting is rejected */
		status = TWI_INVALID_ARGUMENT;
  401580:	2301      	movs	r3, #1
  401582:	60fb      	str	r3, [r7, #12]
	}

	if (p_opt->smbus == 1) {
  401584:	683b      	ldr	r3, [r7, #0]
  401586:	7a5b      	ldrb	r3, [r3, #9]
  401588:	2b01      	cmp	r3, #1
  40158a:	d102      	bne.n	401592 <twi_master_init+0x4e>
		p_twi->TWI_CR = TWI_CR_QUICK;
  40158c:	687b      	ldr	r3, [r7, #4]
  40158e:	2240      	movs	r2, #64	; 0x40
  401590:	601a      	str	r2, [r3, #0]
	}

	return status;
  401592:	68fb      	ldr	r3, [r7, #12]
}
  401594:	4618      	mov	r0, r3
  401596:	3710      	adds	r7, #16
  401598:	46bd      	mov	sp, r7
  40159a:	bd80      	pop	{r7, pc}
  40159c:	004018e1 	.word	0x004018e1
  4015a0:	00401521 	.word	0x00401521
  4015a4:	004015a9 	.word	0x004015a9

004015a8 <twi_set_speed>:
 *
 * \retval PASS New speed setting is accepted.
 * \retval FAIL New speed setting is rejected.
 */
uint32_t twi_set_speed(Twi *p_twi, uint32_t ul_speed, uint32_t ul_mck)
{
  4015a8:	b480      	push	{r7}
  4015aa:	b089      	sub	sp, #36	; 0x24
  4015ac:	af00      	add	r7, sp, #0
  4015ae:	60f8      	str	r0, [r7, #12]
  4015b0:	60b9      	str	r1, [r7, #8]
  4015b2:	607a      	str	r2, [r7, #4]
	uint32_t ckdiv = 0;
  4015b4:	2300      	movs	r3, #0
  4015b6:	61fb      	str	r3, [r7, #28]
	uint32_t c_lh_div;
	uint32_t cldiv, chdiv;

	if (ul_speed > I2C_FAST_MODE_SPEED) {
  4015b8:	68bb      	ldr	r3, [r7, #8]
  4015ba:	4a34      	ldr	r2, [pc, #208]	; (40168c <twi_set_speed+0xe4>)
  4015bc:	4293      	cmp	r3, r2
  4015be:	d901      	bls.n	4015c4 <twi_set_speed+0x1c>
		return FAIL;
  4015c0:	2301      	movs	r3, #1
  4015c2:	e05d      	b.n	401680 <twi_set_speed+0xd8>
	}

	/* Low level time not less than 1.3us of I2C Fast Mode. */
	if (ul_speed > LOW_LEVEL_TIME_LIMIT) {
  4015c4:	68bb      	ldr	r3, [r7, #8]
  4015c6:	4a32      	ldr	r2, [pc, #200]	; (401690 <twi_set_speed+0xe8>)
  4015c8:	4293      	cmp	r3, r2
  4015ca:	d937      	bls.n	40163c <twi_set_speed+0x94>
		/* Low level of time fixed for 1.3us. */
		cldiv = ul_mck / (LOW_LEVEL_TIME_LIMIT * TWI_CLK_DIVIDER) - TWI_CLK_CALC_ARGU;
  4015cc:	687b      	ldr	r3, [r7, #4]
  4015ce:	4a31      	ldr	r2, [pc, #196]	; (401694 <twi_set_speed+0xec>)
  4015d0:	fba2 2303 	umull	r2, r3, r2, r3
  4015d4:	0b9b      	lsrs	r3, r3, #14
  4015d6:	3b04      	subs	r3, #4
  4015d8:	617b      	str	r3, [r7, #20]
		chdiv = ul_mck / ((ul_speed + (ul_speed - LOW_LEVEL_TIME_LIMIT)) * TWI_CLK_DIVIDER) - TWI_CLK_CALC_ARGU;
  4015da:	68ba      	ldr	r2, [r7, #8]
  4015dc:	4b2e      	ldr	r3, [pc, #184]	; (401698 <twi_set_speed+0xf0>)
  4015de:	4413      	add	r3, r2
  4015e0:	009b      	lsls	r3, r3, #2
  4015e2:	687a      	ldr	r2, [r7, #4]
  4015e4:	fbb2 f3f3 	udiv	r3, r2, r3
  4015e8:	3b04      	subs	r3, #4
  4015ea:	613b      	str	r3, [r7, #16]
		
		/* cldiv must fit in 8 bits, ckdiv must fit in 3 bits */
		while ((cldiv > TWI_CLK_DIV_MAX) && (ckdiv < TWI_CLK_DIV_MIN)) {
  4015ec:	e005      	b.n	4015fa <twi_set_speed+0x52>
			/* Increase clock divider */
			ckdiv++;
  4015ee:	69fb      	ldr	r3, [r7, #28]
  4015f0:	3301      	adds	r3, #1
  4015f2:	61fb      	str	r3, [r7, #28]
			/* Divide cldiv value */
			cldiv /= TWI_CLK_DIVIDER;
  4015f4:	697b      	ldr	r3, [r7, #20]
  4015f6:	085b      	lsrs	r3, r3, #1
  4015f8:	617b      	str	r3, [r7, #20]
		while ((cldiv > TWI_CLK_DIV_MAX) && (ckdiv < TWI_CLK_DIV_MIN)) {
  4015fa:	697b      	ldr	r3, [r7, #20]
  4015fc:	2bff      	cmp	r3, #255	; 0xff
  4015fe:	d909      	bls.n	401614 <twi_set_speed+0x6c>
  401600:	69fb      	ldr	r3, [r7, #28]
  401602:	2b06      	cmp	r3, #6
  401604:	d9f3      	bls.n	4015ee <twi_set_speed+0x46>
		}
		/* chdiv must fit in 8 bits, ckdiv must fit in 3 bits */
		while ((chdiv > TWI_CLK_DIV_MAX) && (ckdiv < TWI_CLK_DIV_MIN)) {
  401606:	e005      	b.n	401614 <twi_set_speed+0x6c>
			/* Increase clock divider */
			ckdiv++;
  401608:	69fb      	ldr	r3, [r7, #28]
  40160a:	3301      	adds	r3, #1
  40160c:	61fb      	str	r3, [r7, #28]
			/* Divide cldiv value */
			chdiv /= TWI_CLK_DIVIDER;
  40160e:	693b      	ldr	r3, [r7, #16]
  401610:	085b      	lsrs	r3, r3, #1
  401612:	613b      	str	r3, [r7, #16]
		while ((chdiv > TWI_CLK_DIV_MAX) && (ckdiv < TWI_CLK_DIV_MIN)) {
  401614:	693b      	ldr	r3, [r7, #16]
  401616:	2bff      	cmp	r3, #255	; 0xff
  401618:	d902      	bls.n	401620 <twi_set_speed+0x78>
  40161a:	69fb      	ldr	r3, [r7, #28]
  40161c:	2b06      	cmp	r3, #6
  40161e:	d9f3      	bls.n	401608 <twi_set_speed+0x60>
		}

		/* set clock waveform generator register */
		p_twi->TWI_CWGR =
				TWI_CWGR_CLDIV(cldiv) | TWI_CWGR_CHDIV(chdiv) |
  401620:	697b      	ldr	r3, [r7, #20]
  401622:	b2da      	uxtb	r2, r3
  401624:	693b      	ldr	r3, [r7, #16]
  401626:	021b      	lsls	r3, r3, #8
  401628:	b29b      	uxth	r3, r3
  40162a:	431a      	orrs	r2, r3
				TWI_CWGR_CKDIV(ckdiv);		
  40162c:	69fb      	ldr	r3, [r7, #28]
  40162e:	041b      	lsls	r3, r3, #16
  401630:	f403 23e0 	and.w	r3, r3, #458752	; 0x70000
				TWI_CWGR_CLDIV(cldiv) | TWI_CWGR_CHDIV(chdiv) |
  401634:	431a      	orrs	r2, r3
		p_twi->TWI_CWGR =
  401636:	68fb      	ldr	r3, [r7, #12]
  401638:	611a      	str	r2, [r3, #16]
  40163a:	e020      	b.n	40167e <twi_set_speed+0xd6>
	} else {
		c_lh_div = ul_mck / (ul_speed * TWI_CLK_DIVIDER) - TWI_CLK_CALC_ARGU;
  40163c:	68bb      	ldr	r3, [r7, #8]
  40163e:	005b      	lsls	r3, r3, #1
  401640:	687a      	ldr	r2, [r7, #4]
  401642:	fbb2 f3f3 	udiv	r3, r2, r3
  401646:	3b04      	subs	r3, #4
  401648:	61bb      	str	r3, [r7, #24]

		/* cldiv must fit in 8 bits, ckdiv must fit in 3 bits */
		while ((c_lh_div > TWI_CLK_DIV_MAX) && (ckdiv < TWI_CLK_DIV_MIN)) {
  40164a:	e005      	b.n	401658 <twi_set_speed+0xb0>
			/* Increase clock divider */
			ckdiv++;
  40164c:	69fb      	ldr	r3, [r7, #28]
  40164e:	3301      	adds	r3, #1
  401650:	61fb      	str	r3, [r7, #28]
			/* Divide cldiv value */
			c_lh_div /= TWI_CLK_DIVIDER;
  401652:	69bb      	ldr	r3, [r7, #24]
  401654:	085b      	lsrs	r3, r3, #1
  401656:	61bb      	str	r3, [r7, #24]
		while ((c_lh_div > TWI_CLK_DIV_MAX) && (ckdiv < TWI_CLK_DIV_MIN)) {
  401658:	69bb      	ldr	r3, [r7, #24]
  40165a:	2bff      	cmp	r3, #255	; 0xff
  40165c:	d902      	bls.n	401664 <twi_set_speed+0xbc>
  40165e:	69fb      	ldr	r3, [r7, #28]
  401660:	2b06      	cmp	r3, #6
  401662:	d9f3      	bls.n	40164c <twi_set_speed+0xa4>
		}

		/* set clock waveform generator register */
		p_twi->TWI_CWGR =
				TWI_CWGR_CLDIV(c_lh_div) | TWI_CWGR_CHDIV(c_lh_div) |
  401664:	69bb      	ldr	r3, [r7, #24]
  401666:	b2da      	uxtb	r2, r3
  401668:	69bb      	ldr	r3, [r7, #24]
  40166a:	021b      	lsls	r3, r3, #8
  40166c:	b29b      	uxth	r3, r3
  40166e:	431a      	orrs	r2, r3
				TWI_CWGR_CKDIV(ckdiv);
  401670:	69fb      	ldr	r3, [r7, #28]
  401672:	041b      	lsls	r3, r3, #16
  401674:	f403 23e0 	and.w	r3, r3, #458752	; 0x70000
				TWI_CWGR_CLDIV(c_lh_div) | TWI_CWGR_CHDIV(c_lh_div) |
  401678:	431a      	orrs	r2, r3
		p_twi->TWI_CWGR =
  40167a:	68fb      	ldr	r3, [r7, #12]
  40167c:	611a      	str	r2, [r3, #16]
	}

	return PASS;
  40167e:	2300      	movs	r3, #0
}
  401680:	4618      	mov	r0, r3
  401682:	3724      	adds	r7, #36	; 0x24
  401684:	46bd      	mov	sp, r7
  401686:	bc80      	pop	{r7}
  401688:	4770      	bx	lr
  40168a:	bf00      	nop
  40168c:	00061a80 	.word	0x00061a80
  401690:	0005dc00 	.word	0x0005dc00
  401694:	057619f1 	.word	0x057619f1
  401698:	3ffd1200 	.word	0x3ffd1200

0040169c <twi_mk_addr>:
 * which byte is the MSB to start with.
 *
 * Please see the device datasheet for details on this.
 */
uint32_t twi_mk_addr(const uint8_t *addr, int len)
{
  40169c:	b480      	push	{r7}
  40169e:	b085      	sub	sp, #20
  4016a0:	af00      	add	r7, sp, #0
  4016a2:	6078      	str	r0, [r7, #4]
  4016a4:	6039      	str	r1, [r7, #0]
	uint32_t val;

	if (len == 0)
  4016a6:	683b      	ldr	r3, [r7, #0]
  4016a8:	2b00      	cmp	r3, #0
  4016aa:	d101      	bne.n	4016b0 <twi_mk_addr+0x14>
		return 0;
  4016ac:	2300      	movs	r3, #0
  4016ae:	e01d      	b.n	4016ec <twi_mk_addr+0x50>

	val = addr[0];
  4016b0:	687b      	ldr	r3, [r7, #4]
  4016b2:	781b      	ldrb	r3, [r3, #0]
  4016b4:	60fb      	str	r3, [r7, #12]
	if (len > 1) {
  4016b6:	683b      	ldr	r3, [r7, #0]
  4016b8:	2b01      	cmp	r3, #1
  4016ba:	dd09      	ble.n	4016d0 <twi_mk_addr+0x34>
		val <<= 8;
  4016bc:	68fb      	ldr	r3, [r7, #12]
  4016be:	021b      	lsls	r3, r3, #8
  4016c0:	60fb      	str	r3, [r7, #12]
		val |= addr[1];
  4016c2:	687b      	ldr	r3, [r7, #4]
  4016c4:	3301      	adds	r3, #1
  4016c6:	781b      	ldrb	r3, [r3, #0]
  4016c8:	461a      	mov	r2, r3
  4016ca:	68fb      	ldr	r3, [r7, #12]
  4016cc:	4313      	orrs	r3, r2
  4016ce:	60fb      	str	r3, [r7, #12]
	}
	if (len > 2) {
  4016d0:	683b      	ldr	r3, [r7, #0]
  4016d2:	2b02      	cmp	r3, #2
  4016d4:	dd09      	ble.n	4016ea <twi_mk_addr+0x4e>
		val <<= 8;
  4016d6:	68fb      	ldr	r3, [r7, #12]
  4016d8:	021b      	lsls	r3, r3, #8
  4016da:	60fb      	str	r3, [r7, #12]
		val |= addr[2];
  4016dc:	687b      	ldr	r3, [r7, #4]
  4016de:	3302      	adds	r3, #2
  4016e0:	781b      	ldrb	r3, [r3, #0]
  4016e2:	461a      	mov	r2, r3
  4016e4:	68fb      	ldr	r3, [r7, #12]
  4016e6:	4313      	orrs	r3, r2
  4016e8:	60fb      	str	r3, [r7, #12]
	}
	return val;
  4016ea:	68fb      	ldr	r3, [r7, #12]
}
  4016ec:	4618      	mov	r0, r3
  4016ee:	3714      	adds	r7, #20
  4016f0:	46bd      	mov	sp, r7
  4016f2:	bc80      	pop	{r7}
  4016f4:	4770      	bx	lr
	...

004016f8 <twi_master_read>:
 * \param p_packet Packet information and data (see \ref twi_packet_t).
 *
 * \return TWI_SUCCESS if all bytes were read, error code otherwise.
 */
uint32_t twi_master_read(Twi *p_twi, twi_packet_t *p_packet)
{
  4016f8:	b580      	push	{r7, lr}
  4016fa:	b088      	sub	sp, #32
  4016fc:	af00      	add	r7, sp, #0
  4016fe:	6078      	str	r0, [r7, #4]
  401700:	6039      	str	r1, [r7, #0]
	uint32_t status;
	uint32_t cnt = p_packet->length;
  401702:	683b      	ldr	r3, [r7, #0]
  401704:	68db      	ldr	r3, [r3, #12]
  401706:	61fb      	str	r3, [r7, #28]
	uint8_t *buffer = p_packet->buffer;
  401708:	683b      	ldr	r3, [r7, #0]
  40170a:	689b      	ldr	r3, [r3, #8]
  40170c:	61bb      	str	r3, [r7, #24]
	uint8_t stop_sent = 0;
  40170e:	2300      	movs	r3, #0
  401710:	75fb      	strb	r3, [r7, #23]
	uint32_t timeout = TWI_TIMEOUT;;
  401712:	f247 5330 	movw	r3, #30000	; 0x7530
  401716:	613b      	str	r3, [r7, #16]
	
	/* Check argument */
	if (cnt == 0) {
  401718:	69fb      	ldr	r3, [r7, #28]
  40171a:	2b00      	cmp	r3, #0
  40171c:	d101      	bne.n	401722 <twi_master_read+0x2a>
		return TWI_INVALID_ARGUMENT;
  40171e:	2301      	movs	r3, #1
  401720:	e069      	b.n	4017f6 <twi_master_read+0xfe>
	}

	/* Set read mode, slave address and 3 internal address byte lengths */
	p_twi->TWI_MMR = 0;
  401722:	687b      	ldr	r3, [r7, #4]
  401724:	2200      	movs	r2, #0
  401726:	605a      	str	r2, [r3, #4]
	p_twi->TWI_MMR = TWI_MMR_MREAD | TWI_MMR_DADR(p_packet->chip) |
  401728:	683b      	ldr	r3, [r7, #0]
  40172a:	7c1b      	ldrb	r3, [r3, #16]
  40172c:	041b      	lsls	r3, r3, #16
  40172e:	f403 02fe 	and.w	r2, r3, #8323072	; 0x7f0000
			((p_packet->addr_length << TWI_MMR_IADRSZ_Pos) &
  401732:	683b      	ldr	r3, [r7, #0]
  401734:	685b      	ldr	r3, [r3, #4]
  401736:	021b      	lsls	r3, r3, #8
  401738:	f403 7340 	and.w	r3, r3, #768	; 0x300
	p_twi->TWI_MMR = TWI_MMR_MREAD | TWI_MMR_DADR(p_packet->chip) |
  40173c:	4313      	orrs	r3, r2
  40173e:	f443 5280 	orr.w	r2, r3, #4096	; 0x1000
  401742:	687b      	ldr	r3, [r7, #4]
  401744:	605a      	str	r2, [r3, #4]
			TWI_MMR_IADRSZ_Msk);

	/* Set internal address for remote chip */
	p_twi->TWI_IADR = 0;
  401746:	687b      	ldr	r3, [r7, #4]
  401748:	2200      	movs	r2, #0
  40174a:	60da      	str	r2, [r3, #12]
	p_twi->TWI_IADR = twi_mk_addr(p_packet->addr, p_packet->addr_length);
  40174c:	683a      	ldr	r2, [r7, #0]
  40174e:	683b      	ldr	r3, [r7, #0]
  401750:	685b      	ldr	r3, [r3, #4]
  401752:	4619      	mov	r1, r3
  401754:	4610      	mov	r0, r2
  401756:	4b2a      	ldr	r3, [pc, #168]	; (401800 <twi_master_read+0x108>)
  401758:	4798      	blx	r3
  40175a:	4602      	mov	r2, r0
  40175c:	687b      	ldr	r3, [r7, #4]
  40175e:	60da      	str	r2, [r3, #12]

	/* Send a START condition */
	if (cnt == 1) {
  401760:	69fb      	ldr	r3, [r7, #28]
  401762:	2b01      	cmp	r3, #1
  401764:	d105      	bne.n	401772 <twi_master_read+0x7a>
		p_twi->TWI_CR = TWI_CR_START | TWI_CR_STOP;
  401766:	687b      	ldr	r3, [r7, #4]
  401768:	2203      	movs	r2, #3
  40176a:	601a      	str	r2, [r3, #0]
		stop_sent = 1;
  40176c:	2301      	movs	r3, #1
  40176e:	75fb      	strb	r3, [r7, #23]
  401770:	e034      	b.n	4017dc <twi_master_read+0xe4>
	} else {
		p_twi->TWI_CR = TWI_CR_START;
  401772:	687b      	ldr	r3, [r7, #4]
  401774:	2201      	movs	r2, #1
  401776:	601a      	str	r2, [r3, #0]
		stop_sent = 0;
  401778:	2300      	movs	r3, #0
  40177a:	75fb      	strb	r3, [r7, #23]
	}

	while (cnt > 0) {
  40177c:	e02e      	b.n	4017dc <twi_master_read+0xe4>
		status = p_twi->TWI_SR;
  40177e:	687b      	ldr	r3, [r7, #4]
  401780:	6a1b      	ldr	r3, [r3, #32]
  401782:	60fb      	str	r3, [r7, #12]
		if (status & TWI_SR_NACK) {
  401784:	68fb      	ldr	r3, [r7, #12]
  401786:	f403 7380 	and.w	r3, r3, #256	; 0x100
  40178a:	2b00      	cmp	r3, #0
  40178c:	d001      	beq.n	401792 <twi_master_read+0x9a>
			return TWI_RECEIVE_NACK;
  40178e:	2305      	movs	r3, #5
  401790:	e031      	b.n	4017f6 <twi_master_read+0xfe>
		}

		if (!timeout--) {
  401792:	693b      	ldr	r3, [r7, #16]
  401794:	1e5a      	subs	r2, r3, #1
  401796:	613a      	str	r2, [r7, #16]
  401798:	2b00      	cmp	r3, #0
  40179a:	d101      	bne.n	4017a0 <twi_master_read+0xa8>
			return TWI_ERROR_TIMEOUT;
  40179c:	2309      	movs	r3, #9
  40179e:	e02a      	b.n	4017f6 <twi_master_read+0xfe>
		}
				
		/* Last byte ? */
		if (cnt == 1  && !stop_sent) {
  4017a0:	69fb      	ldr	r3, [r7, #28]
  4017a2:	2b01      	cmp	r3, #1
  4017a4:	d107      	bne.n	4017b6 <twi_master_read+0xbe>
  4017a6:	7dfb      	ldrb	r3, [r7, #23]
  4017a8:	2b00      	cmp	r3, #0
  4017aa:	d104      	bne.n	4017b6 <twi_master_read+0xbe>
			p_twi->TWI_CR = TWI_CR_STOP;
  4017ac:	687b      	ldr	r3, [r7, #4]
  4017ae:	2202      	movs	r2, #2
  4017b0:	601a      	str	r2, [r3, #0]
			stop_sent = 1;
  4017b2:	2301      	movs	r3, #1
  4017b4:	75fb      	strb	r3, [r7, #23]
		}

		if (!(status & TWI_SR_RXRDY)) {
  4017b6:	68fb      	ldr	r3, [r7, #12]
  4017b8:	f003 0302 	and.w	r3, r3, #2
  4017bc:	2b00      	cmp	r3, #0
  4017be:	d100      	bne.n	4017c2 <twi_master_read+0xca>
			continue;
  4017c0:	e00c      	b.n	4017dc <twi_master_read+0xe4>
		}
		*buffer++ = p_twi->TWI_RHR;
  4017c2:	69bb      	ldr	r3, [r7, #24]
  4017c4:	1c5a      	adds	r2, r3, #1
  4017c6:	61ba      	str	r2, [r7, #24]
  4017c8:	687a      	ldr	r2, [r7, #4]
  4017ca:	6b12      	ldr	r2, [r2, #48]	; 0x30
  4017cc:	b2d2      	uxtb	r2, r2
  4017ce:	701a      	strb	r2, [r3, #0]

		cnt--;
  4017d0:	69fb      	ldr	r3, [r7, #28]
  4017d2:	3b01      	subs	r3, #1
  4017d4:	61fb      	str	r3, [r7, #28]
		timeout = TWI_TIMEOUT;
  4017d6:	f247 5330 	movw	r3, #30000	; 0x7530
  4017da:	613b      	str	r3, [r7, #16]
	while (cnt > 0) {
  4017dc:	69fb      	ldr	r3, [r7, #28]
  4017de:	2b00      	cmp	r3, #0
  4017e0:	d1cd      	bne.n	40177e <twi_master_read+0x86>
	}

	while (!(p_twi->TWI_SR & TWI_SR_TXCOMP)) {
  4017e2:	bf00      	nop
  4017e4:	687b      	ldr	r3, [r7, #4]
  4017e6:	6a1b      	ldr	r3, [r3, #32]
  4017e8:	f003 0301 	and.w	r3, r3, #1
  4017ec:	2b00      	cmp	r3, #0
  4017ee:	d0f9      	beq.n	4017e4 <twi_master_read+0xec>
	}

	p_twi->TWI_SR;
  4017f0:	687b      	ldr	r3, [r7, #4]
  4017f2:	6a1b      	ldr	r3, [r3, #32]

	return TWI_SUCCESS;
  4017f4:	2300      	movs	r3, #0
}
  4017f6:	4618      	mov	r0, r3
  4017f8:	3720      	adds	r7, #32
  4017fa:	46bd      	mov	sp, r7
  4017fc:	bd80      	pop	{r7, pc}
  4017fe:	bf00      	nop
  401800:	0040169d 	.word	0x0040169d

00401804 <twi_master_write>:
 * \param p_packet Packet information and data (see \ref twi_packet_t).
 *
 * \return TWI_SUCCESS if all bytes were written, error code otherwise.
 */
uint32_t twi_master_write(Twi *p_twi, twi_packet_t *p_packet)
{
  401804:	b580      	push	{r7, lr}
  401806:	b086      	sub	sp, #24
  401808:	af00      	add	r7, sp, #0
  40180a:	6078      	str	r0, [r7, #4]
  40180c:	6039      	str	r1, [r7, #0]
	uint32_t status;
	uint32_t cnt = p_packet->length;
  40180e:	683b      	ldr	r3, [r7, #0]
  401810:	68db      	ldr	r3, [r3, #12]
  401812:	617b      	str	r3, [r7, #20]
	uint8_t *buffer = p_packet->buffer;
  401814:	683b      	ldr	r3, [r7, #0]
  401816:	689b      	ldr	r3, [r3, #8]
  401818:	613b      	str	r3, [r7, #16]

	/* Check argument */
	if (cnt == 0) {
  40181a:	697b      	ldr	r3, [r7, #20]
  40181c:	2b00      	cmp	r3, #0
  40181e:	d101      	bne.n	401824 <twi_master_write+0x20>
		return TWI_INVALID_ARGUMENT;
  401820:	2301      	movs	r3, #1
  401822:	e056      	b.n	4018d2 <twi_master_write+0xce>
	}

	/* Set write mode, slave address and 3 internal address byte lengths */
	p_twi->TWI_MMR = 0;
  401824:	687b      	ldr	r3, [r7, #4]
  401826:	2200      	movs	r2, #0
  401828:	605a      	str	r2, [r3, #4]
	p_twi->TWI_MMR = TWI_MMR_DADR(p_packet->chip) |
  40182a:	683b      	ldr	r3, [r7, #0]
  40182c:	7c1b      	ldrb	r3, [r3, #16]
  40182e:	041b      	lsls	r3, r3, #16
  401830:	f403 02fe 	and.w	r2, r3, #8323072	; 0x7f0000
			((p_packet->addr_length << TWI_MMR_IADRSZ_Pos) &
  401834:	683b      	ldr	r3, [r7, #0]
  401836:	685b      	ldr	r3, [r3, #4]
  401838:	021b      	lsls	r3, r3, #8
  40183a:	f403 7340 	and.w	r3, r3, #768	; 0x300
	p_twi->TWI_MMR = TWI_MMR_DADR(p_packet->chip) |
  40183e:	431a      	orrs	r2, r3
  401840:	687b      	ldr	r3, [r7, #4]
  401842:	605a      	str	r2, [r3, #4]
			TWI_MMR_IADRSZ_Msk);

	/* Set internal address for remote chip */
	p_twi->TWI_IADR = 0;
  401844:	687b      	ldr	r3, [r7, #4]
  401846:	2200      	movs	r2, #0
  401848:	60da      	str	r2, [r3, #12]
	p_twi->TWI_IADR = twi_mk_addr(p_packet->addr, p_packet->addr_length);
  40184a:	683a      	ldr	r2, [r7, #0]
  40184c:	683b      	ldr	r3, [r7, #0]
  40184e:	685b      	ldr	r3, [r3, #4]
  401850:	4619      	mov	r1, r3
  401852:	4610      	mov	r0, r2
  401854:	4b21      	ldr	r3, [pc, #132]	; (4018dc <twi_master_write+0xd8>)
  401856:	4798      	blx	r3
  401858:	4602      	mov	r2, r0
  40185a:	687b      	ldr	r3, [r7, #4]
  40185c:	60da      	str	r2, [r3, #12]

	/* Send all bytes */
	while (cnt > 0) {
  40185e:	e019      	b.n	401894 <twi_master_write+0x90>
		status = p_twi->TWI_SR;
  401860:	687b      	ldr	r3, [r7, #4]
  401862:	6a1b      	ldr	r3, [r3, #32]
  401864:	60fb      	str	r3, [r7, #12]
		if (status & TWI_SR_NACK) {
  401866:	68fb      	ldr	r3, [r7, #12]
  401868:	f403 7380 	and.w	r3, r3, #256	; 0x100
  40186c:	2b00      	cmp	r3, #0
  40186e:	d001      	beq.n	401874 <twi_master_write+0x70>
			return TWI_RECEIVE_NACK;
  401870:	2305      	movs	r3, #5
  401872:	e02e      	b.n	4018d2 <twi_master_write+0xce>
		}

		if (!(status & TWI_SR_TXRDY)) {
  401874:	68fb      	ldr	r3, [r7, #12]
  401876:	f003 0304 	and.w	r3, r3, #4
  40187a:	2b00      	cmp	r3, #0
  40187c:	d100      	bne.n	401880 <twi_master_write+0x7c>
			continue;
  40187e:	e009      	b.n	401894 <twi_master_write+0x90>
		}
		p_twi->TWI_THR = *buffer++;
  401880:	693b      	ldr	r3, [r7, #16]
  401882:	1c5a      	adds	r2, r3, #1
  401884:	613a      	str	r2, [r7, #16]
  401886:	781b      	ldrb	r3, [r3, #0]
  401888:	461a      	mov	r2, r3
  40188a:	687b      	ldr	r3, [r7, #4]
  40188c:	635a      	str	r2, [r3, #52]	; 0x34

		cnt--;
  40188e:	697b      	ldr	r3, [r7, #20]
  401890:	3b01      	subs	r3, #1
  401892:	617b      	str	r3, [r7, #20]
	while (cnt > 0) {
  401894:	697b      	ldr	r3, [r7, #20]
  401896:	2b00      	cmp	r3, #0
  401898:	d1e2      	bne.n	401860 <twi_master_write+0x5c>
	}

	while (1) {
		status = p_twi->TWI_SR;
  40189a:	687b      	ldr	r3, [r7, #4]
  40189c:	6a1b      	ldr	r3, [r3, #32]
  40189e:	60fb      	str	r3, [r7, #12]
		if (status & TWI_SR_NACK) {
  4018a0:	68fb      	ldr	r3, [r7, #12]
  4018a2:	f403 7380 	and.w	r3, r3, #256	; 0x100
  4018a6:	2b00      	cmp	r3, #0
  4018a8:	d001      	beq.n	4018ae <twi_master_write+0xaa>
			return TWI_RECEIVE_NACK;
  4018aa:	2305      	movs	r3, #5
  4018ac:	e011      	b.n	4018d2 <twi_master_write+0xce>
		}

		if (status & TWI_SR_TXRDY) {
  4018ae:	68fb      	ldr	r3, [r7, #12]
  4018b0:	f003 0304 	and.w	r3, r3, #4
  4018b4:	2b00      	cmp	r3, #0
  4018b6:	d100      	bne.n	4018ba <twi_master_write+0xb6>
		status = p_twi->TWI_SR;
  4018b8:	e7ef      	b.n	40189a <twi_master_write+0x96>
			break;
  4018ba:	bf00      	nop
		}
	}

	p_twi->TWI_CR = TWI_CR_STOP;
  4018bc:	687b      	ldr	r3, [r7, #4]
  4018be:	2202      	movs	r2, #2
  4018c0:	601a      	str	r2, [r3, #0]

	while (!(p_twi->TWI_SR & TWI_SR_TXCOMP)) {
  4018c2:	bf00      	nop
  4018c4:	687b      	ldr	r3, [r7, #4]
  4018c6:	6a1b      	ldr	r3, [r3, #32]
  4018c8:	f003 0301 	and.w	r3, r3, #1
  4018cc:	2b00      	cmp	r3, #0
  4018ce:	d0f9      	beq.n	4018c4 <twi_master_write+0xc0>
	}

	return TWI_SUCCESS;
  4018d0:	2300      	movs	r3, #0
}
  4018d2:	4618      	mov	r0, r3
  4018d4:	3718      	adds	r7, #24
  4018d6:	46bd      	mov	sp, r7
  4018d8:	bd80      	pop	{r7, pc}
  4018da:	bf00      	nop
  4018dc:	0040169d 	.word	0x0040169d

004018e0 <twi_reset>:
 * \brief Reset TWI.
 *
 * \param p_twi Pointer to a TWI instance.
 */
void twi_reset(Twi *p_twi)
{
  4018e0:	b480      	push	{r7}
  4018e2:	b083      	sub	sp, #12
  4018e4:	af00      	add	r7, sp, #0
  4018e6:	6078      	str	r0, [r7, #4]
	/* Set SWRST bit to reset TWI peripheral */
	p_twi->TWI_CR = TWI_CR_SWRST;
  4018e8:	687b      	ldr	r3, [r7, #4]
  4018ea:	2280      	movs	r2, #128	; 0x80
  4018ec:	601a      	str	r2, [r3, #0]
	p_twi->TWI_RHR;
  4018ee:	687b      	ldr	r3, [r7, #4]
  4018f0:	6b1b      	ldr	r3, [r3, #48]	; 0x30
}
  4018f2:	bf00      	nop
  4018f4:	370c      	adds	r7, #12
  4018f6:	46bd      	mov	sp, r7
  4018f8:	bc80      	pop	{r7}
  4018fa:	4770      	bx	lr

004018fc <usart_set_async_baudrate>:
 * \retval 1 Baud rate set point is out of range for the given input clock
 * frequency.
 */
uint32_t usart_set_async_baudrate(Usart *p_usart,
		uint32_t baudrate, uint32_t ul_mck)
{
  4018fc:	b480      	push	{r7}
  4018fe:	b089      	sub	sp, #36	; 0x24
  401900:	af00      	add	r7, sp, #0
  401902:	60f8      	str	r0, [r7, #12]
  401904:	60b9      	str	r1, [r7, #8]
  401906:	607a      	str	r2, [r7, #4]
	uint32_t cd_fp;
	uint32_t cd;
	uint32_t fp;

	/* Calculate the receiver sampling divide of baudrate clock. */
	if (ul_mck >= HIGH_FRQ_SAMPLE_DIV * baudrate) {
  401908:	68bb      	ldr	r3, [r7, #8]
  40190a:	011a      	lsls	r2, r3, #4
  40190c:	687b      	ldr	r3, [r7, #4]
  40190e:	429a      	cmp	r2, r3
  401910:	d802      	bhi.n	401918 <usart_set_async_baudrate+0x1c>
		over = HIGH_FRQ_SAMPLE_DIV;
  401912:	2310      	movs	r3, #16
  401914:	61fb      	str	r3, [r7, #28]
  401916:	e001      	b.n	40191c <usart_set_async_baudrate+0x20>
	} else {
		over = LOW_FRQ_SAMPLE_DIV;
  401918:	2308      	movs	r3, #8
  40191a:	61fb      	str	r3, [r7, #28]
	}

	/* Calculate clock divider according to the fraction calculated formula. */
	cd_fp = (8 * ul_mck + (over * baudrate) / 2) / (over * baudrate);
  40191c:	687b      	ldr	r3, [r7, #4]
  40191e:	00da      	lsls	r2, r3, #3
  401920:	69fb      	ldr	r3, [r7, #28]
  401922:	68b9      	ldr	r1, [r7, #8]
  401924:	fb01 f303 	mul.w	r3, r1, r3
  401928:	085b      	lsrs	r3, r3, #1
  40192a:	441a      	add	r2, r3
  40192c:	69fb      	ldr	r3, [r7, #28]
  40192e:	68b9      	ldr	r1, [r7, #8]
  401930:	fb01 f303 	mul.w	r3, r1, r3
  401934:	fbb2 f3f3 	udiv	r3, r2, r3
  401938:	61bb      	str	r3, [r7, #24]
	cd = cd_fp >> 3;
  40193a:	69bb      	ldr	r3, [r7, #24]
  40193c:	08db      	lsrs	r3, r3, #3
  40193e:	617b      	str	r3, [r7, #20]
	fp = cd_fp & 0x07;
  401940:	69bb      	ldr	r3, [r7, #24]
  401942:	f003 0307 	and.w	r3, r3, #7
  401946:	613b      	str	r3, [r7, #16]
	if (cd < MIN_CD_VALUE || cd > MAX_CD_VALUE) {
  401948:	697b      	ldr	r3, [r7, #20]
  40194a:	2b00      	cmp	r3, #0
  40194c:	d003      	beq.n	401956 <usart_set_async_baudrate+0x5a>
  40194e:	697b      	ldr	r3, [r7, #20]
  401950:	f5b3 3f80 	cmp.w	r3, #65536	; 0x10000
  401954:	d301      	bcc.n	40195a <usart_set_async_baudrate+0x5e>
		return 1;
  401956:	2301      	movs	r3, #1
  401958:	e00f      	b.n	40197a <usart_set_async_baudrate+0x7e>
	}

	/* Configure the OVER bit in MR register. */
	if (over == 8) {
  40195a:	69fb      	ldr	r3, [r7, #28]
  40195c:	2b08      	cmp	r3, #8
  40195e:	d105      	bne.n	40196c <usart_set_async_baudrate+0x70>
		p_usart->US_MR |= US_MR_OVER;
  401960:	68fb      	ldr	r3, [r7, #12]
  401962:	685b      	ldr	r3, [r3, #4]
  401964:	f443 2200 	orr.w	r2, r3, #524288	; 0x80000
  401968:	68fb      	ldr	r3, [r7, #12]
  40196a:	605a      	str	r2, [r3, #4]
	}

	/* Configure the baudrate generate register. */
	p_usart->US_BRGR = (cd << US_BRGR_CD_Pos) | (fp << US_BRGR_FP_Pos);
  40196c:	693b      	ldr	r3, [r7, #16]
  40196e:	041a      	lsls	r2, r3, #16
  401970:	697b      	ldr	r3, [r7, #20]
  401972:	431a      	orrs	r2, r3
  401974:	68fb      	ldr	r3, [r7, #12]
  401976:	621a      	str	r2, [r3, #32]

	return 0;
  401978:	2300      	movs	r3, #0
}
  40197a:	4618      	mov	r0, r3
  40197c:	3724      	adds	r7, #36	; 0x24
  40197e:	46bd      	mov	sp, r7
  401980:	bc80      	pop	{r7}
  401982:	4770      	bx	lr

00401984 <usart_reset>:
 * \brief Reset the USART and disable TX and RX.
 *
 * \param p_usart Pointer to a USART instance.
 */
void usart_reset(Usart *p_usart)
{
  401984:	b580      	push	{r7, lr}
  401986:	b082      	sub	sp, #8
  401988:	af00      	add	r7, sp, #0
  40198a:	6078      	str	r0, [r7, #4]
	/* Disable the Write Protect. */
	usart_disable_writeprotect(p_usart);
  40198c:	6878      	ldr	r0, [r7, #4]
  40198e:	4b0f      	ldr	r3, [pc, #60]	; (4019cc <usart_reset+0x48>)
  401990:	4798      	blx	r3

	/* Reset registers that could cause unpredictable behavior after reset. */
	p_usart->US_MR = 0;
  401992:	687b      	ldr	r3, [r7, #4]
  401994:	2200      	movs	r2, #0
  401996:	605a      	str	r2, [r3, #4]
	p_usart->US_RTOR = 0;
  401998:	687b      	ldr	r3, [r7, #4]
  40199a:	2200      	movs	r2, #0
  40199c:	625a      	str	r2, [r3, #36]	; 0x24
	p_usart->US_TTGR = 0;
  40199e:	687b      	ldr	r3, [r7, #4]
  4019a0:	2200      	movs	r2, #0
  4019a2:	629a      	str	r2, [r3, #40]	; 0x28

	/* Disable TX and RX. */
	usart_reset_tx(p_usart);
  4019a4:	6878      	ldr	r0, [r7, #4]
  4019a6:	4b0a      	ldr	r3, [pc, #40]	; (4019d0 <usart_reset+0x4c>)
  4019a8:	4798      	blx	r3
	usart_reset_rx(p_usart);
  4019aa:	6878      	ldr	r0, [r7, #4]
  4019ac:	4b09      	ldr	r3, [pc, #36]	; (4019d4 <usart_reset+0x50>)
  4019ae:	4798      	blx	r3
	/* Reset status bits. */
	usart_reset_status(p_usart);
  4019b0:	6878      	ldr	r0, [r7, #4]
  4019b2:	4b09      	ldr	r3, [pc, #36]	; (4019d8 <usart_reset+0x54>)
  4019b4:	4798      	blx	r3
	/* Turn off RTS and DTR if exist. */
	usart_drive_RTS_pin_high(p_usart);
  4019b6:	6878      	ldr	r0, [r7, #4]
  4019b8:	4b08      	ldr	r3, [pc, #32]	; (4019dc <usart_reset+0x58>)
  4019ba:	4798      	blx	r3
#if (SAM3S || SAM4S || SAM3U || SAM4L || SAM4E)
	usart_drive_DTR_pin_high(p_usart);
  4019bc:	6878      	ldr	r0, [r7, #4]
  4019be:	4b08      	ldr	r3, [pc, #32]	; (4019e0 <usart_reset+0x5c>)
  4019c0:	4798      	blx	r3
#endif
}
  4019c2:	bf00      	nop
  4019c4:	3708      	adds	r7, #8
  4019c6:	46bd      	mov	sp, r7
  4019c8:	bd80      	pop	{r7, pc}
  4019ca:	bf00      	nop
  4019cc:	00401c35 	.word	0x00401c35
  4019d0:	00401ac1 	.word	0x00401ac1
  4019d4:	00401af1 	.word	0x00401af1
  4019d8:	00401b53 	.word	0x00401b53
  4019dc:	00401b87 	.word	0x00401b87
  4019e0:	00401b6d 	.word	0x00401b6d

004019e4 <usart_init_rs232>:
 * \retval 0 on success.
 * \retval 1 on failure.
 */
uint32_t usart_init_rs232(Usart *p_usart,
		const sam_usart_opt_t *p_usart_opt, uint32_t ul_mck)
{
  4019e4:	b580      	push	{r7, lr}
  4019e6:	b084      	sub	sp, #16
  4019e8:	af00      	add	r7, sp, #0
  4019ea:	60f8      	str	r0, [r7, #12]
  4019ec:	60b9      	str	r1, [r7, #8]
  4019ee:	607a      	str	r2, [r7, #4]
	static uint32_t ul_reg_val;

	/* Reset the USART and shut down TX and RX. */
	usart_reset(p_usart);
  4019f0:	68f8      	ldr	r0, [r7, #12]
  4019f2:	4b1a      	ldr	r3, [pc, #104]	; (401a5c <usart_init_rs232+0x78>)
  4019f4:	4798      	blx	r3

	ul_reg_val = 0;
  4019f6:	4b1a      	ldr	r3, [pc, #104]	; (401a60 <usart_init_rs232+0x7c>)
  4019f8:	2200      	movs	r2, #0
  4019fa:	601a      	str	r2, [r3, #0]
	/* Check whether the input values are legal. */
	if (!p_usart_opt || usart_set_async_baudrate(p_usart,
  4019fc:	68bb      	ldr	r3, [r7, #8]
  4019fe:	2b00      	cmp	r3, #0
  401a00:	d009      	beq.n	401a16 <usart_init_rs232+0x32>
  401a02:	68bb      	ldr	r3, [r7, #8]
  401a04:	681b      	ldr	r3, [r3, #0]
  401a06:	687a      	ldr	r2, [r7, #4]
  401a08:	4619      	mov	r1, r3
  401a0a:	68f8      	ldr	r0, [r7, #12]
  401a0c:	4b15      	ldr	r3, [pc, #84]	; (401a64 <usart_init_rs232+0x80>)
  401a0e:	4798      	blx	r3
  401a10:	4603      	mov	r3, r0
  401a12:	2b00      	cmp	r3, #0
  401a14:	d001      	beq.n	401a1a <usart_init_rs232+0x36>
			p_usart_opt->baudrate, ul_mck)) {
		return 1;
  401a16:	2301      	movs	r3, #1
  401a18:	e01b      	b.n	401a52 <usart_init_rs232+0x6e>
	}

	/* Configure the USART option. */
	ul_reg_val |= p_usart_opt->char_length | p_usart_opt->parity_type |
  401a1a:	68bb      	ldr	r3, [r7, #8]
  401a1c:	685a      	ldr	r2, [r3, #4]
  401a1e:	68bb      	ldr	r3, [r7, #8]
  401a20:	689b      	ldr	r3, [r3, #8]
  401a22:	431a      	orrs	r2, r3
			p_usart_opt->channel_mode | p_usart_opt->stop_bits;
  401a24:	68bb      	ldr	r3, [r7, #8]
  401a26:	691b      	ldr	r3, [r3, #16]
	ul_reg_val |= p_usart_opt->char_length | p_usart_opt->parity_type |
  401a28:	431a      	orrs	r2, r3
			p_usart_opt->channel_mode | p_usart_opt->stop_bits;
  401a2a:	68bb      	ldr	r3, [r7, #8]
  401a2c:	68db      	ldr	r3, [r3, #12]
  401a2e:	431a      	orrs	r2, r3
	ul_reg_val |= p_usart_opt->char_length | p_usart_opt->parity_type |
  401a30:	4b0b      	ldr	r3, [pc, #44]	; (401a60 <usart_init_rs232+0x7c>)
  401a32:	681b      	ldr	r3, [r3, #0]
  401a34:	4313      	orrs	r3, r2
  401a36:	4a0a      	ldr	r2, [pc, #40]	; (401a60 <usart_init_rs232+0x7c>)
  401a38:	6013      	str	r3, [r2, #0]

	/* Configure the USART mode as normal mode. */
	ul_reg_val |= US_MR_USART_MODE_NORMAL;
  401a3a:	4b09      	ldr	r3, [pc, #36]	; (401a60 <usart_init_rs232+0x7c>)
  401a3c:	681b      	ldr	r3, [r3, #0]
  401a3e:	4a08      	ldr	r2, [pc, #32]	; (401a60 <usart_init_rs232+0x7c>)
  401a40:	6013      	str	r3, [r2, #0]

	p_usart->US_MR |= ul_reg_val;
  401a42:	68fb      	ldr	r3, [r7, #12]
  401a44:	685a      	ldr	r2, [r3, #4]
  401a46:	4b06      	ldr	r3, [pc, #24]	; (401a60 <usart_init_rs232+0x7c>)
  401a48:	681b      	ldr	r3, [r3, #0]
  401a4a:	431a      	orrs	r2, r3
  401a4c:	68fb      	ldr	r3, [r7, #12]
  401a4e:	605a      	str	r2, [r3, #4]

	return 0;
  401a50:	2300      	movs	r3, #0
}
  401a52:	4618      	mov	r0, r3
  401a54:	3710      	adds	r7, #16
  401a56:	46bd      	mov	sp, r7
  401a58:	bd80      	pop	{r7, pc}
  401a5a:	bf00      	nop
  401a5c:	00401985 	.word	0x00401985
  401a60:	200009f8 	.word	0x200009f8
  401a64:	004018fd 	.word	0x004018fd

00401a68 <usart_init_hw_handshaking>:
 * \retval 0 on success.
 * \retval 1 on failure.
 */
uint32_t usart_init_hw_handshaking(Usart *p_usart,
		const sam_usart_opt_t *p_usart_opt, uint32_t ul_mck)
{
  401a68:	b580      	push	{r7, lr}
  401a6a:	b084      	sub	sp, #16
  401a6c:	af00      	add	r7, sp, #0
  401a6e:	60f8      	str	r0, [r7, #12]
  401a70:	60b9      	str	r1, [r7, #8]
  401a72:	607a      	str	r2, [r7, #4]
	/* Initialize the USART as standard RS232. */
	if (usart_init_rs232(p_usart, p_usart_opt, ul_mck)) {
  401a74:	687a      	ldr	r2, [r7, #4]
  401a76:	68b9      	ldr	r1, [r7, #8]
  401a78:	68f8      	ldr	r0, [r7, #12]
  401a7a:	4b0a      	ldr	r3, [pc, #40]	; (401aa4 <usart_init_hw_handshaking+0x3c>)
  401a7c:	4798      	blx	r3
  401a7e:	4603      	mov	r3, r0
  401a80:	2b00      	cmp	r3, #0
  401a82:	d001      	beq.n	401a88 <usart_init_hw_handshaking+0x20>
		return 1;
  401a84:	2301      	movs	r3, #1
  401a86:	e008      	b.n	401a9a <usart_init_hw_handshaking+0x32>
	}

	/* Set hardware handshaking mode. */
	p_usart->US_MR = (p_usart->US_MR & ~US_MR_USART_MODE_Msk) |
  401a88:	68fb      	ldr	r3, [r7, #12]
  401a8a:	685b      	ldr	r3, [r3, #4]
  401a8c:	f023 030f 	bic.w	r3, r3, #15
  401a90:	f043 0202 	orr.w	r2, r3, #2
  401a94:	68fb      	ldr	r3, [r7, #12]
  401a96:	605a      	str	r2, [r3, #4]
			US_MR_USART_MODE_HW_HANDSHAKING;

	return 0;
  401a98:	2300      	movs	r3, #0
}
  401a9a:	4618      	mov	r0, r3
  401a9c:	3710      	adds	r7, #16
  401a9e:	46bd      	mov	sp, r7
  401aa0:	bd80      	pop	{r7, pc}
  401aa2:	bf00      	nop
  401aa4:	004019e5 	.word	0x004019e5

00401aa8 <usart_enable_tx>:
 * \brief Enable USART transmitter.
 *
 * \param p_usart Pointer to a USART instance.
 */
void usart_enable_tx(Usart *p_usart)
{
  401aa8:	b480      	push	{r7}
  401aaa:	b083      	sub	sp, #12
  401aac:	af00      	add	r7, sp, #0
  401aae:	6078      	str	r0, [r7, #4]
	p_usart->US_CR = US_CR_TXEN;
  401ab0:	687b      	ldr	r3, [r7, #4]
  401ab2:	2240      	movs	r2, #64	; 0x40
  401ab4:	601a      	str	r2, [r3, #0]
}
  401ab6:	bf00      	nop
  401ab8:	370c      	adds	r7, #12
  401aba:	46bd      	mov	sp, r7
  401abc:	bc80      	pop	{r7}
  401abe:	4770      	bx	lr

00401ac0 <usart_reset_tx>:
 * \brief Immediately stop and disable USART transmitter.
 *
 * \param p_usart Pointer to a USART instance.
 */
void usart_reset_tx(Usart *p_usart)
{
  401ac0:	b480      	push	{r7}
  401ac2:	b083      	sub	sp, #12
  401ac4:	af00      	add	r7, sp, #0
  401ac6:	6078      	str	r0, [r7, #4]
	/* Reset transmitter */
	p_usart->US_CR = US_CR_RSTTX | US_CR_TXDIS;
  401ac8:	687b      	ldr	r3, [r7, #4]
  401aca:	2288      	movs	r2, #136	; 0x88
  401acc:	601a      	str	r2, [r3, #0]
}
  401ace:	bf00      	nop
  401ad0:	370c      	adds	r7, #12
  401ad2:	46bd      	mov	sp, r7
  401ad4:	bc80      	pop	{r7}
  401ad6:	4770      	bx	lr

00401ad8 <usart_enable_rx>:
 * \brief Enable USART receiver.
 *
 * \param p_usart Pointer to a USART instance.
 */
void usart_enable_rx(Usart *p_usart)
{
  401ad8:	b480      	push	{r7}
  401ada:	b083      	sub	sp, #12
  401adc:	af00      	add	r7, sp, #0
  401ade:	6078      	str	r0, [r7, #4]
	p_usart->US_CR = US_CR_RXEN;
  401ae0:	687b      	ldr	r3, [r7, #4]
  401ae2:	2210      	movs	r2, #16
  401ae4:	601a      	str	r2, [r3, #0]
}
  401ae6:	bf00      	nop
  401ae8:	370c      	adds	r7, #12
  401aea:	46bd      	mov	sp, r7
  401aec:	bc80      	pop	{r7}
  401aee:	4770      	bx	lr

00401af0 <usart_reset_rx>:
 * \brief Immediately stop and disable USART receiver.
 *
 * \param p_usart Pointer to a USART instance.
 */
void usart_reset_rx(Usart *p_usart)
{
  401af0:	b480      	push	{r7}
  401af2:	b083      	sub	sp, #12
  401af4:	af00      	add	r7, sp, #0
  401af6:	6078      	str	r0, [r7, #4]
	/* Reset Receiver */
	p_usart->US_CR = US_CR_RSTRX | US_CR_RXDIS;
  401af8:	687b      	ldr	r3, [r7, #4]
  401afa:	2224      	movs	r2, #36	; 0x24
  401afc:	601a      	str	r2, [r3, #0]
}
  401afe:	bf00      	nop
  401b00:	370c      	adds	r7, #12
  401b02:	46bd      	mov	sp, r7
  401b04:	bc80      	pop	{r7}
  401b06:	4770      	bx	lr

00401b08 <usart_enable_interrupt>:
 *
 * \param p_usart Pointer to a USART peripheral.
 * \param ul_sources Interrupt sources bit map.
 */
void usart_enable_interrupt(Usart *p_usart, uint32_t ul_sources)
{
  401b08:	b480      	push	{r7}
  401b0a:	b083      	sub	sp, #12
  401b0c:	af00      	add	r7, sp, #0
  401b0e:	6078      	str	r0, [r7, #4]
  401b10:	6039      	str	r1, [r7, #0]
	p_usart->US_IER = ul_sources;
  401b12:	687b      	ldr	r3, [r7, #4]
  401b14:	683a      	ldr	r2, [r7, #0]
  401b16:	609a      	str	r2, [r3, #8]
}
  401b18:	bf00      	nop
  401b1a:	370c      	adds	r7, #12
  401b1c:	46bd      	mov	sp, r7
  401b1e:	bc80      	pop	{r7}
  401b20:	4770      	bx	lr

00401b22 <usart_disable_interrupt>:
 *
 * \param p_usart Pointer to a USART peripheral.
 * \param ul_sources Interrupt sources bit map.
 */
void usart_disable_interrupt(Usart *p_usart, uint32_t ul_sources)
{
  401b22:	b480      	push	{r7}
  401b24:	b083      	sub	sp, #12
  401b26:	af00      	add	r7, sp, #0
  401b28:	6078      	str	r0, [r7, #4]
  401b2a:	6039      	str	r1, [r7, #0]
	p_usart->US_IDR = ul_sources;
  401b2c:	687b      	ldr	r3, [r7, #4]
  401b2e:	683a      	ldr	r2, [r7, #0]
  401b30:	60da      	str	r2, [r3, #12]
}
  401b32:	bf00      	nop
  401b34:	370c      	adds	r7, #12
  401b36:	46bd      	mov	sp, r7
  401b38:	bc80      	pop	{r7}
  401b3a:	4770      	bx	lr

00401b3c <usart_get_status>:
 * \param p_usart Pointer to a USART instance.
 *
 * \return The current USART status.
 */
uint32_t usart_get_status(Usart *p_usart)
{
  401b3c:	b480      	push	{r7}
  401b3e:	b083      	sub	sp, #12
  401b40:	af00      	add	r7, sp, #0
  401b42:	6078      	str	r0, [r7, #4]
	return p_usart->US_CSR;
  401b44:	687b      	ldr	r3, [r7, #4]
  401b46:	695b      	ldr	r3, [r3, #20]
}
  401b48:	4618      	mov	r0, r3
  401b4a:	370c      	adds	r7, #12
  401b4c:	46bd      	mov	sp, r7
  401b4e:	bc80      	pop	{r7}
  401b50:	4770      	bx	lr

00401b52 <usart_reset_status>:
 * \brief Reset status bits (PARE, OVER, MANERR, UNRE and PXBRK in US_CSR).
 *
 * \param p_usart Pointer to a USART instance.
 */
void usart_reset_status(Usart *p_usart)
{
  401b52:	b480      	push	{r7}
  401b54:	b083      	sub	sp, #12
  401b56:	af00      	add	r7, sp, #0
  401b58:	6078      	str	r0, [r7, #4]
	p_usart->US_CR = US_CR_RSTSTA;
  401b5a:	687b      	ldr	r3, [r7, #4]
  401b5c:	f44f 7280 	mov.w	r2, #256	; 0x100
  401b60:	601a      	str	r2, [r3, #0]
}
  401b62:	bf00      	nop
  401b64:	370c      	adds	r7, #12
  401b66:	46bd      	mov	sp, r7
  401b68:	bc80      	pop	{r7}
  401b6a:	4770      	bx	lr

00401b6c <usart_drive_DTR_pin_high>:
 * \brief Drive the pin DTR to 1.
 *
 * \param p_usart Pointer to a USART instance.
 */
void usart_drive_DTR_pin_high(Usart *p_usart)
{
  401b6c:	b480      	push	{r7}
  401b6e:	b083      	sub	sp, #12
  401b70:	af00      	add	r7, sp, #0
  401b72:	6078      	str	r0, [r7, #4]
	p_usart->US_CR = US_CR_DTRDIS;
  401b74:	687b      	ldr	r3, [r7, #4]
  401b76:	f44f 3200 	mov.w	r2, #131072	; 0x20000
  401b7a:	601a      	str	r2, [r3, #0]
}
  401b7c:	bf00      	nop
  401b7e:	370c      	adds	r7, #12
  401b80:	46bd      	mov	sp, r7
  401b82:	bc80      	pop	{r7}
  401b84:	4770      	bx	lr

00401b86 <usart_drive_RTS_pin_high>:
 * \brief Drive the pin RTS to 1.
 *
 * \param p_usart Pointer to a USART instance.
 */
void usart_drive_RTS_pin_high(Usart *p_usart)
{
  401b86:	b480      	push	{r7}
  401b88:	b083      	sub	sp, #12
  401b8a:	af00      	add	r7, sp, #0
  401b8c:	6078      	str	r0, [r7, #4]
	p_usart->US_CR = US_CR_RTSDIS;
  401b8e:	687b      	ldr	r3, [r7, #4]
  401b90:	f44f 2200 	mov.w	r2, #524288	; 0x80000
  401b94:	601a      	str	r2, [r3, #0]
}
  401b96:	bf00      	nop
  401b98:	370c      	adds	r7, #12
  401b9a:	46bd      	mov	sp, r7
  401b9c:	bc80      	pop	{r7}
  401b9e:	4770      	bx	lr

00401ba0 <usart_putchar>:
 *
 * \retval 0 on success.
 * \retval 1 on failure.
 */
uint32_t usart_putchar(Usart *p_usart, uint32_t c)
{
  401ba0:	b480      	push	{r7}
  401ba2:	b083      	sub	sp, #12
  401ba4:	af00      	add	r7, sp, #0
  401ba6:	6078      	str	r0, [r7, #4]
  401ba8:	6039      	str	r1, [r7, #0]
	while (!(p_usart->US_CSR & US_CSR_TXRDY)) {
  401baa:	bf00      	nop
  401bac:	687b      	ldr	r3, [r7, #4]
  401bae:	695b      	ldr	r3, [r3, #20]
  401bb0:	f003 0302 	and.w	r3, r3, #2
  401bb4:	2b00      	cmp	r3, #0
  401bb6:	d0f9      	beq.n	401bac <usart_putchar+0xc>
	}

	p_usart->US_THR = US_THR_TXCHR(c);
  401bb8:	683b      	ldr	r3, [r7, #0]
  401bba:	f3c3 0208 	ubfx	r2, r3, #0, #9
  401bbe:	687b      	ldr	r3, [r7, #4]
  401bc0:	61da      	str	r2, [r3, #28]

	return 0;
  401bc2:	2300      	movs	r3, #0
}
  401bc4:	4618      	mov	r0, r3
  401bc6:	370c      	adds	r7, #12
  401bc8:	46bd      	mov	sp, r7
  401bca:	bc80      	pop	{r7}
  401bcc:	4770      	bx	lr
	...

00401bd0 <usart_write_line>:
 *
 * \param p_usart Pointer to a USART instance.
 * \param string Pointer to one-line string to be sent.
 */
void usart_write_line(Usart *p_usart, const char *string)
{
  401bd0:	b580      	push	{r7, lr}
  401bd2:	b082      	sub	sp, #8
  401bd4:	af00      	add	r7, sp, #0
  401bd6:	6078      	str	r0, [r7, #4]
  401bd8:	6039      	str	r1, [r7, #0]
	while (*string != '\0') {
  401bda:	e007      	b.n	401bec <usart_write_line+0x1c>
		usart_putchar(p_usart, *string++);
  401bdc:	683b      	ldr	r3, [r7, #0]
  401bde:	1c5a      	adds	r2, r3, #1
  401be0:	603a      	str	r2, [r7, #0]
  401be2:	781b      	ldrb	r3, [r3, #0]
  401be4:	4619      	mov	r1, r3
  401be6:	6878      	ldr	r0, [r7, #4]
  401be8:	4b04      	ldr	r3, [pc, #16]	; (401bfc <usart_write_line+0x2c>)
  401bea:	4798      	blx	r3
	while (*string != '\0') {
  401bec:	683b      	ldr	r3, [r7, #0]
  401bee:	781b      	ldrb	r3, [r3, #0]
  401bf0:	2b00      	cmp	r3, #0
  401bf2:	d1f3      	bne.n	401bdc <usart_write_line+0xc>
	}
}
  401bf4:	bf00      	nop
  401bf6:	3708      	adds	r7, #8
  401bf8:	46bd      	mov	sp, r7
  401bfa:	bd80      	pop	{r7, pc}
  401bfc:	00401ba1 	.word	0x00401ba1

00401c00 <usart_read>:
 *
 * \retval 0 on success.
 * \retval 1 if no data is available or errors.
 */
uint32_t usart_read(Usart *p_usart, uint32_t *c)
{
  401c00:	b480      	push	{r7}
  401c02:	b083      	sub	sp, #12
  401c04:	af00      	add	r7, sp, #0
  401c06:	6078      	str	r0, [r7, #4]
  401c08:	6039      	str	r1, [r7, #0]
	if (!(p_usart->US_CSR & US_CSR_RXRDY)) {
  401c0a:	687b      	ldr	r3, [r7, #4]
  401c0c:	695b      	ldr	r3, [r3, #20]
  401c0e:	f003 0301 	and.w	r3, r3, #1
  401c12:	2b00      	cmp	r3, #0
  401c14:	d101      	bne.n	401c1a <usart_read+0x1a>
		return 1;
  401c16:	2301      	movs	r3, #1
  401c18:	e006      	b.n	401c28 <usart_read+0x28>
	}

	/* Read character */
	*c = p_usart->US_RHR & US_RHR_RXCHR_Msk;
  401c1a:	687b      	ldr	r3, [r7, #4]
  401c1c:	699b      	ldr	r3, [r3, #24]
  401c1e:	f3c3 0208 	ubfx	r2, r3, #0, #9
  401c22:	683b      	ldr	r3, [r7, #0]
  401c24:	601a      	str	r2, [r3, #0]

	return 0;
  401c26:	2300      	movs	r3, #0
}
  401c28:	4618      	mov	r0, r3
  401c2a:	370c      	adds	r7, #12
  401c2c:	46bd      	mov	sp, r7
  401c2e:	bc80      	pop	{r7}
  401c30:	4770      	bx	lr
	...

00401c34 <usart_disable_writeprotect>:
 * \brief Disable write protect of USART registers.
 *
 * \param p_usart Pointer to a USART instance.
 */
void usart_disable_writeprotect(Usart *p_usart)
{
  401c34:	b480      	push	{r7}
  401c36:	b083      	sub	sp, #12
  401c38:	af00      	add	r7, sp, #0
  401c3a:	6078      	str	r0, [r7, #4]
	p_usart->US_WPMR = US_WPMR_WPKEY_PASSWD;
  401c3c:	687b      	ldr	r3, [r7, #4]
  401c3e:	4a04      	ldr	r2, [pc, #16]	; (401c50 <usart_disable_writeprotect+0x1c>)
  401c40:	f8c3 20e4 	str.w	r2, [r3, #228]	; 0xe4
}
  401c44:	bf00      	nop
  401c46:	370c      	adds	r7, #12
  401c48:	46bd      	mov	sp, r7
  401c4a:	bc80      	pop	{r7}
  401c4c:	4770      	bx	lr
  401c4e:	bf00      	nop
  401c50:	55534100 	.word	0x55534100

00401c54 <pio_handler_process>:
 *
 * \param p_pio PIO controller base address.
 * \param ul_id PIO controller ID.
 */
void pio_handler_process(Pio *p_pio, uint32_t ul_id)
{
  401c54:	b580      	push	{r7, lr}
  401c56:	b084      	sub	sp, #16
  401c58:	af00      	add	r7, sp, #0
  401c5a:	6078      	str	r0, [r7, #4]
  401c5c:	6039      	str	r1, [r7, #0]
	uint32_t status;
	uint32_t i;

	/* Read PIO controller status */
	status = pio_get_interrupt_status(p_pio);
  401c5e:	6878      	ldr	r0, [r7, #4]
  401c60:	4b2c      	ldr	r3, [pc, #176]	; (401d14 <pio_handler_process+0xc0>)
  401c62:	4798      	blx	r3
  401c64:	60f8      	str	r0, [r7, #12]
	status &= pio_get_interrupt_mask(p_pio);
  401c66:	6878      	ldr	r0, [r7, #4]
  401c68:	4b2b      	ldr	r3, [pc, #172]	; (401d18 <pio_handler_process+0xc4>)
  401c6a:	4798      	blx	r3
  401c6c:	4602      	mov	r2, r0
  401c6e:	68fb      	ldr	r3, [r7, #12]
  401c70:	4013      	ands	r3, r2
  401c72:	60fb      	str	r3, [r7, #12]

	/* Check pending events */
	if (status != 0) {
  401c74:	68fb      	ldr	r3, [r7, #12]
  401c76:	2b00      	cmp	r3, #0
  401c78:	d03c      	beq.n	401cf4 <pio_handler_process+0xa0>
		/* Find triggering source */
		i = 0;
  401c7a:	2300      	movs	r3, #0
  401c7c:	60bb      	str	r3, [r7, #8]
		while (status != 0) {
  401c7e:	e034      	b.n	401cea <pio_handler_process+0x96>
			/* Source is configured on the same controller */
			if (gs_interrupt_sources[i].id == ul_id) {
  401c80:	4a26      	ldr	r2, [pc, #152]	; (401d1c <pio_handler_process+0xc8>)
  401c82:	68bb      	ldr	r3, [r7, #8]
  401c84:	011b      	lsls	r3, r3, #4
  401c86:	4413      	add	r3, r2
  401c88:	681a      	ldr	r2, [r3, #0]
  401c8a:	683b      	ldr	r3, [r7, #0]
  401c8c:	429a      	cmp	r2, r3
  401c8e:	d126      	bne.n	401cde <pio_handler_process+0x8a>
				/* Source has PIOs whose statuses have changed */
				if ((status & gs_interrupt_sources[i].mask) != 0) {
  401c90:	4a22      	ldr	r2, [pc, #136]	; (401d1c <pio_handler_process+0xc8>)
  401c92:	68bb      	ldr	r3, [r7, #8]
  401c94:	011b      	lsls	r3, r3, #4
  401c96:	4413      	add	r3, r2
  401c98:	3304      	adds	r3, #4
  401c9a:	681a      	ldr	r2, [r3, #0]
  401c9c:	68fb      	ldr	r3, [r7, #12]
  401c9e:	4013      	ands	r3, r2
  401ca0:	2b00      	cmp	r3, #0
  401ca2:	d01c      	beq.n	401cde <pio_handler_process+0x8a>
					gs_interrupt_sources[i].handler(gs_interrupt_sources[i].id,
  401ca4:	4a1d      	ldr	r2, [pc, #116]	; (401d1c <pio_handler_process+0xc8>)
  401ca6:	68bb      	ldr	r3, [r7, #8]
  401ca8:	011b      	lsls	r3, r3, #4
  401caa:	4413      	add	r3, r2
  401cac:	330c      	adds	r3, #12
  401cae:	681b      	ldr	r3, [r3, #0]
  401cb0:	491a      	ldr	r1, [pc, #104]	; (401d1c <pio_handler_process+0xc8>)
  401cb2:	68ba      	ldr	r2, [r7, #8]
  401cb4:	0112      	lsls	r2, r2, #4
  401cb6:	440a      	add	r2, r1
  401cb8:	6810      	ldr	r0, [r2, #0]
  401cba:	4918      	ldr	r1, [pc, #96]	; (401d1c <pio_handler_process+0xc8>)
  401cbc:	68ba      	ldr	r2, [r7, #8]
  401cbe:	0112      	lsls	r2, r2, #4
  401cc0:	440a      	add	r2, r1
  401cc2:	3204      	adds	r2, #4
  401cc4:	6812      	ldr	r2, [r2, #0]
  401cc6:	4611      	mov	r1, r2
  401cc8:	4798      	blx	r3
							gs_interrupt_sources[i].mask);
					status &= ~(gs_interrupt_sources[i].mask);
  401cca:	4a14      	ldr	r2, [pc, #80]	; (401d1c <pio_handler_process+0xc8>)
  401ccc:	68bb      	ldr	r3, [r7, #8]
  401cce:	011b      	lsls	r3, r3, #4
  401cd0:	4413      	add	r3, r2
  401cd2:	3304      	adds	r3, #4
  401cd4:	681b      	ldr	r3, [r3, #0]
  401cd6:	43db      	mvns	r3, r3
  401cd8:	68fa      	ldr	r2, [r7, #12]
  401cda:	4013      	ands	r3, r2
  401cdc:	60fb      	str	r3, [r7, #12]
				}
			}
			i++;
  401cde:	68bb      	ldr	r3, [r7, #8]
  401ce0:	3301      	adds	r3, #1
  401ce2:	60bb      	str	r3, [r7, #8]
			if (i >= MAX_INTERRUPT_SOURCES) {
  401ce4:	68bb      	ldr	r3, [r7, #8]
  401ce6:	2b06      	cmp	r3, #6
  401ce8:	d803      	bhi.n	401cf2 <pio_handler_process+0x9e>
		while (status != 0) {
  401cea:	68fb      	ldr	r3, [r7, #12]
  401cec:	2b00      	cmp	r3, #0
  401cee:	d1c7      	bne.n	401c80 <pio_handler_process+0x2c>
  401cf0:	e000      	b.n	401cf4 <pio_handler_process+0xa0>
				break;
  401cf2:	bf00      	nop
		}
	}

	/* Check capture events */
#if (SAM3S || SAM4S || SAM4E)
	if (pio_capture_enable_flag) {
  401cf4:	4b0a      	ldr	r3, [pc, #40]	; (401d20 <pio_handler_process+0xcc>)
  401cf6:	681b      	ldr	r3, [r3, #0]
  401cf8:	2b00      	cmp	r3, #0
  401cfa:	d007      	beq.n	401d0c <pio_handler_process+0xb8>
		if (pio_capture_handler) {
  401cfc:	4b09      	ldr	r3, [pc, #36]	; (401d24 <pio_handler_process+0xd0>)
  401cfe:	681b      	ldr	r3, [r3, #0]
  401d00:	2b00      	cmp	r3, #0
  401d02:	d003      	beq.n	401d0c <pio_handler_process+0xb8>
			pio_capture_handler(p_pio);
  401d04:	4b07      	ldr	r3, [pc, #28]	; (401d24 <pio_handler_process+0xd0>)
  401d06:	681b      	ldr	r3, [r3, #0]
  401d08:	6878      	ldr	r0, [r7, #4]
  401d0a:	4798      	blx	r3
		}
	}
#endif
}
  401d0c:	bf00      	nop
  401d0e:	3710      	adds	r7, #16
  401d10:	46bd      	mov	sp, r7
  401d12:	bd80      	pop	{r7, pc}
  401d14:	00402443 	.word	0x00402443
  401d18:	00402459 	.word	0x00402459
  401d1c:	200009fc 	.word	0x200009fc
  401d20:	20019538 	.word	0x20019538
  401d24:	20000a70 	.word	0x20000a70

00401d28 <pio_handler_set>:
 *
 * \return 0 if successful, 1 if the maximum number of sources has been defined.
 */
uint32_t pio_handler_set(Pio *p_pio, uint32_t ul_id, uint32_t ul_mask,
		uint32_t ul_attr, void (*p_handler) (uint32_t, uint32_t))
{
  401d28:	b580      	push	{r7, lr}
  401d2a:	b086      	sub	sp, #24
  401d2c:	af00      	add	r7, sp, #0
  401d2e:	60f8      	str	r0, [r7, #12]
  401d30:	60b9      	str	r1, [r7, #8]
  401d32:	607a      	str	r2, [r7, #4]
  401d34:	603b      	str	r3, [r7, #0]
    uint8_t i;
	struct s_interrupt_source *pSource;

	if (gs_ul_nb_sources >= MAX_INTERRUPT_SOURCES)
  401d36:	4b21      	ldr	r3, [pc, #132]	; (401dbc <pio_handler_set+0x94>)
  401d38:	681b      	ldr	r3, [r3, #0]
  401d3a:	2b06      	cmp	r3, #6
  401d3c:	d901      	bls.n	401d42 <pio_handler_set+0x1a>
		return 1;
  401d3e:	2301      	movs	r3, #1
  401d40:	e038      	b.n	401db4 <pio_handler_set+0x8c>

    /* Check interrupt for this pin, if already defined, redefine it. */
	for (i = 0; i <= gs_ul_nb_sources; i++) {
  401d42:	2300      	movs	r3, #0
  401d44:	75fb      	strb	r3, [r7, #23]
  401d46:	e011      	b.n	401d6c <pio_handler_set+0x44>
		pSource = &(gs_interrupt_sources[i]);
  401d48:	7dfb      	ldrb	r3, [r7, #23]
  401d4a:	011b      	lsls	r3, r3, #4
  401d4c:	4a1c      	ldr	r2, [pc, #112]	; (401dc0 <pio_handler_set+0x98>)
  401d4e:	4413      	add	r3, r2
  401d50:	613b      	str	r3, [r7, #16]
		if (pSource->id == ul_id && pSource->mask == ul_mask) {
  401d52:	693b      	ldr	r3, [r7, #16]
  401d54:	681a      	ldr	r2, [r3, #0]
  401d56:	68bb      	ldr	r3, [r7, #8]
  401d58:	429a      	cmp	r2, r3
  401d5a:	d104      	bne.n	401d66 <pio_handler_set+0x3e>
  401d5c:	693b      	ldr	r3, [r7, #16]
  401d5e:	685a      	ldr	r2, [r3, #4]
  401d60:	687b      	ldr	r3, [r7, #4]
  401d62:	429a      	cmp	r2, r3
  401d64:	d008      	beq.n	401d78 <pio_handler_set+0x50>
	for (i = 0; i <= gs_ul_nb_sources; i++) {
  401d66:	7dfb      	ldrb	r3, [r7, #23]
  401d68:	3301      	adds	r3, #1
  401d6a:	75fb      	strb	r3, [r7, #23]
  401d6c:	7dfa      	ldrb	r2, [r7, #23]
  401d6e:	4b13      	ldr	r3, [pc, #76]	; (401dbc <pio_handler_set+0x94>)
  401d70:	681b      	ldr	r3, [r3, #0]
  401d72:	429a      	cmp	r2, r3
  401d74:	d9e8      	bls.n	401d48 <pio_handler_set+0x20>
  401d76:	e000      	b.n	401d7a <pio_handler_set+0x52>
			break;
  401d78:	bf00      	nop
		}
	}

	/* Define new source */
	pSource->id = ul_id;
  401d7a:	693b      	ldr	r3, [r7, #16]
  401d7c:	68ba      	ldr	r2, [r7, #8]
  401d7e:	601a      	str	r2, [r3, #0]
	pSource->mask = ul_mask;
  401d80:	693b      	ldr	r3, [r7, #16]
  401d82:	687a      	ldr	r2, [r7, #4]
  401d84:	605a      	str	r2, [r3, #4]
	pSource->attr = ul_attr;
  401d86:	693b      	ldr	r3, [r7, #16]
  401d88:	683a      	ldr	r2, [r7, #0]
  401d8a:	609a      	str	r2, [r3, #8]
	pSource->handler = p_handler;
  401d8c:	693b      	ldr	r3, [r7, #16]
  401d8e:	6a3a      	ldr	r2, [r7, #32]
  401d90:	60da      	str	r2, [r3, #12]
	if (i == gs_ul_nb_sources + 1) {
  401d92:	7dfa      	ldrb	r2, [r7, #23]
  401d94:	4b09      	ldr	r3, [pc, #36]	; (401dbc <pio_handler_set+0x94>)
  401d96:	681b      	ldr	r3, [r3, #0]
  401d98:	3301      	adds	r3, #1
  401d9a:	429a      	cmp	r2, r3
  401d9c:	d104      	bne.n	401da8 <pio_handler_set+0x80>
		gs_ul_nb_sources++;
  401d9e:	4b07      	ldr	r3, [pc, #28]	; (401dbc <pio_handler_set+0x94>)
  401da0:	681b      	ldr	r3, [r3, #0]
  401da2:	3301      	adds	r3, #1
  401da4:	4a05      	ldr	r2, [pc, #20]	; (401dbc <pio_handler_set+0x94>)
  401da6:	6013      	str	r3, [r2, #0]
	}

	/* Configure interrupt mode */
	pio_configure_interrupt(p_pio, ul_mask, ul_attr);
  401da8:	683a      	ldr	r2, [r7, #0]
  401daa:	6879      	ldr	r1, [r7, #4]
  401dac:	68f8      	ldr	r0, [r7, #12]
  401dae:	4b05      	ldr	r3, [pc, #20]	; (401dc4 <pio_handler_set+0x9c>)
  401db0:	4798      	blx	r3

	return 0;
  401db2:	2300      	movs	r3, #0
}
  401db4:	4618      	mov	r0, r3
  401db6:	3718      	adds	r7, #24
  401db8:	46bd      	mov	sp, r7
  401dba:	bd80      	pop	{r7, pc}
  401dbc:	20000a6c 	.word	0x20000a6c
  401dc0:	200009fc 	.word	0x200009fc
  401dc4:	004023a5 	.word	0x004023a5

00401dc8 <PIOA_Handler>:
/**
 * \brief Parallel IO Controller A interrupt handler.
 * Redefined PIOA interrupt handler for NVIC interrupt table.
 */
void PIOA_Handler(void)
{
  401dc8:	b580      	push	{r7, lr}
  401dca:	af00      	add	r7, sp, #0
	pio_handler_process(PIOA, ID_PIOA);
  401dcc:	210b      	movs	r1, #11
  401dce:	4802      	ldr	r0, [pc, #8]	; (401dd8 <PIOA_Handler+0x10>)
  401dd0:	4b02      	ldr	r3, [pc, #8]	; (401ddc <PIOA_Handler+0x14>)
  401dd2:	4798      	blx	r3
}
  401dd4:	bf00      	nop
  401dd6:	bd80      	pop	{r7, pc}
  401dd8:	400e0e00 	.word	0x400e0e00
  401ddc:	00401c55 	.word	0x00401c55

00401de0 <PIOB_Handler>:
/**
 * \brief Parallel IO Controller B interrupt handler
 * Redefined PIOB interrupt handler for NVIC interrupt table.
 */
void PIOB_Handler(void)
{
  401de0:	b580      	push	{r7, lr}
  401de2:	af00      	add	r7, sp, #0
    pio_handler_process(PIOB, ID_PIOB);
  401de4:	210c      	movs	r1, #12
  401de6:	4802      	ldr	r0, [pc, #8]	; (401df0 <PIOB_Handler+0x10>)
  401de8:	4b02      	ldr	r3, [pc, #8]	; (401df4 <PIOB_Handler+0x14>)
  401dea:	4798      	blx	r3
}
  401dec:	bf00      	nop
  401dee:	bd80      	pop	{r7, pc}
  401df0:	400e1000 	.word	0x400e1000
  401df4:	00401c55 	.word	0x00401c55

00401df8 <osc_enable>:
{
  401df8:	b580      	push	{r7, lr}
  401dfa:	b082      	sub	sp, #8
  401dfc:	af00      	add	r7, sp, #0
  401dfe:	6078      	str	r0, [r7, #4]
	switch (ul_id) {
  401e00:	687b      	ldr	r3, [r7, #4]
  401e02:	2b07      	cmp	r3, #7
  401e04:	d831      	bhi.n	401e6a <osc_enable+0x72>
  401e06:	a201      	add	r2, pc, #4	; (adr r2, 401e0c <osc_enable+0x14>)
  401e08:	f852 f023 	ldr.w	pc, [r2, r3, lsl #2]
  401e0c:	00401e69 	.word	0x00401e69
  401e10:	00401e2d 	.word	0x00401e2d
  401e14:	00401e35 	.word	0x00401e35
  401e18:	00401e3d 	.word	0x00401e3d
  401e1c:	00401e45 	.word	0x00401e45
  401e20:	00401e4d 	.word	0x00401e4d
  401e24:	00401e55 	.word	0x00401e55
  401e28:	00401e5f 	.word	0x00401e5f
		pmc_switch_sclk_to_32kxtal(PMC_OSC_XTAL);
  401e2c:	2000      	movs	r0, #0
  401e2e:	4b11      	ldr	r3, [pc, #68]	; (401e74 <osc_enable+0x7c>)
  401e30:	4798      	blx	r3
		break;
  401e32:	e01a      	b.n	401e6a <osc_enable+0x72>
		pmc_switch_sclk_to_32kxtal(PMC_OSC_BYPASS);
  401e34:	2001      	movs	r0, #1
  401e36:	4b0f      	ldr	r3, [pc, #60]	; (401e74 <osc_enable+0x7c>)
  401e38:	4798      	blx	r3
		break;
  401e3a:	e016      	b.n	401e6a <osc_enable+0x72>
		pmc_switch_mainck_to_fastrc(CKGR_MOR_MOSCRCF_4_MHz);
  401e3c:	2000      	movs	r0, #0
  401e3e:	4b0e      	ldr	r3, [pc, #56]	; (401e78 <osc_enable+0x80>)
  401e40:	4798      	blx	r3
		break;
  401e42:	e012      	b.n	401e6a <osc_enable+0x72>
		pmc_switch_mainck_to_fastrc(CKGR_MOR_MOSCRCF_8_MHz);
  401e44:	2010      	movs	r0, #16
  401e46:	4b0c      	ldr	r3, [pc, #48]	; (401e78 <osc_enable+0x80>)
  401e48:	4798      	blx	r3
		break;
  401e4a:	e00e      	b.n	401e6a <osc_enable+0x72>
		pmc_switch_mainck_to_fastrc(CKGR_MOR_MOSCRCF_12_MHz);
  401e4c:	2020      	movs	r0, #32
  401e4e:	4b0a      	ldr	r3, [pc, #40]	; (401e78 <osc_enable+0x80>)
  401e50:	4798      	blx	r3
		break;
  401e52:	e00a      	b.n	401e6a <osc_enable+0x72>
		pmc_switch_mainck_to_xtal(PMC_OSC_XTAL,
  401e54:	213e      	movs	r1, #62	; 0x3e
  401e56:	2000      	movs	r0, #0
  401e58:	4b08      	ldr	r3, [pc, #32]	; (401e7c <osc_enable+0x84>)
  401e5a:	4798      	blx	r3
		break;
  401e5c:	e005      	b.n	401e6a <osc_enable+0x72>
		pmc_switch_mainck_to_xtal(PMC_OSC_BYPASS,
  401e5e:	213e      	movs	r1, #62	; 0x3e
  401e60:	2001      	movs	r0, #1
  401e62:	4b06      	ldr	r3, [pc, #24]	; (401e7c <osc_enable+0x84>)
  401e64:	4798      	blx	r3
		break;
  401e66:	e000      	b.n	401e6a <osc_enable+0x72>
		break;
  401e68:	bf00      	nop
}
  401e6a:	bf00      	nop
  401e6c:	3708      	adds	r7, #8
  401e6e:	46bd      	mov	sp, r7
  401e70:	bd80      	pop	{r7, pc}
  401e72:	bf00      	nop
  401e74:	0040271d 	.word	0x0040271d
  401e78:	00402789 	.word	0x00402789
  401e7c:	004027f9 	.word	0x004027f9

00401e80 <osc_is_ready>:
{
  401e80:	b580      	push	{r7, lr}
  401e82:	b082      	sub	sp, #8
  401e84:	af00      	add	r7, sp, #0
  401e86:	6078      	str	r0, [r7, #4]
	switch (ul_id) {
  401e88:	687b      	ldr	r3, [r7, #4]
  401e8a:	2b07      	cmp	r3, #7
  401e8c:	d826      	bhi.n	401edc <osc_is_ready+0x5c>
  401e8e:	a201      	add	r2, pc, #4	; (adr r2, 401e94 <osc_is_ready+0x14>)
  401e90:	f852 f023 	ldr.w	pc, [r2, r3, lsl #2]
  401e94:	00401eb5 	.word	0x00401eb5
  401e98:	00401eb9 	.word	0x00401eb9
  401e9c:	00401eb9 	.word	0x00401eb9
  401ea0:	00401ecb 	.word	0x00401ecb
  401ea4:	00401ecb 	.word	0x00401ecb
  401ea8:	00401ecb 	.word	0x00401ecb
  401eac:	00401ecb 	.word	0x00401ecb
  401eb0:	00401ecb 	.word	0x00401ecb
		return 1;
  401eb4:	2301      	movs	r3, #1
  401eb6:	e012      	b.n	401ede <osc_is_ready+0x5e>
		return pmc_osc_is_ready_32kxtal();
  401eb8:	4b0b      	ldr	r3, [pc, #44]	; (401ee8 <osc_is_ready+0x68>)
  401eba:	4798      	blx	r3
  401ebc:	4603      	mov	r3, r0
  401ebe:	2b00      	cmp	r3, #0
  401ec0:	bf14      	ite	ne
  401ec2:	2301      	movne	r3, #1
  401ec4:	2300      	moveq	r3, #0
  401ec6:	b2db      	uxtb	r3, r3
  401ec8:	e009      	b.n	401ede <osc_is_ready+0x5e>
		return pmc_osc_is_ready_mainck();
  401eca:	4b08      	ldr	r3, [pc, #32]	; (401eec <osc_is_ready+0x6c>)
  401ecc:	4798      	blx	r3
  401ece:	4603      	mov	r3, r0
  401ed0:	2b00      	cmp	r3, #0
  401ed2:	bf14      	ite	ne
  401ed4:	2301      	movne	r3, #1
  401ed6:	2300      	moveq	r3, #0
  401ed8:	b2db      	uxtb	r3, r3
  401eda:	e000      	b.n	401ede <osc_is_ready+0x5e>
	return 0;
  401edc:	2300      	movs	r3, #0
}
  401ede:	4618      	mov	r0, r3
  401ee0:	3708      	adds	r7, #8
  401ee2:	46bd      	mov	sp, r7
  401ee4:	bd80      	pop	{r7, pc}
  401ee6:	bf00      	nop
  401ee8:	00402755 	.word	0x00402755
  401eec:	00402871 	.word	0x00402871

00401ef0 <osc_get_rate>:
{
  401ef0:	b480      	push	{r7}
  401ef2:	b083      	sub	sp, #12
  401ef4:	af00      	add	r7, sp, #0
  401ef6:	6078      	str	r0, [r7, #4]
	switch (ul_id) {
  401ef8:	687b      	ldr	r3, [r7, #4]
  401efa:	2b07      	cmp	r3, #7
  401efc:	d825      	bhi.n	401f4a <osc_get_rate+0x5a>
  401efe:	a201      	add	r2, pc, #4	; (adr r2, 401f04 <osc_get_rate+0x14>)
  401f00:	f852 f023 	ldr.w	pc, [r2, r3, lsl #2]
  401f04:	00401f25 	.word	0x00401f25
  401f08:	00401f2b 	.word	0x00401f2b
  401f0c:	00401f31 	.word	0x00401f31
  401f10:	00401f37 	.word	0x00401f37
  401f14:	00401f3b 	.word	0x00401f3b
  401f18:	00401f3f 	.word	0x00401f3f
  401f1c:	00401f43 	.word	0x00401f43
  401f20:	00401f47 	.word	0x00401f47
		return OSC_SLCK_32K_RC_HZ;
  401f24:	f44f 43fa 	mov.w	r3, #32000	; 0x7d00
  401f28:	e010      	b.n	401f4c <osc_get_rate+0x5c>
		return BOARD_FREQ_SLCK_XTAL;
  401f2a:	f44f 4300 	mov.w	r3, #32768	; 0x8000
  401f2e:	e00d      	b.n	401f4c <osc_get_rate+0x5c>
		return BOARD_FREQ_SLCK_BYPASS;
  401f30:	f44f 4300 	mov.w	r3, #32768	; 0x8000
  401f34:	e00a      	b.n	401f4c <osc_get_rate+0x5c>
		return OSC_MAINCK_4M_RC_HZ;
  401f36:	4b08      	ldr	r3, [pc, #32]	; (401f58 <osc_get_rate+0x68>)
  401f38:	e008      	b.n	401f4c <osc_get_rate+0x5c>
		return OSC_MAINCK_8M_RC_HZ;
  401f3a:	4b08      	ldr	r3, [pc, #32]	; (401f5c <osc_get_rate+0x6c>)
  401f3c:	e006      	b.n	401f4c <osc_get_rate+0x5c>
		return OSC_MAINCK_12M_RC_HZ;
  401f3e:	4b08      	ldr	r3, [pc, #32]	; (401f60 <osc_get_rate+0x70>)
  401f40:	e004      	b.n	401f4c <osc_get_rate+0x5c>
		return BOARD_FREQ_MAINCK_XTAL;
  401f42:	4b07      	ldr	r3, [pc, #28]	; (401f60 <osc_get_rate+0x70>)
  401f44:	e002      	b.n	401f4c <osc_get_rate+0x5c>
		return BOARD_FREQ_MAINCK_BYPASS;
  401f46:	4b06      	ldr	r3, [pc, #24]	; (401f60 <osc_get_rate+0x70>)
  401f48:	e000      	b.n	401f4c <osc_get_rate+0x5c>
	return 0;
  401f4a:	2300      	movs	r3, #0
}
  401f4c:	4618      	mov	r0, r3
  401f4e:	370c      	adds	r7, #12
  401f50:	46bd      	mov	sp, r7
  401f52:	bc80      	pop	{r7}
  401f54:	4770      	bx	lr
  401f56:	bf00      	nop
  401f58:	003d0900 	.word	0x003d0900
  401f5c:	007a1200 	.word	0x007a1200
  401f60:	00b71b00 	.word	0x00b71b00

00401f64 <osc_wait_ready>:
 * to become stable and ready to use as a clock source.
 *
 * \param id A number identifying the oscillator to wait for.
 */
static inline void osc_wait_ready(uint8_t id)
{
  401f64:	b580      	push	{r7, lr}
  401f66:	b082      	sub	sp, #8
  401f68:	af00      	add	r7, sp, #0
  401f6a:	4603      	mov	r3, r0
  401f6c:	71fb      	strb	r3, [r7, #7]
	while (!osc_is_ready(id)) {
  401f6e:	bf00      	nop
  401f70:	79fb      	ldrb	r3, [r7, #7]
  401f72:	4618      	mov	r0, r3
  401f74:	4b05      	ldr	r3, [pc, #20]	; (401f8c <osc_wait_ready+0x28>)
  401f76:	4798      	blx	r3
  401f78:	4603      	mov	r3, r0
  401f7a:	f083 0301 	eor.w	r3, r3, #1
  401f7e:	b2db      	uxtb	r3, r3
  401f80:	2b00      	cmp	r3, #0
  401f82:	d1f5      	bne.n	401f70 <osc_wait_ready+0xc>
		/* Do nothing */
	}
}
  401f84:	bf00      	nop
  401f86:	3708      	adds	r7, #8
  401f88:	46bd      	mov	sp, r7
  401f8a:	bd80      	pop	{r7, pc}
  401f8c:	00401e81 	.word	0x00401e81

00401f90 <pll_config_init>:
 * \note The SAM3S PLL hardware interprets mul as mul+1. For readability the hardware mul+1
 * is hidden in this implementation. Use mul as mul effective value.
 */
static inline void pll_config_init(struct pll_config *p_cfg,
		enum pll_source e_src, uint32_t ul_div, uint32_t ul_mul)
{
  401f90:	b580      	push	{r7, lr}
  401f92:	b086      	sub	sp, #24
  401f94:	af00      	add	r7, sp, #0
  401f96:	60f8      	str	r0, [r7, #12]
  401f98:	607a      	str	r2, [r7, #4]
  401f9a:	603b      	str	r3, [r7, #0]
  401f9c:	460b      	mov	r3, r1
  401f9e:	72fb      	strb	r3, [r7, #11]
	uint32_t vco_hz;

	Assert(e_src < PLL_NR_SOURCES);

	/* Calculate internal VCO frequency */
	vco_hz = osc_get_rate(e_src) / ul_div;
  401fa0:	7afb      	ldrb	r3, [r7, #11]
  401fa2:	4618      	mov	r0, r3
  401fa4:	4b0d      	ldr	r3, [pc, #52]	; (401fdc <pll_config_init+0x4c>)
  401fa6:	4798      	blx	r3
  401fa8:	4602      	mov	r2, r0
  401faa:	687b      	ldr	r3, [r7, #4]
  401fac:	fbb2 f3f3 	udiv	r3, r2, r3
  401fb0:	617b      	str	r3, [r7, #20]
	Assert(vco_hz >= PLL_INPUT_MIN_HZ);
	Assert(vco_hz <= PLL_INPUT_MAX_HZ);

	vco_hz *= ul_mul;
  401fb2:	697b      	ldr	r3, [r7, #20]
  401fb4:	683a      	ldr	r2, [r7, #0]
  401fb6:	fb02 f303 	mul.w	r3, r2, r3
  401fba:	617b      	str	r3, [r7, #20]
	Assert(vco_hz >= PLL_OUTPUT_MIN_HZ);
	Assert(vco_hz <= PLL_OUTPUT_MAX_HZ);

	/* PMC hardware will automatically make it mul+1 */
	p_cfg->ctrl = CKGR_PLLAR_MULA(ul_mul - 1) | CKGR_PLLAR_DIVA(ul_div) | CKGR_PLLAR_PLLACOUNT(PLL_COUNT);
  401fbc:	683b      	ldr	r3, [r7, #0]
  401fbe:	3b01      	subs	r3, #1
  401fc0:	041a      	lsls	r2, r3, #16
  401fc2:	4b07      	ldr	r3, [pc, #28]	; (401fe0 <pll_config_init+0x50>)
  401fc4:	4013      	ands	r3, r2
  401fc6:	687a      	ldr	r2, [r7, #4]
  401fc8:	b2d2      	uxtb	r2, r2
  401fca:	4313      	orrs	r3, r2
  401fcc:	f443 527c 	orr.w	r2, r3, #16128	; 0x3f00
  401fd0:	68fb      	ldr	r3, [r7, #12]
  401fd2:	601a      	str	r2, [r3, #0]
}
  401fd4:	bf00      	nop
  401fd6:	3718      	adds	r7, #24
  401fd8:	46bd      	mov	sp, r7
  401fda:	bd80      	pop	{r7, pc}
  401fdc:	00401ef1 	.word	0x00401ef1
  401fe0:	07ff0000 	.word	0x07ff0000

00401fe4 <pll_enable>:
		PMC->CKGR_PLLBR = p_cfg->ctrl;
	}
}

static inline void pll_enable(const struct pll_config *p_cfg, uint32_t ul_pll_id)
{
  401fe4:	b580      	push	{r7, lr}
  401fe6:	b082      	sub	sp, #8
  401fe8:	af00      	add	r7, sp, #0
  401fea:	6078      	str	r0, [r7, #4]
  401fec:	6039      	str	r1, [r7, #0]
	Assert(ul_pll_id < NR_PLLS);

	if (ul_pll_id == PLLA_ID) {
  401fee:	683b      	ldr	r3, [r7, #0]
  401ff0:	2b00      	cmp	r3, #0
  401ff2:	d108      	bne.n	402006 <pll_enable+0x22>
		pmc_disable_pllack(); // Always stop PLL first!
  401ff4:	4b09      	ldr	r3, [pc, #36]	; (40201c <pll_enable+0x38>)
  401ff6:	4798      	blx	r3
		PMC->CKGR_PLLAR = CKGR_PLLAR_ONE | p_cfg->ctrl;
  401ff8:	4a09      	ldr	r2, [pc, #36]	; (402020 <pll_enable+0x3c>)
  401ffa:	687b      	ldr	r3, [r7, #4]
  401ffc:	681b      	ldr	r3, [r3, #0]
  401ffe:	f043 5300 	orr.w	r3, r3, #536870912	; 0x20000000
  402002:	6293      	str	r3, [r2, #40]	; 0x28
	} else {
		pmc_disable_pllbck();
		PMC->CKGR_PLLBR = p_cfg->ctrl;
	}
}
  402004:	e005      	b.n	402012 <pll_enable+0x2e>
		pmc_disable_pllbck();
  402006:	4b07      	ldr	r3, [pc, #28]	; (402024 <pll_enable+0x40>)
  402008:	4798      	blx	r3
		PMC->CKGR_PLLBR = p_cfg->ctrl;
  40200a:	4a05      	ldr	r2, [pc, #20]	; (402020 <pll_enable+0x3c>)
  40200c:	687b      	ldr	r3, [r7, #4]
  40200e:	681b      	ldr	r3, [r3, #0]
  402010:	62d3      	str	r3, [r2, #44]	; 0x2c
}
  402012:	bf00      	nop
  402014:	3708      	adds	r7, #8
  402016:	46bd      	mov	sp, r7
  402018:	bd80      	pop	{r7, pc}
  40201a:	bf00      	nop
  40201c:	004028dd 	.word	0x004028dd
  402020:	400e0400 	.word	0x400e0400
  402024:	0040295d 	.word	0x0040295d

00402028 <pll_is_locked>:
		pmc_disable_pllbck();
	}
}

static inline uint32_t pll_is_locked(uint32_t ul_pll_id)
{
  402028:	b580      	push	{r7, lr}
  40202a:	b082      	sub	sp, #8
  40202c:	af00      	add	r7, sp, #0
  40202e:	6078      	str	r0, [r7, #4]
	Assert(ul_pll_id < NR_PLLS);

	if (ul_pll_id == PLLA_ID) {
  402030:	687b      	ldr	r3, [r7, #4]
  402032:	2b00      	cmp	r3, #0
  402034:	d103      	bne.n	40203e <pll_is_locked+0x16>
		return pmc_is_locked_pllack();
  402036:	4b05      	ldr	r3, [pc, #20]	; (40204c <pll_is_locked+0x24>)
  402038:	4798      	blx	r3
  40203a:	4603      	mov	r3, r0
  40203c:	e002      	b.n	402044 <pll_is_locked+0x1c>
	} else {
		return pmc_is_locked_pllbck();
  40203e:	4b04      	ldr	r3, [pc, #16]	; (402050 <pll_is_locked+0x28>)
  402040:	4798      	blx	r3
  402042:	4603      	mov	r3, r0
	}
}
  402044:	4618      	mov	r0, r3
  402046:	3708      	adds	r7, #8
  402048:	46bd      	mov	sp, r7
  40204a:	bd80      	pop	{r7, pc}
  40204c:	004028f5 	.word	0x004028f5
  402050:	00402975 	.word	0x00402975

00402054 <pll_enable_source>:

static inline void pll_enable_source(enum pll_source e_src)
{
  402054:	b580      	push	{r7, lr}
  402056:	b082      	sub	sp, #8
  402058:	af00      	add	r7, sp, #0
  40205a:	4603      	mov	r3, r0
  40205c:	71fb      	strb	r3, [r7, #7]
	switch (e_src) {
  40205e:	79fb      	ldrb	r3, [r7, #7]
  402060:	3b03      	subs	r3, #3
  402062:	2b04      	cmp	r3, #4
  402064:	d808      	bhi.n	402078 <pll_enable_source+0x24>
	case PLL_SRC_MAINCK_4M_RC:
	case PLL_SRC_MAINCK_8M_RC:
	case PLL_SRC_MAINCK_12M_RC:
	case PLL_SRC_MAINCK_XTAL:
	case PLL_SRC_MAINCK_BYPASS:
		osc_enable(e_src);
  402066:	79fb      	ldrb	r3, [r7, #7]
  402068:	4618      	mov	r0, r3
  40206a:	4b06      	ldr	r3, [pc, #24]	; (402084 <pll_enable_source+0x30>)
  40206c:	4798      	blx	r3
		osc_wait_ready(e_src);
  40206e:	79fb      	ldrb	r3, [r7, #7]
  402070:	4618      	mov	r0, r3
  402072:	4b05      	ldr	r3, [pc, #20]	; (402088 <pll_enable_source+0x34>)
  402074:	4798      	blx	r3
		break;
  402076:	e000      	b.n	40207a <pll_enable_source+0x26>

	default:
		Assert(false);
		break;
  402078:	bf00      	nop
	}
}
  40207a:	bf00      	nop
  40207c:	3708      	adds	r7, #8
  40207e:	46bd      	mov	sp, r7
  402080:	bd80      	pop	{r7, pc}
  402082:	bf00      	nop
  402084:	00401df9 	.word	0x00401df9
  402088:	00401f65 	.word	0x00401f65

0040208c <pll_wait_for_lock>:
 *
 * \retval STATUS_OK The PLL is now locked.
 * \retval ERR_TIMEOUT Timed out waiting for PLL to become locked.
 */
static inline int pll_wait_for_lock(unsigned int pll_id)
{
  40208c:	b580      	push	{r7, lr}
  40208e:	b082      	sub	sp, #8
  402090:	af00      	add	r7, sp, #0
  402092:	6078      	str	r0, [r7, #4]
	Assert(pll_id < NR_PLLS);

	while (!pll_is_locked(pll_id)) {
  402094:	bf00      	nop
  402096:	6878      	ldr	r0, [r7, #4]
  402098:	4b04      	ldr	r3, [pc, #16]	; (4020ac <pll_wait_for_lock+0x20>)
  40209a:	4798      	blx	r3
  40209c:	4603      	mov	r3, r0
  40209e:	2b00      	cmp	r3, #0
  4020a0:	d0f9      	beq.n	402096 <pll_wait_for_lock+0xa>
		/* Do nothing */
	}

	return 0;
  4020a2:	2300      	movs	r3, #0
}
  4020a4:	4618      	mov	r0, r3
  4020a6:	3708      	adds	r7, #8
  4020a8:	46bd      	mov	sp, r7
  4020aa:	bd80      	pop	{r7, pc}
  4020ac:	00402029 	.word	0x00402029

004020b0 <sysclk_get_main_hz>:
{
  4020b0:	b580      	push	{r7, lr}
  4020b2:	af00      	add	r7, sp, #0
		return pll_get_default_rate(0);
  4020b4:	2006      	movs	r0, #6
  4020b6:	4b04      	ldr	r3, [pc, #16]	; (4020c8 <sysclk_get_main_hz+0x18>)
  4020b8:	4798      	blx	r3
  4020ba:	4602      	mov	r2, r0
  4020bc:	4613      	mov	r3, r2
  4020be:	009b      	lsls	r3, r3, #2
  4020c0:	4413      	add	r3, r2
  4020c2:	009b      	lsls	r3, r3, #2
}
  4020c4:	4618      	mov	r0, r3
  4020c6:	bd80      	pop	{r7, pc}
  4020c8:	00401ef1 	.word	0x00401ef1

004020cc <sysclk_get_cpu_hz>:
{
  4020cc:	b580      	push	{r7, lr}
  4020ce:	af00      	add	r7, sp, #0
	return sysclk_get_main_hz() /
  4020d0:	4b02      	ldr	r3, [pc, #8]	; (4020dc <sysclk_get_cpu_hz+0x10>)
  4020d2:	4798      	blx	r3
  4020d4:	4603      	mov	r3, r0
  4020d6:	085b      	lsrs	r3, r3, #1
}
  4020d8:	4618      	mov	r0, r3
  4020da:	bd80      	pop	{r7, pc}
  4020dc:	004020b1 	.word	0x004020b1

004020e0 <sysclk_init>:
	pmc_disable_udpck();
}
#endif // CONFIG_USBCLK_SOURCE

void sysclk_init(void)
{
  4020e0:	b590      	push	{r4, r7, lr}
  4020e2:	b083      	sub	sp, #12
  4020e4:	af00      	add	r7, sp, #0
	/* Set flash wait state to max in case the below clock switching. */
	system_init_flash(CHIP_FREQ_CPU_MAX);
  4020e6:	4811      	ldr	r0, [pc, #68]	; (40212c <sysclk_init+0x4c>)
  4020e8:	4b11      	ldr	r3, [pc, #68]	; (402130 <sysclk_init+0x50>)
  4020ea:	4798      	blx	r3

#ifdef CONFIG_PLL0_SOURCE
	else if (CONFIG_SYSCLK_SOURCE == SYSCLK_SRC_PLLACK) {
		struct pll_config pllcfg;

		pll_enable_source(CONFIG_PLL0_SOURCE);
  4020ec:	2006      	movs	r0, #6
  4020ee:	4b11      	ldr	r3, [pc, #68]	; (402134 <sysclk_init+0x54>)
  4020f0:	4798      	blx	r3
		pll_config_defaults(&pllcfg, 0);
  4020f2:	1d38      	adds	r0, r7, #4
  4020f4:	2314      	movs	r3, #20
  4020f6:	2201      	movs	r2, #1
  4020f8:	2106      	movs	r1, #6
  4020fa:	4c0f      	ldr	r4, [pc, #60]	; (402138 <sysclk_init+0x58>)
  4020fc:	47a0      	blx	r4
		pll_enable(&pllcfg, 0);
  4020fe:	1d3b      	adds	r3, r7, #4
  402100:	2100      	movs	r1, #0
  402102:	4618      	mov	r0, r3
  402104:	4b0d      	ldr	r3, [pc, #52]	; (40213c <sysclk_init+0x5c>)
  402106:	4798      	blx	r3
		pll_wait_for_lock(0);
  402108:	2000      	movs	r0, #0
  40210a:	4b0d      	ldr	r3, [pc, #52]	; (402140 <sysclk_init+0x60>)
  40210c:	4798      	blx	r3
		pmc_switch_mck_to_pllack(CONFIG_SYSCLK_PRES);
  40210e:	2010      	movs	r0, #16
  402110:	4b0c      	ldr	r3, [pc, #48]	; (402144 <sysclk_init+0x64>)
  402112:	4798      	blx	r3
		pmc_switch_mck_to_pllbck(CONFIG_SYSCLK_PRES);
	}
#endif

	/* Update the SystemFrequency variable */
	SystemCoreClockUpdate();
  402114:	4b0c      	ldr	r3, [pc, #48]	; (402148 <sysclk_init+0x68>)
  402116:	4798      	blx	r3

	/* Set a flash wait state depending on the new cpu frequency */
	system_init_flash(sysclk_get_cpu_hz());
  402118:	4b0c      	ldr	r3, [pc, #48]	; (40214c <sysclk_init+0x6c>)
  40211a:	4798      	blx	r3
  40211c:	4603      	mov	r3, r0
  40211e:	4618      	mov	r0, r3
  402120:	4b03      	ldr	r3, [pc, #12]	; (402130 <sysclk_init+0x50>)
  402122:	4798      	blx	r3

#if (defined CONFIG_SYSCLK_DEFAULT_RETURNS_SLOW_OSC)
	/* Signal that the internal frequencies are setup */
	sysclk_initialized = 1;
#endif
}
  402124:	bf00      	nop
  402126:	370c      	adds	r7, #12
  402128:	46bd      	mov	sp, r7
  40212a:	bd90      	pop	{r4, r7, pc}
  40212c:	07270e00 	.word	0x07270e00
  402130:	00402dd9 	.word	0x00402dd9
  402134:	00402055 	.word	0x00402055
  402138:	00401f91 	.word	0x00401f91
  40213c:	00401fe5 	.word	0x00401fe5
  402140:	0040208d 	.word	0x0040208d
  402144:	0040269d 	.word	0x0040269d
  402148:	00402c41 	.word	0x00402c41
  40214c:	004020cd 	.word	0x004020cd

00402150 <pio_pull_up>:
 * \param ul_pull_up_enable Indicates if the pin(s) internal pull-up shall be
 * configured.
 */
void pio_pull_up(Pio *p_pio, const uint32_t ul_mask,
		const uint32_t ul_pull_up_enable)
{
  402150:	b480      	push	{r7}
  402152:	b085      	sub	sp, #20
  402154:	af00      	add	r7, sp, #0
  402156:	60f8      	str	r0, [r7, #12]
  402158:	60b9      	str	r1, [r7, #8]
  40215a:	607a      	str	r2, [r7, #4]
	/* Enable the pull-up(s) if necessary */
	if (ul_pull_up_enable) {
  40215c:	687b      	ldr	r3, [r7, #4]
  40215e:	2b00      	cmp	r3, #0
  402160:	d003      	beq.n	40216a <pio_pull_up+0x1a>
		p_pio->PIO_PUER = ul_mask;
  402162:	68fb      	ldr	r3, [r7, #12]
  402164:	68ba      	ldr	r2, [r7, #8]
  402166:	665a      	str	r2, [r3, #100]	; 0x64
	} else {
		p_pio->PIO_PUDR = ul_mask;
	}
}
  402168:	e002      	b.n	402170 <pio_pull_up+0x20>
		p_pio->PIO_PUDR = ul_mask;
  40216a:	68fb      	ldr	r3, [r7, #12]
  40216c:	68ba      	ldr	r2, [r7, #8]
  40216e:	661a      	str	r2, [r3, #96]	; 0x60
}
  402170:	bf00      	nop
  402172:	3714      	adds	r7, #20
  402174:	46bd      	mov	sp, r7
  402176:	bc80      	pop	{r7}
  402178:	4770      	bx	lr

0040217a <pio_set_debounce_filter>:
 * \param ul_mask Bitmask of one or more pin(s) to configure.
 * \param ul_cut_off Cuts off frequency for debouncing filter.
 */
void pio_set_debounce_filter(Pio *p_pio, const uint32_t ul_mask,
		const uint32_t ul_cut_off)
{
  40217a:	b480      	push	{r7}
  40217c:	b085      	sub	sp, #20
  40217e:	af00      	add	r7, sp, #0
  402180:	60f8      	str	r0, [r7, #12]
  402182:	60b9      	str	r1, [r7, #8]
  402184:	607a      	str	r2, [r7, #4]
#if (SAM3S || SAM3N || SAM4S || SAM4E || SAM4N || SAM4C || SAMG || SAM4CP || SAM4CM || SAMV71 || SAMV70 || SAME70 || SAMS70)
	/* Set Debouncing, 0 bit field no effect */
	p_pio->PIO_IFSCER = ul_mask;
  402186:	68fb      	ldr	r3, [r7, #12]
  402188:	68ba      	ldr	r2, [r7, #8]
  40218a:	f8c3 2084 	str.w	r2, [r3, #132]	; 0x84
	/*
	 * The debouncing filter can filter a pulse of less than 1/2 Period of a
	 * programmable Divided Slow Clock:
	 * Tdiv_slclk = ((DIV+1)*2).Tslow_clock
	 */
	p_pio->PIO_SCDR = PIO_SCDR_DIV((FREQ_SLOW_CLOCK_EXT /
  40218e:	687b      	ldr	r3, [r7, #4]
  402190:	005b      	lsls	r3, r3, #1
  402192:	f44f 4200 	mov.w	r2, #32768	; 0x8000
  402196:	fbb2 f3f3 	udiv	r3, r2, r3
  40219a:	3b01      	subs	r3, #1
  40219c:	f3c3 020d 	ubfx	r2, r3, #0, #14
  4021a0:	68fb      	ldr	r3, [r7, #12]
  4021a2:	f8c3 208c 	str.w	r2, [r3, #140]	; 0x8c
			(2 * (ul_cut_off))) - 1);
}
  4021a6:	bf00      	nop
  4021a8:	3714      	adds	r7, #20
  4021aa:	46bd      	mov	sp, r7
  4021ac:	bc80      	pop	{r7}
  4021ae:	4770      	bx	lr

004021b0 <pio_set_peripheral>:
 * \param ul_type PIO type.
 * \param ul_mask Bitmask of one or more pin(s) to configure.
 */
void pio_set_peripheral(Pio *p_pio, const pio_type_t ul_type,
		const uint32_t ul_mask)
{
  4021b0:	b480      	push	{r7}
  4021b2:	b087      	sub	sp, #28
  4021b4:	af00      	add	r7, sp, #0
  4021b6:	60f8      	str	r0, [r7, #12]
  4021b8:	60b9      	str	r1, [r7, #8]
  4021ba:	607a      	str	r2, [r7, #4]
	uint32_t ul_sr;

	/* Disable interrupts on the pin(s) */
	p_pio->PIO_IDR = ul_mask;
  4021bc:	68fb      	ldr	r3, [r7, #12]
  4021be:	687a      	ldr	r2, [r7, #4]
  4021c0:	645a      	str	r2, [r3, #68]	; 0x44

#if (SAM3S || SAM3N || SAM4S || SAM4E || SAM4N || SAM4C || SAMG || SAM4CP || SAM4CM || SAMV71 || SAMV70 || SAME70 || SAMS70)
	switch (ul_type) {
  4021c2:	68bb      	ldr	r3, [r7, #8]
  4021c4:	f1b3 5fc0 	cmp.w	r3, #402653184	; 0x18000000
  4021c8:	d04a      	beq.n	402260 <pio_set_peripheral+0xb0>
  4021ca:	f1b3 5fc0 	cmp.w	r3, #402653184	; 0x18000000
  4021ce:	d808      	bhi.n	4021e2 <pio_set_peripheral+0x32>
  4021d0:	f1b3 6f00 	cmp.w	r3, #134217728	; 0x8000000
  4021d4:	d016      	beq.n	402204 <pio_set_peripheral+0x54>
  4021d6:	f1b3 5f80 	cmp.w	r3, #268435456	; 0x10000000
  4021da:	d02c      	beq.n	402236 <pio_set_peripheral+0x86>
  4021dc:	2b00      	cmp	r3, #0
  4021de:	d069      	beq.n	4022b4 <pio_set_peripheral+0x104>
  4021e0:	e064      	b.n	4022ac <pio_set_peripheral+0xfc>
  4021e2:	f1b3 5f20 	cmp.w	r3, #671088640	; 0x28000000
  4021e6:	d065      	beq.n	4022b4 <pio_set_peripheral+0x104>
  4021e8:	f1b3 5f20 	cmp.w	r3, #671088640	; 0x28000000
  4021ec:	d803      	bhi.n	4021f6 <pio_set_peripheral+0x46>
  4021ee:	f1b3 5f00 	cmp.w	r3, #536870912	; 0x20000000
  4021f2:	d04a      	beq.n	40228a <pio_set_peripheral+0xda>
  4021f4:	e05a      	b.n	4022ac <pio_set_peripheral+0xfc>
  4021f6:	f1b3 5f40 	cmp.w	r3, #805306368	; 0x30000000
  4021fa:	d05b      	beq.n	4022b4 <pio_set_peripheral+0x104>
  4021fc:	f1b3 5f60 	cmp.w	r3, #939524096	; 0x38000000
  402200:	d058      	beq.n	4022b4 <pio_set_peripheral+0x104>
  402202:	e053      	b.n	4022ac <pio_set_peripheral+0xfc>
	case PIO_PERIPH_A:
		ul_sr = p_pio->PIO_ABCDSR[0];
  402204:	68fb      	ldr	r3, [r7, #12]
  402206:	6f1b      	ldr	r3, [r3, #112]	; 0x70
  402208:	617b      	str	r3, [r7, #20]
		p_pio->PIO_ABCDSR[0] &= (~ul_mask & ul_sr);
  40220a:	68fb      	ldr	r3, [r7, #12]
  40220c:	6f1a      	ldr	r2, [r3, #112]	; 0x70
  40220e:	687b      	ldr	r3, [r7, #4]
  402210:	43d9      	mvns	r1, r3
  402212:	697b      	ldr	r3, [r7, #20]
  402214:	400b      	ands	r3, r1
  402216:	401a      	ands	r2, r3
  402218:	68fb      	ldr	r3, [r7, #12]
  40221a:	671a      	str	r2, [r3, #112]	; 0x70

		ul_sr = p_pio->PIO_ABCDSR[1];
  40221c:	68fb      	ldr	r3, [r7, #12]
  40221e:	6f5b      	ldr	r3, [r3, #116]	; 0x74
  402220:	617b      	str	r3, [r7, #20]
		p_pio->PIO_ABCDSR[1] &= (~ul_mask & ul_sr);
  402222:	68fb      	ldr	r3, [r7, #12]
  402224:	6f5a      	ldr	r2, [r3, #116]	; 0x74
  402226:	687b      	ldr	r3, [r7, #4]
  402228:	43d9      	mvns	r1, r3
  40222a:	697b      	ldr	r3, [r7, #20]
  40222c:	400b      	ands	r3, r1
  40222e:	401a      	ands	r2, r3
  402230:	68fb      	ldr	r3, [r7, #12]
  402232:	675a      	str	r2, [r3, #116]	; 0x74
		break;
  402234:	e03a      	b.n	4022ac <pio_set_peripheral+0xfc>
	case PIO_PERIPH_B:
		ul_sr = p_pio->PIO_ABCDSR[0];
  402236:	68fb      	ldr	r3, [r7, #12]
  402238:	6f1b      	ldr	r3, [r3, #112]	; 0x70
  40223a:	617b      	str	r3, [r7, #20]
		p_pio->PIO_ABCDSR[0] = (ul_mask | ul_sr);
  40223c:	687a      	ldr	r2, [r7, #4]
  40223e:	697b      	ldr	r3, [r7, #20]
  402240:	431a      	orrs	r2, r3
  402242:	68fb      	ldr	r3, [r7, #12]
  402244:	671a      	str	r2, [r3, #112]	; 0x70

		ul_sr = p_pio->PIO_ABCDSR[1];
  402246:	68fb      	ldr	r3, [r7, #12]
  402248:	6f5b      	ldr	r3, [r3, #116]	; 0x74
  40224a:	617b      	str	r3, [r7, #20]
		p_pio->PIO_ABCDSR[1] &= (~ul_mask & ul_sr);
  40224c:	68fb      	ldr	r3, [r7, #12]
  40224e:	6f5a      	ldr	r2, [r3, #116]	; 0x74
  402250:	687b      	ldr	r3, [r7, #4]
  402252:	43d9      	mvns	r1, r3
  402254:	697b      	ldr	r3, [r7, #20]
  402256:	400b      	ands	r3, r1
  402258:	401a      	ands	r2, r3
  40225a:	68fb      	ldr	r3, [r7, #12]
  40225c:	675a      	str	r2, [r3, #116]	; 0x74
		break;
  40225e:	e025      	b.n	4022ac <pio_set_peripheral+0xfc>
#if (!SAMG)
	case PIO_PERIPH_C:
		ul_sr = p_pio->PIO_ABCDSR[0];
  402260:	68fb      	ldr	r3, [r7, #12]
  402262:	6f1b      	ldr	r3, [r3, #112]	; 0x70
  402264:	617b      	str	r3, [r7, #20]
		p_pio->PIO_ABCDSR[0] &= (~ul_mask & ul_sr);
  402266:	68fb      	ldr	r3, [r7, #12]
  402268:	6f1a      	ldr	r2, [r3, #112]	; 0x70
  40226a:	687b      	ldr	r3, [r7, #4]
  40226c:	43d9      	mvns	r1, r3
  40226e:	697b      	ldr	r3, [r7, #20]
  402270:	400b      	ands	r3, r1
  402272:	401a      	ands	r2, r3
  402274:	68fb      	ldr	r3, [r7, #12]
  402276:	671a      	str	r2, [r3, #112]	; 0x70

		ul_sr = p_pio->PIO_ABCDSR[1];
  402278:	68fb      	ldr	r3, [r7, #12]
  40227a:	6f5b      	ldr	r3, [r3, #116]	; 0x74
  40227c:	617b      	str	r3, [r7, #20]
		p_pio->PIO_ABCDSR[1] = (ul_mask | ul_sr);
  40227e:	687a      	ldr	r2, [r7, #4]
  402280:	697b      	ldr	r3, [r7, #20]
  402282:	431a      	orrs	r2, r3
  402284:	68fb      	ldr	r3, [r7, #12]
  402286:	675a      	str	r2, [r3, #116]	; 0x74
		break;
  402288:	e010      	b.n	4022ac <pio_set_peripheral+0xfc>
	case PIO_PERIPH_D:
		ul_sr = p_pio->PIO_ABCDSR[0];
  40228a:	68fb      	ldr	r3, [r7, #12]
  40228c:	6f1b      	ldr	r3, [r3, #112]	; 0x70
  40228e:	617b      	str	r3, [r7, #20]
		p_pio->PIO_ABCDSR[0] = (ul_mask | ul_sr);
  402290:	687a      	ldr	r2, [r7, #4]
  402292:	697b      	ldr	r3, [r7, #20]
  402294:	431a      	orrs	r2, r3
  402296:	68fb      	ldr	r3, [r7, #12]
  402298:	671a      	str	r2, [r3, #112]	; 0x70

		ul_sr = p_pio->PIO_ABCDSR[1];
  40229a:	68fb      	ldr	r3, [r7, #12]
  40229c:	6f5b      	ldr	r3, [r3, #116]	; 0x74
  40229e:	617b      	str	r3, [r7, #20]
		p_pio->PIO_ABCDSR[1] = (ul_mask | ul_sr);
  4022a0:	687a      	ldr	r2, [r7, #4]
  4022a2:	697b      	ldr	r3, [r7, #20]
  4022a4:	431a      	orrs	r2, r3
  4022a6:	68fb      	ldr	r3, [r7, #12]
  4022a8:	675a      	str	r2, [r3, #116]	; 0x74
		break;
  4022aa:	bf00      	nop
#else
#error "Unsupported device"
#endif

	/* Remove the pins from under the control of PIO */
	p_pio->PIO_PDR = ul_mask;
  4022ac:	68fb      	ldr	r3, [r7, #12]
  4022ae:	687a      	ldr	r2, [r7, #4]
  4022b0:	605a      	str	r2, [r3, #4]
  4022b2:	e000      	b.n	4022b6 <pio_set_peripheral+0x106>
		return;
  4022b4:	bf00      	nop
}
  4022b6:	371c      	adds	r7, #28
  4022b8:	46bd      	mov	sp, r7
  4022ba:	bc80      	pop	{r7}
  4022bc:	4770      	bx	lr
	...

004022c0 <pio_set_input>:
 * \param ul_mask Bitmask indicating which pin(s) to configure as input(s).
 * \param ul_attribute PIO attribute(s).
 */
void pio_set_input(Pio *p_pio, const uint32_t ul_mask,
		const uint32_t ul_attribute)
{
  4022c0:	b580      	push	{r7, lr}
  4022c2:	b084      	sub	sp, #16
  4022c4:	af00      	add	r7, sp, #0
  4022c6:	60f8      	str	r0, [r7, #12]
  4022c8:	60b9      	str	r1, [r7, #8]
  4022ca:	607a      	str	r2, [r7, #4]
	pio_disable_interrupt(p_pio, ul_mask);
  4022cc:	68b9      	ldr	r1, [r7, #8]
  4022ce:	68f8      	ldr	r0, [r7, #12]
  4022d0:	4b19      	ldr	r3, [pc, #100]	; (402338 <pio_set_input+0x78>)
  4022d2:	4798      	blx	r3
	pio_pull_up(p_pio, ul_mask, ul_attribute & PIO_PULLUP);
  4022d4:	687b      	ldr	r3, [r7, #4]
  4022d6:	f003 0301 	and.w	r3, r3, #1
  4022da:	461a      	mov	r2, r3
  4022dc:	68b9      	ldr	r1, [r7, #8]
  4022de:	68f8      	ldr	r0, [r7, #12]
  4022e0:	4b16      	ldr	r3, [pc, #88]	; (40233c <pio_set_input+0x7c>)
  4022e2:	4798      	blx	r3

	/* Enable Input Filter if necessary */
	if (ul_attribute & (PIO_DEGLITCH | PIO_DEBOUNCE)) {
  4022e4:	687b      	ldr	r3, [r7, #4]
  4022e6:	f003 030a 	and.w	r3, r3, #10
  4022ea:	2b00      	cmp	r3, #0
  4022ec:	d003      	beq.n	4022f6 <pio_set_input+0x36>
		p_pio->PIO_IFER = ul_mask;
  4022ee:	68fb      	ldr	r3, [r7, #12]
  4022f0:	68ba      	ldr	r2, [r7, #8]
  4022f2:	621a      	str	r2, [r3, #32]
  4022f4:	e002      	b.n	4022fc <pio_set_input+0x3c>
	} else {
		p_pio->PIO_IFDR = ul_mask;
  4022f6:	68fb      	ldr	r3, [r7, #12]
  4022f8:	68ba      	ldr	r2, [r7, #8]
  4022fa:	625a      	str	r2, [r3, #36]	; 0x24
	}

#if (SAM3S || SAM3N || SAM4S || SAM4E || SAM4N || SAM4C || SAMG || SAM4CP || SAM4CM || SAMV71 || SAMV70 || SAME70 || SAMS70)
	/* Enable de-glitch or de-bounce if necessary */
	if (ul_attribute & PIO_DEGLITCH) {
  4022fc:	687b      	ldr	r3, [r7, #4]
  4022fe:	f003 0302 	and.w	r3, r3, #2
  402302:	2b00      	cmp	r3, #0
  402304:	d004      	beq.n	402310 <pio_set_input+0x50>
		p_pio->PIO_IFSCDR = ul_mask;
  402306:	68fb      	ldr	r3, [r7, #12]
  402308:	68ba      	ldr	r2, [r7, #8]
  40230a:	f8c3 2080 	str.w	r2, [r3, #128]	; 0x80
  40230e:	e008      	b.n	402322 <pio_set_input+0x62>
	} else {
		if (ul_attribute & PIO_DEBOUNCE) {
  402310:	687b      	ldr	r3, [r7, #4]
  402312:	f003 0308 	and.w	r3, r3, #8
  402316:	2b00      	cmp	r3, #0
  402318:	d003      	beq.n	402322 <pio_set_input+0x62>
			p_pio->PIO_IFSCER = ul_mask;
  40231a:	68fb      	ldr	r3, [r7, #12]
  40231c:	68ba      	ldr	r2, [r7, #8]
  40231e:	f8c3 2084 	str.w	r2, [r3, #132]	; 0x84
#else
#error "Unsupported device"
#endif

	/* Configure pin as input */
	p_pio->PIO_ODR = ul_mask;
  402322:	68fb      	ldr	r3, [r7, #12]
  402324:	68ba      	ldr	r2, [r7, #8]
  402326:	615a      	str	r2, [r3, #20]
	p_pio->PIO_PER = ul_mask;
  402328:	68fb      	ldr	r3, [r7, #12]
  40232a:	68ba      	ldr	r2, [r7, #8]
  40232c:	601a      	str	r2, [r3, #0]
}
  40232e:	bf00      	nop
  402330:	3710      	adds	r7, #16
  402332:	46bd      	mov	sp, r7
  402334:	bd80      	pop	{r7, pc}
  402336:	bf00      	nop
  402338:	00402429 	.word	0x00402429
  40233c:	00402151 	.word	0x00402151

00402340 <pio_set_output>:
 */
void pio_set_output(Pio *p_pio, const uint32_t ul_mask,
		const uint32_t ul_default_level,
		const uint32_t ul_multidrive_enable,
		const uint32_t ul_pull_up_enable)
{
  402340:	b580      	push	{r7, lr}
  402342:	b084      	sub	sp, #16
  402344:	af00      	add	r7, sp, #0
  402346:	60f8      	str	r0, [r7, #12]
  402348:	60b9      	str	r1, [r7, #8]
  40234a:	607a      	str	r2, [r7, #4]
  40234c:	603b      	str	r3, [r7, #0]
	pio_disable_interrupt(p_pio, ul_mask);
  40234e:	68b9      	ldr	r1, [r7, #8]
  402350:	68f8      	ldr	r0, [r7, #12]
  402352:	4b12      	ldr	r3, [pc, #72]	; (40239c <pio_set_output+0x5c>)
  402354:	4798      	blx	r3
	pio_pull_up(p_pio, ul_mask, ul_pull_up_enable);
  402356:	69ba      	ldr	r2, [r7, #24]
  402358:	68b9      	ldr	r1, [r7, #8]
  40235a:	68f8      	ldr	r0, [r7, #12]
  40235c:	4b10      	ldr	r3, [pc, #64]	; (4023a0 <pio_set_output+0x60>)
  40235e:	4798      	blx	r3

	/* Enable multi-drive if necessary */
	if (ul_multidrive_enable) {
  402360:	683b      	ldr	r3, [r7, #0]
  402362:	2b00      	cmp	r3, #0
  402364:	d003      	beq.n	40236e <pio_set_output+0x2e>
		p_pio->PIO_MDER = ul_mask;
  402366:	68fb      	ldr	r3, [r7, #12]
  402368:	68ba      	ldr	r2, [r7, #8]
  40236a:	651a      	str	r2, [r3, #80]	; 0x50
  40236c:	e002      	b.n	402374 <pio_set_output+0x34>
	} else {
		p_pio->PIO_MDDR = ul_mask;
  40236e:	68fb      	ldr	r3, [r7, #12]
  402370:	68ba      	ldr	r2, [r7, #8]
  402372:	655a      	str	r2, [r3, #84]	; 0x54
	}

	/* Set default value */
	if (ul_default_level) {
  402374:	687b      	ldr	r3, [r7, #4]
  402376:	2b00      	cmp	r3, #0
  402378:	d003      	beq.n	402382 <pio_set_output+0x42>
		p_pio->PIO_SODR = ul_mask;
  40237a:	68fb      	ldr	r3, [r7, #12]
  40237c:	68ba      	ldr	r2, [r7, #8]
  40237e:	631a      	str	r2, [r3, #48]	; 0x30
  402380:	e002      	b.n	402388 <pio_set_output+0x48>
	} else {
		p_pio->PIO_CODR = ul_mask;
  402382:	68fb      	ldr	r3, [r7, #12]
  402384:	68ba      	ldr	r2, [r7, #8]
  402386:	635a      	str	r2, [r3, #52]	; 0x34
	}

	/* Configure pin(s) as output(s) */
	p_pio->PIO_OER = ul_mask;
  402388:	68fb      	ldr	r3, [r7, #12]
  40238a:	68ba      	ldr	r2, [r7, #8]
  40238c:	611a      	str	r2, [r3, #16]
	p_pio->PIO_PER = ul_mask;
  40238e:	68fb      	ldr	r3, [r7, #12]
  402390:	68ba      	ldr	r2, [r7, #8]
  402392:	601a      	str	r2, [r3, #0]
}
  402394:	bf00      	nop
  402396:	3710      	adds	r7, #16
  402398:	46bd      	mov	sp, r7
  40239a:	bd80      	pop	{r7, pc}
  40239c:	00402429 	.word	0x00402429
  4023a0:	00402151 	.word	0x00402151

004023a4 <pio_configure_interrupt>:
 * \param ul_mask Interrupt source bit map.
 * \param ul_attr Interrupt source attributes.
 */
void pio_configure_interrupt(Pio *p_pio, const uint32_t ul_mask,
		const uint32_t ul_attr)
{
  4023a4:	b480      	push	{r7}
  4023a6:	b085      	sub	sp, #20
  4023a8:	af00      	add	r7, sp, #0
  4023aa:	60f8      	str	r0, [r7, #12]
  4023ac:	60b9      	str	r1, [r7, #8]
  4023ae:	607a      	str	r2, [r7, #4]
	/* Configure additional interrupt mode registers. */
	if (ul_attr & PIO_IT_AIME) {
  4023b0:	687b      	ldr	r3, [r7, #4]
  4023b2:	f003 0310 	and.w	r3, r3, #16
  4023b6:	2b00      	cmp	r3, #0
  4023b8:	d020      	beq.n	4023fc <pio_configure_interrupt+0x58>
		/* Enable additional interrupt mode. */
		p_pio->PIO_AIMER = ul_mask;
  4023ba:	68fb      	ldr	r3, [r7, #12]
  4023bc:	68ba      	ldr	r2, [r7, #8]
  4023be:	f8c3 20b0 	str.w	r2, [r3, #176]	; 0xb0

		/* If bit field of the selected pin is 1, set as
		   Rising Edge/High level detection event. */
		if (ul_attr & PIO_IT_RE_OR_HL) {
  4023c2:	687b      	ldr	r3, [r7, #4]
  4023c4:	f003 0320 	and.w	r3, r3, #32
  4023c8:	2b00      	cmp	r3, #0
  4023ca:	d004      	beq.n	4023d6 <pio_configure_interrupt+0x32>
			/* Rising Edge or High Level */
			p_pio->PIO_REHLSR = ul_mask;
  4023cc:	68fb      	ldr	r3, [r7, #12]
  4023ce:	68ba      	ldr	r2, [r7, #8]
  4023d0:	f8c3 20d4 	str.w	r2, [r3, #212]	; 0xd4
  4023d4:	e003      	b.n	4023de <pio_configure_interrupt+0x3a>
		} else {
			/* Falling Edge or Low Level */
			p_pio->PIO_FELLSR = ul_mask;
  4023d6:	68fb      	ldr	r3, [r7, #12]
  4023d8:	68ba      	ldr	r2, [r7, #8]
  4023da:	f8c3 20d0 	str.w	r2, [r3, #208]	; 0xd0
		}

		/* If bit field of the selected pin is 1, set as
		   edge detection source. */
		if (ul_attr & PIO_IT_EDGE) {
  4023de:	687b      	ldr	r3, [r7, #4]
  4023e0:	f003 0340 	and.w	r3, r3, #64	; 0x40
  4023e4:	2b00      	cmp	r3, #0
  4023e6:	d004      	beq.n	4023f2 <pio_configure_interrupt+0x4e>
			/* Edge select */
			p_pio->PIO_ESR = ul_mask;
  4023e8:	68fb      	ldr	r3, [r7, #12]
  4023ea:	68ba      	ldr	r2, [r7, #8]
  4023ec:	f8c3 20c0 	str.w	r2, [r3, #192]	; 0xc0
		}
	} else {
		/* Disable additional interrupt mode. */
		p_pio->PIO_AIMDR = ul_mask;
	}
}
  4023f0:	e008      	b.n	402404 <pio_configure_interrupt+0x60>
			p_pio->PIO_LSR = ul_mask;
  4023f2:	68fb      	ldr	r3, [r7, #12]
  4023f4:	68ba      	ldr	r2, [r7, #8]
  4023f6:	f8c3 20c4 	str.w	r2, [r3, #196]	; 0xc4
}
  4023fa:	e003      	b.n	402404 <pio_configure_interrupt+0x60>
		p_pio->PIO_AIMDR = ul_mask;
  4023fc:	68fb      	ldr	r3, [r7, #12]
  4023fe:	68ba      	ldr	r2, [r7, #8]
  402400:	f8c3 20b4 	str.w	r2, [r3, #180]	; 0xb4
}
  402404:	bf00      	nop
  402406:	3714      	adds	r7, #20
  402408:	46bd      	mov	sp, r7
  40240a:	bc80      	pop	{r7}
  40240c:	4770      	bx	lr

0040240e <pio_enable_interrupt>:
 *
 * \param p_pio Pointer to a PIO instance.
 * \param ul_mask Interrupt sources bit map.
 */
void pio_enable_interrupt(Pio *p_pio, const uint32_t ul_mask)
{
  40240e:	b480      	push	{r7}
  402410:	b083      	sub	sp, #12
  402412:	af00      	add	r7, sp, #0
  402414:	6078      	str	r0, [r7, #4]
  402416:	6039      	str	r1, [r7, #0]
	p_pio->PIO_IER = ul_mask;
  402418:	687b      	ldr	r3, [r7, #4]
  40241a:	683a      	ldr	r2, [r7, #0]
  40241c:	641a      	str	r2, [r3, #64]	; 0x40
}
  40241e:	bf00      	nop
  402420:	370c      	adds	r7, #12
  402422:	46bd      	mov	sp, r7
  402424:	bc80      	pop	{r7}
  402426:	4770      	bx	lr

00402428 <pio_disable_interrupt>:
 *
 * \param p_pio Pointer to a PIO instance.
 * \param ul_mask Interrupt sources bit map.
 */
void pio_disable_interrupt(Pio *p_pio, const uint32_t ul_mask)
{
  402428:	b480      	push	{r7}
  40242a:	b083      	sub	sp, #12
  40242c:	af00      	add	r7, sp, #0
  40242e:	6078      	str	r0, [r7, #4]
  402430:	6039      	str	r1, [r7, #0]
	p_pio->PIO_IDR = ul_mask;
  402432:	687b      	ldr	r3, [r7, #4]
  402434:	683a      	ldr	r2, [r7, #0]
  402436:	645a      	str	r2, [r3, #68]	; 0x44
}
  402438:	bf00      	nop
  40243a:	370c      	adds	r7, #12
  40243c:	46bd      	mov	sp, r7
  40243e:	bc80      	pop	{r7}
  402440:	4770      	bx	lr

00402442 <pio_get_interrupt_status>:
 * \param p_pio Pointer to a PIO instance.
 *
 * \return The interrupt status value.
 */
uint32_t pio_get_interrupt_status(const Pio *p_pio)
{
  402442:	b480      	push	{r7}
  402444:	b083      	sub	sp, #12
  402446:	af00      	add	r7, sp, #0
  402448:	6078      	str	r0, [r7, #4]
	return p_pio->PIO_ISR;
  40244a:	687b      	ldr	r3, [r7, #4]
  40244c:	6cdb      	ldr	r3, [r3, #76]	; 0x4c
}
  40244e:	4618      	mov	r0, r3
  402450:	370c      	adds	r7, #12
  402452:	46bd      	mov	sp, r7
  402454:	bc80      	pop	{r7}
  402456:	4770      	bx	lr

00402458 <pio_get_interrupt_mask>:
 * \param p_pio Pointer to a PIO instance.
 *
 * \return The interrupt mask value.
 */
uint32_t pio_get_interrupt_mask(const Pio *p_pio)
{
  402458:	b480      	push	{r7}
  40245a:	b083      	sub	sp, #12
  40245c:	af00      	add	r7, sp, #0
  40245e:	6078      	str	r0, [r7, #4]
	return p_pio->PIO_IMR;
  402460:	687b      	ldr	r3, [r7, #4]
  402462:	6c9b      	ldr	r3, [r3, #72]	; 0x48
}
  402464:	4618      	mov	r0, r3
  402466:	370c      	adds	r7, #12
  402468:	46bd      	mov	sp, r7
  40246a:	bc80      	pop	{r7}
  40246c:	4770      	bx	lr
	...

00402470 <pio_configure_pin>:
 * \param ul_flags Pins attributes.
 *
 * \return Whether the pin(s) have been configured properly.
 */
uint32_t pio_configure_pin(uint32_t ul_pin, const uint32_t ul_flags)
{
  402470:	b590      	push	{r4, r7, lr}
  402472:	b087      	sub	sp, #28
  402474:	af02      	add	r7, sp, #8
  402476:	6078      	str	r0, [r7, #4]
  402478:	6039      	str	r1, [r7, #0]
	Pio *p_pio = pio_get_pin_group(ul_pin);
  40247a:	6878      	ldr	r0, [r7, #4]
  40247c:	4b63      	ldr	r3, [pc, #396]	; (40260c <pio_configure_pin+0x19c>)
  40247e:	4798      	blx	r3
  402480:	60f8      	str	r0, [r7, #12]

	/* Configure pins */
	switch (ul_flags & PIO_TYPE_Msk) {
  402482:	683b      	ldr	r3, [r7, #0]
  402484:	f003 43f0 	and.w	r3, r3, #2013265920	; 0x78000000
  402488:	f1b3 5f00 	cmp.w	r3, #536870912	; 0x20000000
  40248c:	d067      	beq.n	40255e <pio_configure_pin+0xee>
  40248e:	f1b3 5f00 	cmp.w	r3, #536870912	; 0x20000000
  402492:	d809      	bhi.n	4024a8 <pio_configure_pin+0x38>
  402494:	f1b3 5f80 	cmp.w	r3, #268435456	; 0x10000000
  402498:	d02b      	beq.n	4024f2 <pio_configure_pin+0x82>
  40249a:	f1b3 5fc0 	cmp.w	r3, #402653184	; 0x18000000
  40249e:	d043      	beq.n	402528 <pio_configure_pin+0xb8>
  4024a0:	f1b3 6f00 	cmp.w	r3, #134217728	; 0x8000000
  4024a4:	d00a      	beq.n	4024bc <pio_configure_pin+0x4c>
  4024a6:	e0a9      	b.n	4025fc <pio_configure_pin+0x18c>
  4024a8:	f1b3 5f40 	cmp.w	r3, #805306368	; 0x30000000
  4024ac:	d07e      	beq.n	4025ac <pio_configure_pin+0x13c>
  4024ae:	f1b3 5f60 	cmp.w	r3, #939524096	; 0x38000000
  4024b2:	d07b      	beq.n	4025ac <pio_configure_pin+0x13c>
  4024b4:	f1b3 5f20 	cmp.w	r3, #671088640	; 0x28000000
  4024b8:	d06c      	beq.n	402594 <pio_configure_pin+0x124>
  4024ba:	e09f      	b.n	4025fc <pio_configure_pin+0x18c>
	case PIO_TYPE_PIO_PERIPH_A:
		pio_set_peripheral(p_pio, PIO_PERIPH_A, (1 << (ul_pin & 0x1F)));
  4024bc:	687b      	ldr	r3, [r7, #4]
  4024be:	f003 031f 	and.w	r3, r3, #31
  4024c2:	2201      	movs	r2, #1
  4024c4:	fa02 f303 	lsl.w	r3, r2, r3
  4024c8:	461a      	mov	r2, r3
  4024ca:	f04f 6100 	mov.w	r1, #134217728	; 0x8000000
  4024ce:	68f8      	ldr	r0, [r7, #12]
  4024d0:	4b4f      	ldr	r3, [pc, #316]	; (402610 <pio_configure_pin+0x1a0>)
  4024d2:	4798      	blx	r3
		pio_pull_up(p_pio, (1 << (ul_pin & 0x1F)),
  4024d4:	687b      	ldr	r3, [r7, #4]
  4024d6:	f003 031f 	and.w	r3, r3, #31
  4024da:	2201      	movs	r2, #1
  4024dc:	fa02 f303 	lsl.w	r3, r2, r3
  4024e0:	4619      	mov	r1, r3
  4024e2:	683b      	ldr	r3, [r7, #0]
  4024e4:	f003 0301 	and.w	r3, r3, #1
  4024e8:	461a      	mov	r2, r3
  4024ea:	68f8      	ldr	r0, [r7, #12]
  4024ec:	4b49      	ldr	r3, [pc, #292]	; (402614 <pio_configure_pin+0x1a4>)
  4024ee:	4798      	blx	r3
				(ul_flags & PIO_PULLUP));
		break;
  4024f0:	e086      	b.n	402600 <pio_configure_pin+0x190>
	case PIO_TYPE_PIO_PERIPH_B:
		pio_set_peripheral(p_pio, PIO_PERIPH_B, (1 << (ul_pin & 0x1F)));
  4024f2:	687b      	ldr	r3, [r7, #4]
  4024f4:	f003 031f 	and.w	r3, r3, #31
  4024f8:	2201      	movs	r2, #1
  4024fa:	fa02 f303 	lsl.w	r3, r2, r3
  4024fe:	461a      	mov	r2, r3
  402500:	f04f 5180 	mov.w	r1, #268435456	; 0x10000000
  402504:	68f8      	ldr	r0, [r7, #12]
  402506:	4b42      	ldr	r3, [pc, #264]	; (402610 <pio_configure_pin+0x1a0>)
  402508:	4798      	blx	r3
		pio_pull_up(p_pio, (1 << (ul_pin & 0x1F)),
  40250a:	687b      	ldr	r3, [r7, #4]
  40250c:	f003 031f 	and.w	r3, r3, #31
  402510:	2201      	movs	r2, #1
  402512:	fa02 f303 	lsl.w	r3, r2, r3
  402516:	4619      	mov	r1, r3
  402518:	683b      	ldr	r3, [r7, #0]
  40251a:	f003 0301 	and.w	r3, r3, #1
  40251e:	461a      	mov	r2, r3
  402520:	68f8      	ldr	r0, [r7, #12]
  402522:	4b3c      	ldr	r3, [pc, #240]	; (402614 <pio_configure_pin+0x1a4>)
  402524:	4798      	blx	r3
				(ul_flags & PIO_PULLUP));
		break;
  402526:	e06b      	b.n	402600 <pio_configure_pin+0x190>
#if (SAM3S || SAM3N || SAM4S || SAM4E || SAM4N || SAM4C || SAM4CP || SAM4CM || SAMV71 || SAMV70 || SAME70 || SAMS70)
	case PIO_TYPE_PIO_PERIPH_C:
		pio_set_peripheral(p_pio, PIO_PERIPH_C, (1 << (ul_pin & 0x1F)));
  402528:	687b      	ldr	r3, [r7, #4]
  40252a:	f003 031f 	and.w	r3, r3, #31
  40252e:	2201      	movs	r2, #1
  402530:	fa02 f303 	lsl.w	r3, r2, r3
  402534:	461a      	mov	r2, r3
  402536:	f04f 51c0 	mov.w	r1, #402653184	; 0x18000000
  40253a:	68f8      	ldr	r0, [r7, #12]
  40253c:	4b34      	ldr	r3, [pc, #208]	; (402610 <pio_configure_pin+0x1a0>)
  40253e:	4798      	blx	r3
		pio_pull_up(p_pio, (1 << (ul_pin & 0x1F)),
  402540:	687b      	ldr	r3, [r7, #4]
  402542:	f003 031f 	and.w	r3, r3, #31
  402546:	2201      	movs	r2, #1
  402548:	fa02 f303 	lsl.w	r3, r2, r3
  40254c:	4619      	mov	r1, r3
  40254e:	683b      	ldr	r3, [r7, #0]
  402550:	f003 0301 	and.w	r3, r3, #1
  402554:	461a      	mov	r2, r3
  402556:	68f8      	ldr	r0, [r7, #12]
  402558:	4b2e      	ldr	r3, [pc, #184]	; (402614 <pio_configure_pin+0x1a4>)
  40255a:	4798      	blx	r3
				(ul_flags & PIO_PULLUP));
		break;
  40255c:	e050      	b.n	402600 <pio_configure_pin+0x190>
	case PIO_TYPE_PIO_PERIPH_D:
		pio_set_peripheral(p_pio, PIO_PERIPH_D, (1 << (ul_pin & 0x1F)));
  40255e:	687b      	ldr	r3, [r7, #4]
  402560:	f003 031f 	and.w	r3, r3, #31
  402564:	2201      	movs	r2, #1
  402566:	fa02 f303 	lsl.w	r3, r2, r3
  40256a:	461a      	mov	r2, r3
  40256c:	f04f 5100 	mov.w	r1, #536870912	; 0x20000000
  402570:	68f8      	ldr	r0, [r7, #12]
  402572:	4b27      	ldr	r3, [pc, #156]	; (402610 <pio_configure_pin+0x1a0>)
  402574:	4798      	blx	r3
		pio_pull_up(p_pio, (1 << (ul_pin & 0x1F)),
  402576:	687b      	ldr	r3, [r7, #4]
  402578:	f003 031f 	and.w	r3, r3, #31
  40257c:	2201      	movs	r2, #1
  40257e:	fa02 f303 	lsl.w	r3, r2, r3
  402582:	4619      	mov	r1, r3
  402584:	683b      	ldr	r3, [r7, #0]
  402586:	f003 0301 	and.w	r3, r3, #1
  40258a:	461a      	mov	r2, r3
  40258c:	68f8      	ldr	r0, [r7, #12]
  40258e:	4b21      	ldr	r3, [pc, #132]	; (402614 <pio_configure_pin+0x1a4>)
  402590:	4798      	blx	r3
				(ul_flags & PIO_PULLUP));
		break;
  402592:	e035      	b.n	402600 <pio_configure_pin+0x190>
#endif

	case PIO_TYPE_PIO_INPUT:
		pio_set_input(p_pio, (1 << (ul_pin & 0x1F)), ul_flags);
  402594:	687b      	ldr	r3, [r7, #4]
  402596:	f003 031f 	and.w	r3, r3, #31
  40259a:	2201      	movs	r2, #1
  40259c:	fa02 f303 	lsl.w	r3, r2, r3
  4025a0:	683a      	ldr	r2, [r7, #0]
  4025a2:	4619      	mov	r1, r3
  4025a4:	68f8      	ldr	r0, [r7, #12]
  4025a6:	4b1c      	ldr	r3, [pc, #112]	; (402618 <pio_configure_pin+0x1a8>)
  4025a8:	4798      	blx	r3
		break;
  4025aa:	e029      	b.n	402600 <pio_configure_pin+0x190>

	case PIO_TYPE_PIO_OUTPUT_0:
	case PIO_TYPE_PIO_OUTPUT_1:
		pio_set_output(p_pio, (1 << (ul_pin & 0x1F)),
  4025ac:	687b      	ldr	r3, [r7, #4]
  4025ae:	f003 031f 	and.w	r3, r3, #31
  4025b2:	2201      	movs	r2, #1
  4025b4:	fa02 f303 	lsl.w	r3, r2, r3
  4025b8:	4619      	mov	r1, r3
				((ul_flags & PIO_TYPE_PIO_OUTPUT_1)
  4025ba:	683b      	ldr	r3, [r7, #0]
  4025bc:	f003 5360 	and.w	r3, r3, #939524096	; 0x38000000
		pio_set_output(p_pio, (1 << (ul_pin & 0x1F)),
  4025c0:	f1b3 5f60 	cmp.w	r3, #939524096	; 0x38000000
  4025c4:	bf0c      	ite	eq
  4025c6:	2301      	moveq	r3, #1
  4025c8:	2300      	movne	r3, #0
  4025ca:	b2db      	uxtb	r3, r3
  4025cc:	461a      	mov	r2, r3
				== PIO_TYPE_PIO_OUTPUT_1) ? 1 : 0,
				(ul_flags & PIO_OPENDRAIN) ? 1 : 0,
  4025ce:	683b      	ldr	r3, [r7, #0]
  4025d0:	f003 0304 	and.w	r3, r3, #4
		pio_set_output(p_pio, (1 << (ul_pin & 0x1F)),
  4025d4:	2b00      	cmp	r3, #0
  4025d6:	bf14      	ite	ne
  4025d8:	2301      	movne	r3, #1
  4025da:	2300      	moveq	r3, #0
  4025dc:	b2db      	uxtb	r3, r3
  4025de:	4618      	mov	r0, r3
				(ul_flags & PIO_PULLUP) ? 1 : 0);
  4025e0:	683b      	ldr	r3, [r7, #0]
  4025e2:	f003 0301 	and.w	r3, r3, #1
		pio_set_output(p_pio, (1 << (ul_pin & 0x1F)),
  4025e6:	2b00      	cmp	r3, #0
  4025e8:	bf14      	ite	ne
  4025ea:	2301      	movne	r3, #1
  4025ec:	2300      	moveq	r3, #0
  4025ee:	b2db      	uxtb	r3, r3
  4025f0:	9300      	str	r3, [sp, #0]
  4025f2:	4603      	mov	r3, r0
  4025f4:	68f8      	ldr	r0, [r7, #12]
  4025f6:	4c09      	ldr	r4, [pc, #36]	; (40261c <pio_configure_pin+0x1ac>)
  4025f8:	47a0      	blx	r4
		break;
  4025fa:	e001      	b.n	402600 <pio_configure_pin+0x190>

	default:
		return 0;
  4025fc:	2300      	movs	r3, #0
  4025fe:	e000      	b.n	402602 <pio_configure_pin+0x192>
	}

	return 1;
  402600:	2301      	movs	r3, #1
}
  402602:	4618      	mov	r0, r3
  402604:	3714      	adds	r7, #20
  402606:	46bd      	mov	sp, r7
  402608:	bd90      	pop	{r4, r7, pc}
  40260a:	bf00      	nop
  40260c:	00402621 	.word	0x00402621
  402610:	004021b1 	.word	0x004021b1
  402614:	00402151 	.word	0x00402151
  402618:	004022c1 	.word	0x004022c1
  40261c:	00402341 	.word	0x00402341

00402620 <pio_get_pin_group>:
 * \param ul_pin The pin index.
 *
 * \return Pointer to \ref Pio struct for GPIO port.
 */
Pio *pio_get_pin_group(uint32_t ul_pin)
{
  402620:	b480      	push	{r7}
  402622:	b085      	sub	sp, #20
  402624:	af00      	add	r7, sp, #0
  402626:	6078      	str	r0, [r7, #4]
		p_pio = PIOC;
	} else {
		p_pio = (Pio *)((uint32_t)PIOA + (PIO_DELTA * (ul_pin >> 5)));
	}
#else
	p_pio = (Pio *)((uint32_t)PIOA + (PIO_DELTA * (ul_pin >> 5)));
  402628:	687b      	ldr	r3, [r7, #4]
  40262a:	095b      	lsrs	r3, r3, #5
  40262c:	f503 1300 	add.w	r3, r3, #2097152	; 0x200000
  402630:	f203 7307 	addw	r3, r3, #1799	; 0x707
  402634:	025b      	lsls	r3, r3, #9
  402636:	60fb      	str	r3, [r7, #12]
#endif
	return p_pio;
  402638:	68fb      	ldr	r3, [r7, #12]
}
  40263a:	4618      	mov	r0, r3
  40263c:	3714      	adds	r7, #20
  40263e:	46bd      	mov	sp, r7
  402640:	bc80      	pop	{r7}
  402642:	4770      	bx	lr

00402644 <pio_capture_enable>:
 * \brief Enable PIO capture mode.
 *
 * \param p_pio Pointer to a PIO instance.
 */
void pio_capture_enable(Pio *p_pio)
{
  402644:	b480      	push	{r7}
  402646:	b083      	sub	sp, #12
  402648:	af00      	add	r7, sp, #0
  40264a:	6078      	str	r0, [r7, #4]
	p_pio->PIO_PCMR |= PIO_PCMR_PCEN;
  40264c:	687b      	ldr	r3, [r7, #4]
  40264e:	f8d3 3150 	ldr.w	r3, [r3, #336]	; 0x150
  402652:	f043 0201 	orr.w	r2, r3, #1
  402656:	687b      	ldr	r3, [r7, #4]
  402658:	f8c3 2150 	str.w	r2, [r3, #336]	; 0x150
	pio_capture_enable_flag = true;
  40265c:	4b03      	ldr	r3, [pc, #12]	; (40266c <pio_capture_enable+0x28>)
  40265e:	2201      	movs	r2, #1
  402660:	601a      	str	r2, [r3, #0]
}
  402662:	bf00      	nop
  402664:	370c      	adds	r7, #12
  402666:	46bd      	mov	sp, r7
  402668:	bc80      	pop	{r7}
  40266a:	4770      	bx	lr
  40266c:	20019538 	.word	0x20019538

00402670 <pio_capture_disable>:
 * \brief Disable PIO capture mode.
 *
 * \param p_pio Pointer to a PIO instance.
 */
void pio_capture_disable(Pio *p_pio)
{
  402670:	b480      	push	{r7}
  402672:	b083      	sub	sp, #12
  402674:	af00      	add	r7, sp, #0
  402676:	6078      	str	r0, [r7, #4]
	p_pio->PIO_PCMR &= (~PIO_PCMR_PCEN);
  402678:	687b      	ldr	r3, [r7, #4]
  40267a:	f8d3 3150 	ldr.w	r3, [r3, #336]	; 0x150
  40267e:	f023 0201 	bic.w	r2, r3, #1
  402682:	687b      	ldr	r3, [r7, #4]
  402684:	f8c3 2150 	str.w	r2, [r3, #336]	; 0x150
	pio_capture_enable_flag = false;
  402688:	4b03      	ldr	r3, [pc, #12]	; (402698 <pio_capture_disable+0x28>)
  40268a:	2200      	movs	r2, #0
  40268c:	601a      	str	r2, [r3, #0]
}
  40268e:	bf00      	nop
  402690:	370c      	adds	r7, #12
  402692:	46bd      	mov	sp, r7
  402694:	bc80      	pop	{r7}
  402696:	4770      	bx	lr
  402698:	20019538 	.word	0x20019538

0040269c <pmc_switch_mck_to_pllack>:
 *
 * \retval 0 Success.
 * \retval 1 Timeout error.
 */
uint32_t pmc_switch_mck_to_pllack(uint32_t ul_pres)
{
  40269c:	b480      	push	{r7}
  40269e:	b085      	sub	sp, #20
  4026a0:	af00      	add	r7, sp, #0
  4026a2:	6078      	str	r0, [r7, #4]
	uint32_t ul_timeout;

	PMC->PMC_MCKR = (PMC->PMC_MCKR & (~PMC_MCKR_PRES_Msk)) | ul_pres;
  4026a4:	491c      	ldr	r1, [pc, #112]	; (402718 <pmc_switch_mck_to_pllack+0x7c>)
  4026a6:	4b1c      	ldr	r3, [pc, #112]	; (402718 <pmc_switch_mck_to_pllack+0x7c>)
  4026a8:	6b1b      	ldr	r3, [r3, #48]	; 0x30
  4026aa:	f023 0270 	bic.w	r2, r3, #112	; 0x70
  4026ae:	687b      	ldr	r3, [r7, #4]
  4026b0:	4313      	orrs	r3, r2
  4026b2:	630b      	str	r3, [r1, #48]	; 0x30
	for (ul_timeout = PMC_TIMEOUT; !(PMC->PMC_SR & PMC_SR_MCKRDY);
  4026b4:	f44f 6300 	mov.w	r3, #2048	; 0x800
  4026b8:	60fb      	str	r3, [r7, #12]
  4026ba:	e007      	b.n	4026cc <pmc_switch_mck_to_pllack+0x30>
			--ul_timeout) {
		if (ul_timeout == 0) {
  4026bc:	68fb      	ldr	r3, [r7, #12]
  4026be:	2b00      	cmp	r3, #0
  4026c0:	d101      	bne.n	4026c6 <pmc_switch_mck_to_pllack+0x2a>
			return 1;
  4026c2:	2301      	movs	r3, #1
  4026c4:	e023      	b.n	40270e <pmc_switch_mck_to_pllack+0x72>
			--ul_timeout) {
  4026c6:	68fb      	ldr	r3, [r7, #12]
  4026c8:	3b01      	subs	r3, #1
  4026ca:	60fb      	str	r3, [r7, #12]
	for (ul_timeout = PMC_TIMEOUT; !(PMC->PMC_SR & PMC_SR_MCKRDY);
  4026cc:	4b12      	ldr	r3, [pc, #72]	; (402718 <pmc_switch_mck_to_pllack+0x7c>)
  4026ce:	6e9b      	ldr	r3, [r3, #104]	; 0x68
  4026d0:	f003 0308 	and.w	r3, r3, #8
  4026d4:	2b00      	cmp	r3, #0
  4026d6:	d0f1      	beq.n	4026bc <pmc_switch_mck_to_pllack+0x20>
		}
	}

	PMC->PMC_MCKR = (PMC->PMC_MCKR & (~PMC_MCKR_CSS_Msk)) |
  4026d8:	4a0f      	ldr	r2, [pc, #60]	; (402718 <pmc_switch_mck_to_pllack+0x7c>)
  4026da:	4b0f      	ldr	r3, [pc, #60]	; (402718 <pmc_switch_mck_to_pllack+0x7c>)
  4026dc:	6b1b      	ldr	r3, [r3, #48]	; 0x30
  4026de:	f023 0303 	bic.w	r3, r3, #3
  4026e2:	f043 0302 	orr.w	r3, r3, #2
  4026e6:	6313      	str	r3, [r2, #48]	; 0x30
			PMC_MCKR_CSS_PLLA_CLK;

	for (ul_timeout = PMC_TIMEOUT; !(PMC->PMC_SR & PMC_SR_MCKRDY);
  4026e8:	f44f 6300 	mov.w	r3, #2048	; 0x800
  4026ec:	60fb      	str	r3, [r7, #12]
  4026ee:	e007      	b.n	402700 <pmc_switch_mck_to_pllack+0x64>
			--ul_timeout) {
		if (ul_timeout == 0) {
  4026f0:	68fb      	ldr	r3, [r7, #12]
  4026f2:	2b00      	cmp	r3, #0
  4026f4:	d101      	bne.n	4026fa <pmc_switch_mck_to_pllack+0x5e>
			return 1;
  4026f6:	2301      	movs	r3, #1
  4026f8:	e009      	b.n	40270e <pmc_switch_mck_to_pllack+0x72>
			--ul_timeout) {
  4026fa:	68fb      	ldr	r3, [r7, #12]
  4026fc:	3b01      	subs	r3, #1
  4026fe:	60fb      	str	r3, [r7, #12]
	for (ul_timeout = PMC_TIMEOUT; !(PMC->PMC_SR & PMC_SR_MCKRDY);
  402700:	4b05      	ldr	r3, [pc, #20]	; (402718 <pmc_switch_mck_to_pllack+0x7c>)
  402702:	6e9b      	ldr	r3, [r3, #104]	; 0x68
  402704:	f003 0308 	and.w	r3, r3, #8
  402708:	2b00      	cmp	r3, #0
  40270a:	d0f1      	beq.n	4026f0 <pmc_switch_mck_to_pllack+0x54>
		}
	}

	return 0;
  40270c:	2300      	movs	r3, #0
}
  40270e:	4618      	mov	r0, r3
  402710:	3714      	adds	r7, #20
  402712:	46bd      	mov	sp, r7
  402714:	bc80      	pop	{r7}
  402716:	4770      	bx	lr
  402718:	400e0400 	.word	0x400e0400

0040271c <pmc_switch_sclk_to_32kxtal>:
 *       VDDIO power supply.
 *
 * \param ul_bypass 0 for Xtal, 1 for bypass.
 */
void pmc_switch_sclk_to_32kxtal(uint32_t ul_bypass)
{
  40271c:	b480      	push	{r7}
  40271e:	b083      	sub	sp, #12
  402720:	af00      	add	r7, sp, #0
  402722:	6078      	str	r0, [r7, #4]
	/* Set Bypass mode if required */
	if (ul_bypass == 1) {
  402724:	687b      	ldr	r3, [r7, #4]
  402726:	2b01      	cmp	r3, #1
  402728:	d107      	bne.n	40273a <pmc_switch_sclk_to_32kxtal+0x1e>
		SUPC->SUPC_MR |= SUPC_MR_KEY_PASSWD |
  40272a:	4a08      	ldr	r2, [pc, #32]	; (40274c <pmc_switch_sclk_to_32kxtal+0x30>)
  40272c:	4b07      	ldr	r3, [pc, #28]	; (40274c <pmc_switch_sclk_to_32kxtal+0x30>)
  40272e:	689b      	ldr	r3, [r3, #8]
  402730:	f043 4325 	orr.w	r3, r3, #2768240640	; 0xa5000000
  402734:	f443 1380 	orr.w	r3, r3, #1048576	; 0x100000
  402738:	6093      	str	r3, [r2, #8]
			SUPC_MR_OSCBYPASS;
	}

	SUPC->SUPC_CR = SUPC_CR_KEY_PASSWD | SUPC_CR_XTALSEL;
  40273a:	4b04      	ldr	r3, [pc, #16]	; (40274c <pmc_switch_sclk_to_32kxtal+0x30>)
  40273c:	4a04      	ldr	r2, [pc, #16]	; (402750 <pmc_switch_sclk_to_32kxtal+0x34>)
  40273e:	601a      	str	r2, [r3, #0]
}
  402740:	bf00      	nop
  402742:	370c      	adds	r7, #12
  402744:	46bd      	mov	sp, r7
  402746:	bc80      	pop	{r7}
  402748:	4770      	bx	lr
  40274a:	bf00      	nop
  40274c:	400e1410 	.word	0x400e1410
  402750:	a5000008 	.word	0xa5000008

00402754 <pmc_osc_is_ready_32kxtal>:
 *
 * \retval 1 External 32k Xtal is ready.
 * \retval 0 External 32k Xtal is not ready.
 */
uint32_t pmc_osc_is_ready_32kxtal(void)
{
  402754:	b480      	push	{r7}
  402756:	af00      	add	r7, sp, #0
	return ((SUPC->SUPC_SR & SUPC_SR_OSCSEL)
  402758:	4b09      	ldr	r3, [pc, #36]	; (402780 <pmc_osc_is_ready_32kxtal+0x2c>)
  40275a:	695b      	ldr	r3, [r3, #20]
  40275c:	f003 0380 	and.w	r3, r3, #128	; 0x80
			&& (PMC->PMC_SR & PMC_SR_OSCSELS));
  402760:	2b00      	cmp	r3, #0
  402762:	d007      	beq.n	402774 <pmc_osc_is_ready_32kxtal+0x20>
  402764:	4b07      	ldr	r3, [pc, #28]	; (402784 <pmc_osc_is_ready_32kxtal+0x30>)
  402766:	6e9b      	ldr	r3, [r3, #104]	; 0x68
  402768:	f003 0380 	and.w	r3, r3, #128	; 0x80
  40276c:	2b00      	cmp	r3, #0
  40276e:	d001      	beq.n	402774 <pmc_osc_is_ready_32kxtal+0x20>
  402770:	2301      	movs	r3, #1
  402772:	e000      	b.n	402776 <pmc_osc_is_ready_32kxtal+0x22>
  402774:	2300      	movs	r3, #0
}
  402776:	4618      	mov	r0, r3
  402778:	46bd      	mov	sp, r7
  40277a:	bc80      	pop	{r7}
  40277c:	4770      	bx	lr
  40277e:	bf00      	nop
  402780:	400e1410 	.word	0x400e1410
  402784:	400e0400 	.word	0x400e0400

00402788 <pmc_switch_mainck_to_fastrc>:
 * \retval 0 Success.
 * \retval 1 Timeout error.
 * \retval 2 Invalid frequency.
 */
void pmc_switch_mainck_to_fastrc(uint32_t ul_moscrcf)
{
  402788:	b480      	push	{r7}
  40278a:	b083      	sub	sp, #12
  40278c:	af00      	add	r7, sp, #0
  40278e:	6078      	str	r0, [r7, #4]
	/* Enable Fast RC oscillator but DO NOT switch to RC now */
	PMC->CKGR_MOR |= (CKGR_MOR_KEY_PASSWD | CKGR_MOR_MOSCRCEN);
  402790:	4a18      	ldr	r2, [pc, #96]	; (4027f4 <pmc_switch_mainck_to_fastrc+0x6c>)
  402792:	4b18      	ldr	r3, [pc, #96]	; (4027f4 <pmc_switch_mainck_to_fastrc+0x6c>)
  402794:	6a1b      	ldr	r3, [r3, #32]
  402796:	f443 135c 	orr.w	r3, r3, #3604480	; 0x370000
  40279a:	f043 0308 	orr.w	r3, r3, #8
  40279e:	6213      	str	r3, [r2, #32]

	/* Wait the Fast RC to stabilize */
	while (!(PMC->PMC_SR & PMC_SR_MOSCRCS));
  4027a0:	bf00      	nop
  4027a2:	4b14      	ldr	r3, [pc, #80]	; (4027f4 <pmc_switch_mainck_to_fastrc+0x6c>)
  4027a4:	6e9b      	ldr	r3, [r3, #104]	; 0x68
  4027a6:	f403 3300 	and.w	r3, r3, #131072	; 0x20000
  4027aa:	2b00      	cmp	r3, #0
  4027ac:	d0f9      	beq.n	4027a2 <pmc_switch_mainck_to_fastrc+0x1a>

	/* Change Fast RC oscillator frequency */
	PMC->CKGR_MOR = (PMC->CKGR_MOR & ~CKGR_MOR_MOSCRCF_Msk) |
  4027ae:	4911      	ldr	r1, [pc, #68]	; (4027f4 <pmc_switch_mainck_to_fastrc+0x6c>)
  4027b0:	4b10      	ldr	r3, [pc, #64]	; (4027f4 <pmc_switch_mainck_to_fastrc+0x6c>)
  4027b2:	6a1b      	ldr	r3, [r3, #32]
  4027b4:	f423 135c 	bic.w	r3, r3, #3604480	; 0x370000
  4027b8:	f023 0370 	bic.w	r3, r3, #112	; 0x70
			CKGR_MOR_KEY_PASSWD | ul_moscrcf;
  4027bc:	687a      	ldr	r2, [r7, #4]
  4027be:	4313      	orrs	r3, r2
  4027c0:	f443 135c 	orr.w	r3, r3, #3604480	; 0x370000
	PMC->CKGR_MOR = (PMC->CKGR_MOR & ~CKGR_MOR_MOSCRCF_Msk) |
  4027c4:	620b      	str	r3, [r1, #32]

	/* Wait the Fast RC to stabilize */
	while (!(PMC->PMC_SR & PMC_SR_MOSCRCS));
  4027c6:	bf00      	nop
  4027c8:	4b0a      	ldr	r3, [pc, #40]	; (4027f4 <pmc_switch_mainck_to_fastrc+0x6c>)
  4027ca:	6e9b      	ldr	r3, [r3, #104]	; 0x68
  4027cc:	f403 3300 	and.w	r3, r3, #131072	; 0x20000
  4027d0:	2b00      	cmp	r3, #0
  4027d2:	d0f9      	beq.n	4027c8 <pmc_switch_mainck_to_fastrc+0x40>

	/* Switch to Fast RC */
	PMC->CKGR_MOR = (PMC->CKGR_MOR & ~CKGR_MOR_MOSCSEL) |
  4027d4:	4a07      	ldr	r2, [pc, #28]	; (4027f4 <pmc_switch_mainck_to_fastrc+0x6c>)
  4027d6:	4b07      	ldr	r3, [pc, #28]	; (4027f4 <pmc_switch_mainck_to_fastrc+0x6c>)
  4027d8:	6a1b      	ldr	r3, [r3, #32]
  4027da:	f023 739b 	bic.w	r3, r3, #20316160	; 0x1360000
  4027de:	f423 3380 	bic.w	r3, r3, #65536	; 0x10000
  4027e2:	f443 135c 	orr.w	r3, r3, #3604480	; 0x370000
  4027e6:	6213      	str	r3, [r2, #32]
			CKGR_MOR_KEY_PASSWD;
}
  4027e8:	bf00      	nop
  4027ea:	370c      	adds	r7, #12
  4027ec:	46bd      	mov	sp, r7
  4027ee:	bc80      	pop	{r7}
  4027f0:	4770      	bx	lr
  4027f2:	bf00      	nop
  4027f4:	400e0400 	.word	0x400e0400

004027f8 <pmc_switch_mainck_to_xtal>:
 * \retval 0 Success.
 * \retval 1 Timeout error.
 */
void pmc_switch_mainck_to_xtal(uint32_t ul_bypass,
		uint32_t ul_xtal_startup_time)
{
  4027f8:	b480      	push	{r7}
  4027fa:	b083      	sub	sp, #12
  4027fc:	af00      	add	r7, sp, #0
  4027fe:	6078      	str	r0, [r7, #4]
  402800:	6039      	str	r1, [r7, #0]
	/* Enable Main Xtal oscillator */
	if (ul_bypass) {
  402802:	687b      	ldr	r3, [r7, #4]
  402804:	2b00      	cmp	r3, #0
  402806:	d008      	beq.n	40281a <pmc_switch_mainck_to_xtal+0x22>
		PMC->CKGR_MOR = (PMC->CKGR_MOR & ~CKGR_MOR_MOSCXTEN) |
  402808:	4916      	ldr	r1, [pc, #88]	; (402864 <pmc_switch_mainck_to_xtal+0x6c>)
  40280a:	4b16      	ldr	r3, [pc, #88]	; (402864 <pmc_switch_mainck_to_xtal+0x6c>)
  40280c:	6a1b      	ldr	r3, [r3, #32]
				CKGR_MOR_KEY_PASSWD | CKGR_MOR_MOSCXTBY |
  40280e:	4a16      	ldr	r2, [pc, #88]	; (402868 <pmc_switch_mainck_to_xtal+0x70>)
  402810:	401a      	ands	r2, r3
  402812:	4b16      	ldr	r3, [pc, #88]	; (40286c <pmc_switch_mainck_to_xtal+0x74>)
  402814:	4313      	orrs	r3, r2
		PMC->CKGR_MOR = (PMC->CKGR_MOR & ~CKGR_MOR_MOSCXTEN) |
  402816:	620b      	str	r3, [r1, #32]
		/* Wait the Xtal to stabilize */
		while (!(PMC->PMC_SR & PMC_SR_MOSCXTS));

		PMC->CKGR_MOR |= CKGR_MOR_KEY_PASSWD | CKGR_MOR_MOSCSEL;
	}
}
  402818:	e01e      	b.n	402858 <pmc_switch_mainck_to_xtal+0x60>
		PMC->CKGR_MOR = (PMC->CKGR_MOR & ~CKGR_MOR_MOSCXTBY) |
  40281a:	4912      	ldr	r1, [pc, #72]	; (402864 <pmc_switch_mainck_to_xtal+0x6c>)
  40281c:	4b11      	ldr	r3, [pc, #68]	; (402864 <pmc_switch_mainck_to_xtal+0x6c>)
  40281e:	6a1b      	ldr	r3, [r3, #32]
				CKGR_MOR_KEY_PASSWD | CKGR_MOR_MOSCXTEN |
  402820:	f423 135c 	bic.w	r3, r3, #3604480	; 0x370000
  402824:	f023 0303 	bic.w	r3, r3, #3
				CKGR_MOR_MOSCXTST(ul_xtal_startup_time);
  402828:	683a      	ldr	r2, [r7, #0]
  40282a:	0212      	lsls	r2, r2, #8
  40282c:	b292      	uxth	r2, r2
				CKGR_MOR_KEY_PASSWD | CKGR_MOR_MOSCXTEN |
  40282e:	4313      	orrs	r3, r2
  402830:	f443 135c 	orr.w	r3, r3, #3604480	; 0x370000
  402834:	f043 0301 	orr.w	r3, r3, #1
		PMC->CKGR_MOR = (PMC->CKGR_MOR & ~CKGR_MOR_MOSCXTBY) |
  402838:	620b      	str	r3, [r1, #32]
		while (!(PMC->PMC_SR & PMC_SR_MOSCXTS));
  40283a:	bf00      	nop
  40283c:	4b09      	ldr	r3, [pc, #36]	; (402864 <pmc_switch_mainck_to_xtal+0x6c>)
  40283e:	6e9b      	ldr	r3, [r3, #104]	; 0x68
  402840:	f003 0301 	and.w	r3, r3, #1
  402844:	2b00      	cmp	r3, #0
  402846:	d0f9      	beq.n	40283c <pmc_switch_mainck_to_xtal+0x44>
		PMC->CKGR_MOR |= CKGR_MOR_KEY_PASSWD | CKGR_MOR_MOSCSEL;
  402848:	4a06      	ldr	r2, [pc, #24]	; (402864 <pmc_switch_mainck_to_xtal+0x6c>)
  40284a:	4b06      	ldr	r3, [pc, #24]	; (402864 <pmc_switch_mainck_to_xtal+0x6c>)
  40284c:	6a1b      	ldr	r3, [r3, #32]
  40284e:	f043 739b 	orr.w	r3, r3, #20316160	; 0x1360000
  402852:	f443 3380 	orr.w	r3, r3, #65536	; 0x10000
  402856:	6213      	str	r3, [r2, #32]
}
  402858:	bf00      	nop
  40285a:	370c      	adds	r7, #12
  40285c:	46bd      	mov	sp, r7
  40285e:	bc80      	pop	{r7}
  402860:	4770      	bx	lr
  402862:	bf00      	nop
  402864:	400e0400 	.word	0x400e0400
  402868:	fec8fffc 	.word	0xfec8fffc
  40286c:	01370002 	.word	0x01370002

00402870 <pmc_osc_is_ready_mainck>:
 *
 * \retval 1 Xtal is ready.
 * \retval 0 Xtal is not ready.
 */
uint32_t pmc_osc_is_ready_mainck(void)
{
  402870:	b480      	push	{r7}
  402872:	af00      	add	r7, sp, #0
	return PMC->PMC_SR & PMC_SR_MOSCSELS;
  402874:	4b03      	ldr	r3, [pc, #12]	; (402884 <pmc_osc_is_ready_mainck+0x14>)
  402876:	6e9b      	ldr	r3, [r3, #104]	; 0x68
  402878:	f403 3380 	and.w	r3, r3, #65536	; 0x10000
}
  40287c:	4618      	mov	r0, r3
  40287e:	46bd      	mov	sp, r7
  402880:	bc80      	pop	{r7}
  402882:	4770      	bx	lr
  402884:	400e0400 	.word	0x400e0400

00402888 <pmc_enable_pllack>:
 * \param mula PLLA multiplier.
 * \param pllacount PLLA counter.
 * \param diva Divider.
 */
void pmc_enable_pllack(uint32_t mula, uint32_t pllacount, uint32_t diva)
{
  402888:	b580      	push	{r7, lr}
  40288a:	b084      	sub	sp, #16
  40288c:	af00      	add	r7, sp, #0
  40288e:	60f8      	str	r0, [r7, #12]
  402890:	60b9      	str	r1, [r7, #8]
  402892:	607a      	str	r2, [r7, #4]
	/* first disable the PLL to unlock the lock */
	pmc_disable_pllack();
  402894:	4b0e      	ldr	r3, [pc, #56]	; (4028d0 <pmc_enable_pllack+0x48>)
  402896:	4798      	blx	r3

#if (SAM4C || SAM4CM || SAM4CP || SAMG)
	PMC->CKGR_PLLAR = CKGR_PLLAR_PLLAEN(diva) |
			CKGR_PLLAR_PLLACOUNT(pllacount) | CKGR_PLLAR_MULA(mula);
#else
	PMC->CKGR_PLLAR = CKGR_PLLAR_ONE | CKGR_PLLAR_DIVA(diva) |
  402898:	480e      	ldr	r0, [pc, #56]	; (4028d4 <pmc_enable_pllack+0x4c>)
  40289a:	687b      	ldr	r3, [r7, #4]
  40289c:	b2da      	uxtb	r2, r3
			CKGR_PLLAR_PLLACOUNT(pllacount) | CKGR_PLLAR_MULA(mula);
  40289e:	68bb      	ldr	r3, [r7, #8]
  4028a0:	021b      	lsls	r3, r3, #8
  4028a2:	f403 537c 	and.w	r3, r3, #16128	; 0x3f00
	PMC->CKGR_PLLAR = CKGR_PLLAR_ONE | CKGR_PLLAR_DIVA(diva) |
  4028a6:	431a      	orrs	r2, r3
			CKGR_PLLAR_PLLACOUNT(pllacount) | CKGR_PLLAR_MULA(mula);
  4028a8:	68fb      	ldr	r3, [r7, #12]
  4028aa:	0419      	lsls	r1, r3, #16
  4028ac:	4b0a      	ldr	r3, [pc, #40]	; (4028d8 <pmc_enable_pllack+0x50>)
  4028ae:	400b      	ands	r3, r1
  4028b0:	4313      	orrs	r3, r2
  4028b2:	f043 5300 	orr.w	r3, r3, #536870912	; 0x20000000
	PMC->CKGR_PLLAR = CKGR_PLLAR_ONE | CKGR_PLLAR_DIVA(diva) |
  4028b6:	6283      	str	r3, [r0, #40]	; 0x28
#endif
	while ((PMC->PMC_SR & PMC_SR_LOCKA) == 0);
  4028b8:	bf00      	nop
  4028ba:	4b06      	ldr	r3, [pc, #24]	; (4028d4 <pmc_enable_pllack+0x4c>)
  4028bc:	6e9b      	ldr	r3, [r3, #104]	; 0x68
  4028be:	f003 0302 	and.w	r3, r3, #2
  4028c2:	2b00      	cmp	r3, #0
  4028c4:	d0f9      	beq.n	4028ba <pmc_enable_pllack+0x32>
}
  4028c6:	bf00      	nop
  4028c8:	3710      	adds	r7, #16
  4028ca:	46bd      	mov	sp, r7
  4028cc:	bd80      	pop	{r7, pc}
  4028ce:	bf00      	nop
  4028d0:	004028dd 	.word	0x004028dd
  4028d4:	400e0400 	.word	0x400e0400
  4028d8:	07ff0000 	.word	0x07ff0000

004028dc <pmc_disable_pllack>:

/**
 * \brief Disable PLLA clock.
 */
void pmc_disable_pllack(void)
{
  4028dc:	b480      	push	{r7}
  4028de:	af00      	add	r7, sp, #0
#if (SAM4C || SAM4CM || SAM4CP || SAMG)
	PMC->CKGR_PLLAR = CKGR_PLLAR_MULA(0);
#else
	PMC->CKGR_PLLAR = CKGR_PLLAR_ONE | CKGR_PLLAR_MULA(0);
  4028e0:	4b03      	ldr	r3, [pc, #12]	; (4028f0 <pmc_disable_pllack+0x14>)
  4028e2:	f04f 5200 	mov.w	r2, #536870912	; 0x20000000
  4028e6:	629a      	str	r2, [r3, #40]	; 0x28
#endif
}
  4028e8:	bf00      	nop
  4028ea:	46bd      	mov	sp, r7
  4028ec:	bc80      	pop	{r7}
  4028ee:	4770      	bx	lr
  4028f0:	400e0400 	.word	0x400e0400

004028f4 <pmc_is_locked_pllack>:
 *
 * \retval 0 Not locked.
 * \retval 1 Locked.
 */
uint32_t pmc_is_locked_pllack(void)
{
  4028f4:	b480      	push	{r7}
  4028f6:	af00      	add	r7, sp, #0
	return (PMC->PMC_SR & PMC_SR_LOCKA);
  4028f8:	4b03      	ldr	r3, [pc, #12]	; (402908 <pmc_is_locked_pllack+0x14>)
  4028fa:	6e9b      	ldr	r3, [r3, #104]	; 0x68
  4028fc:	f003 0302 	and.w	r3, r3, #2
}
  402900:	4618      	mov	r0, r3
  402902:	46bd      	mov	sp, r7
  402904:	bc80      	pop	{r7}
  402906:	4770      	bx	lr
  402908:	400e0400 	.word	0x400e0400

0040290c <pmc_enable_pllbck>:
 * \param mulb PLLB multiplier.
 * \param pllbcount PLLB counter.
 * \param divb Divider.
 */
void pmc_enable_pllbck(uint32_t mulb, uint32_t pllbcount, uint32_t divb)
{
  40290c:	b580      	push	{r7, lr}
  40290e:	b084      	sub	sp, #16
  402910:	af00      	add	r7, sp, #0
  402912:	60f8      	str	r0, [r7, #12]
  402914:	60b9      	str	r1, [r7, #8]
  402916:	607a      	str	r2, [r7, #4]
	/* first disable the PLL to unlock the lock */
	pmc_disable_pllbck();
  402918:	4b0d      	ldr	r3, [pc, #52]	; (402950 <pmc_enable_pllbck+0x44>)
  40291a:	4798      	blx	r3

#if SAMG55
	PMC->CKGR_PLLAR = CKGR_PLLAR_PLLAEN(divb) |
		CKGR_PLLAR_PLLACOUNT(pllbcount) | CKGR_PLLAR_MULA(mulb);
#else
	PMC->CKGR_PLLBR =
  40291c:	480d      	ldr	r0, [pc, #52]	; (402954 <pmc_enable_pllbck+0x48>)
			CKGR_PLLBR_DIVB(divb) | CKGR_PLLBR_PLLBCOUNT(pllbcount)
  40291e:	687b      	ldr	r3, [r7, #4]
  402920:	b2da      	uxtb	r2, r3
  402922:	68bb      	ldr	r3, [r7, #8]
  402924:	021b      	lsls	r3, r3, #8
  402926:	f403 537c 	and.w	r3, r3, #16128	; 0x3f00
  40292a:	431a      	orrs	r2, r3
			| CKGR_PLLBR_MULB(mulb);
  40292c:	68fb      	ldr	r3, [r7, #12]
  40292e:	0419      	lsls	r1, r3, #16
  402930:	4b09      	ldr	r3, [pc, #36]	; (402958 <pmc_enable_pllbck+0x4c>)
  402932:	400b      	ands	r3, r1
  402934:	4313      	orrs	r3, r2
	PMC->CKGR_PLLBR =
  402936:	62c3      	str	r3, [r0, #44]	; 0x2c
#endif
	while ((PMC->PMC_SR & PMC_SR_LOCKB) == 0);
  402938:	bf00      	nop
  40293a:	4b06      	ldr	r3, [pc, #24]	; (402954 <pmc_enable_pllbck+0x48>)
  40293c:	6e9b      	ldr	r3, [r3, #104]	; 0x68
  40293e:	f003 0304 	and.w	r3, r3, #4
  402942:	2b00      	cmp	r3, #0
  402944:	d0f9      	beq.n	40293a <pmc_enable_pllbck+0x2e>
}
  402946:	bf00      	nop
  402948:	3710      	adds	r7, #16
  40294a:	46bd      	mov	sp, r7
  40294c:	bd80      	pop	{r7, pc}
  40294e:	bf00      	nop
  402950:	0040295d 	.word	0x0040295d
  402954:	400e0400 	.word	0x400e0400
  402958:	07ff0000 	.word	0x07ff0000

0040295c <pmc_disable_pllbck>:

/**
 * \brief Disable PLLB clock.
 */
void pmc_disable_pllbck(void)
{
  40295c:	b480      	push	{r7}
  40295e:	af00      	add	r7, sp, #0
	PMC->CKGR_PLLBR = CKGR_PLLBR_MULB(0);
  402960:	4b03      	ldr	r3, [pc, #12]	; (402970 <pmc_disable_pllbck+0x14>)
  402962:	2200      	movs	r2, #0
  402964:	62da      	str	r2, [r3, #44]	; 0x2c
}
  402966:	bf00      	nop
  402968:	46bd      	mov	sp, r7
  40296a:	bc80      	pop	{r7}
  40296c:	4770      	bx	lr
  40296e:	bf00      	nop
  402970:	400e0400 	.word	0x400e0400

00402974 <pmc_is_locked_pllbck>:
 *
 * \retval 0 Not locked.
 * \retval 1 Locked.
 */
uint32_t pmc_is_locked_pllbck(void)
{
  402974:	b480      	push	{r7}
  402976:	af00      	add	r7, sp, #0
	return (PMC->PMC_SR & PMC_SR_LOCKB);
  402978:	4b03      	ldr	r3, [pc, #12]	; (402988 <pmc_is_locked_pllbck+0x14>)
  40297a:	6e9b      	ldr	r3, [r3, #104]	; 0x68
  40297c:	f003 0304 	and.w	r3, r3, #4
}
  402980:	4618      	mov	r0, r3
  402982:	46bd      	mov	sp, r7
  402984:	bc80      	pop	{r7}
  402986:	4770      	bx	lr
  402988:	400e0400 	.word	0x400e0400

0040298c <pmc_enable_periph_clk>:
 *
 * \retval 0 Success.
 * \retval 1 Invalid parameter.
 */
uint32_t pmc_enable_periph_clk(uint32_t ul_id)
{
  40298c:	b480      	push	{r7}
  40298e:	b083      	sub	sp, #12
  402990:	af00      	add	r7, sp, #0
  402992:	6078      	str	r0, [r7, #4]
	if (ul_id > MAX_PERIPH_ID) {
  402994:	687b      	ldr	r3, [r7, #4]
  402996:	2b22      	cmp	r3, #34	; 0x22
  402998:	d901      	bls.n	40299e <pmc_enable_periph_clk+0x12>
		return 1;
  40299a:	2301      	movs	r3, #1
  40299c:	e02f      	b.n	4029fe <pmc_enable_periph_clk+0x72>
	}

	if (ul_id < 32) {
  40299e:	687b      	ldr	r3, [r7, #4]
  4029a0:	2b1f      	cmp	r3, #31
  4029a2:	d813      	bhi.n	4029cc <pmc_enable_periph_clk+0x40>
		if ((PMC->PMC_PCSR0 & (1u << ul_id)) != (1u << ul_id)) {
  4029a4:	4b18      	ldr	r3, [pc, #96]	; (402a08 <pmc_enable_periph_clk+0x7c>)
  4029a6:	699a      	ldr	r2, [r3, #24]
  4029a8:	2101      	movs	r1, #1
  4029aa:	687b      	ldr	r3, [r7, #4]
  4029ac:	fa01 f303 	lsl.w	r3, r1, r3
  4029b0:	401a      	ands	r2, r3
  4029b2:	2101      	movs	r1, #1
  4029b4:	687b      	ldr	r3, [r7, #4]
  4029b6:	fa01 f303 	lsl.w	r3, r1, r3
  4029ba:	429a      	cmp	r2, r3
  4029bc:	d01e      	beq.n	4029fc <pmc_enable_periph_clk+0x70>
			PMC->PMC_PCER0 = 1 << ul_id;
  4029be:	4a12      	ldr	r2, [pc, #72]	; (402a08 <pmc_enable_periph_clk+0x7c>)
  4029c0:	2101      	movs	r1, #1
  4029c2:	687b      	ldr	r3, [r7, #4]
  4029c4:	fa01 f303 	lsl.w	r3, r1, r3
  4029c8:	6113      	str	r3, [r2, #16]
  4029ca:	e017      	b.n	4029fc <pmc_enable_periph_clk+0x70>
		}
#if (SAM3S || SAM3XA || SAM4S || SAM4E || SAM4C || SAM4CM || SAM4CP || SAMG55 || SAMV71 || SAMV70 || SAME70 || SAMS70)
	} else {
		ul_id -= 32;
  4029cc:	687b      	ldr	r3, [r7, #4]
  4029ce:	3b20      	subs	r3, #32
  4029d0:	607b      	str	r3, [r7, #4]
		if ((PMC->PMC_PCSR1 & (1u << ul_id)) != (1u << ul_id)) {
  4029d2:	4b0d      	ldr	r3, [pc, #52]	; (402a08 <pmc_enable_periph_clk+0x7c>)
  4029d4:	f8d3 2108 	ldr.w	r2, [r3, #264]	; 0x108
  4029d8:	2101      	movs	r1, #1
  4029da:	687b      	ldr	r3, [r7, #4]
  4029dc:	fa01 f303 	lsl.w	r3, r1, r3
  4029e0:	401a      	ands	r2, r3
  4029e2:	2101      	movs	r1, #1
  4029e4:	687b      	ldr	r3, [r7, #4]
  4029e6:	fa01 f303 	lsl.w	r3, r1, r3
  4029ea:	429a      	cmp	r2, r3
  4029ec:	d006      	beq.n	4029fc <pmc_enable_periph_clk+0x70>
			PMC->PMC_PCER1 = 1 << ul_id;
  4029ee:	4a06      	ldr	r2, [pc, #24]	; (402a08 <pmc_enable_periph_clk+0x7c>)
  4029f0:	2101      	movs	r1, #1
  4029f2:	687b      	ldr	r3, [r7, #4]
  4029f4:	fa01 f303 	lsl.w	r3, r1, r3
  4029f8:	f8c2 3100 	str.w	r3, [r2, #256]	; 0x100
		}
#endif
	}

	return 0;
  4029fc:	2300      	movs	r3, #0
}
  4029fe:	4618      	mov	r0, r3
  402a00:	370c      	adds	r7, #12
  402a02:	46bd      	mov	sp, r7
  402a04:	bc80      	pop	{r7}
  402a06:	4770      	bx	lr
  402a08:	400e0400 	.word	0x400e0400

00402a0c <sysclk_enable_peripheral_clock>:
{
  402a0c:	b580      	push	{r7, lr}
  402a0e:	b082      	sub	sp, #8
  402a10:	af00      	add	r7, sp, #0
  402a12:	6078      	str	r0, [r7, #4]
	pmc_enable_periph_clk(ul_id);
  402a14:	6878      	ldr	r0, [r7, #4]
  402a16:	4b03      	ldr	r3, [pc, #12]	; (402a24 <sysclk_enable_peripheral_clock+0x18>)
  402a18:	4798      	blx	r3
}
  402a1a:	bf00      	nop
  402a1c:	3708      	adds	r7, #8
  402a1e:	46bd      	mov	sp, r7
  402a20:	bd80      	pop	{r7, pc}
  402a22:	bf00      	nop
  402a24:	0040298d 	.word	0x0040298d

00402a28 <ioport_init>:
{
  402a28:	b580      	push	{r7, lr}
  402a2a:	af00      	add	r7, sp, #0
	sysclk_enable_peripheral_clock(ID_PIOA);
  402a2c:	200b      	movs	r0, #11
  402a2e:	4b03      	ldr	r3, [pc, #12]	; (402a3c <ioport_init+0x14>)
  402a30:	4798      	blx	r3
	sysclk_enable_peripheral_clock(ID_PIOB);
  402a32:	200c      	movs	r0, #12
  402a34:	4b01      	ldr	r3, [pc, #4]	; (402a3c <ioport_init+0x14>)
  402a36:	4798      	blx	r3
}
  402a38:	bf00      	nop
  402a3a:	bd80      	pop	{r7, pc}
  402a3c:	00402a0d 	.word	0x00402a0d

00402a40 <ioport_set_pin_dir>:
{
  402a40:	b480      	push	{r7}
  402a42:	b08d      	sub	sp, #52	; 0x34
  402a44:	af00      	add	r7, sp, #0
  402a46:	6078      	str	r0, [r7, #4]
  402a48:	460b      	mov	r3, r1
  402a4a:	70fb      	strb	r3, [r7, #3]
  402a4c:	687b      	ldr	r3, [r7, #4]
  402a4e:	62fb      	str	r3, [r7, #44]	; 0x2c
  402a50:	78fb      	ldrb	r3, [r7, #3]
  402a52:	f887 302b 	strb.w	r3, [r7, #43]	; 0x2b
  402a56:	6afb      	ldr	r3, [r7, #44]	; 0x2c
  402a58:	627b      	str	r3, [r7, #36]	; 0x24
  402a5a:	6a7b      	ldr	r3, [r7, #36]	; 0x24
  402a5c:	623b      	str	r3, [r7, #32]
	return pin >> 5;
  402a5e:	6a3b      	ldr	r3, [r7, #32]
  402a60:	095b      	lsrs	r3, r3, #5
  402a62:	61fb      	str	r3, [r7, #28]
	return (Pio *)((uintptr_t)IOPORT_BASE_ADDRESS +
  402a64:	69fb      	ldr	r3, [r7, #28]
  402a66:	f503 1300 	add.w	r3, r3, #2097152	; 0x200000
  402a6a:	f203 7307 	addw	r3, r3, #1799	; 0x707
  402a6e:	025b      	lsls	r3, r3, #9
	Pio *base = arch_ioport_pin_to_base(pin);
  402a70:	61bb      	str	r3, [r7, #24]
	if (dir == IOPORT_DIR_OUTPUT) {
  402a72:	f897 302b 	ldrb.w	r3, [r7, #43]	; 0x2b
  402a76:	2b01      	cmp	r3, #1
  402a78:	d109      	bne.n	402a8e <ioport_set_pin_dir+0x4e>
  402a7a:	6afb      	ldr	r3, [r7, #44]	; 0x2c
  402a7c:	617b      	str	r3, [r7, #20]
	return 1U << (pin & 0x1F);
  402a7e:	697b      	ldr	r3, [r7, #20]
  402a80:	f003 031f 	and.w	r3, r3, #31
  402a84:	2201      	movs	r2, #1
  402a86:	409a      	lsls	r2, r3
		base->PIO_OER = arch_ioport_pin_to_mask(pin);
  402a88:	69bb      	ldr	r3, [r7, #24]
  402a8a:	611a      	str	r2, [r3, #16]
  402a8c:	e00c      	b.n	402aa8 <ioport_set_pin_dir+0x68>
	} else if (dir == IOPORT_DIR_INPUT) {
  402a8e:	f897 302b 	ldrb.w	r3, [r7, #43]	; 0x2b
  402a92:	2b00      	cmp	r3, #0
  402a94:	d108      	bne.n	402aa8 <ioport_set_pin_dir+0x68>
  402a96:	6afb      	ldr	r3, [r7, #44]	; 0x2c
  402a98:	613b      	str	r3, [r7, #16]
	return 1U << (pin & 0x1F);
  402a9a:	693b      	ldr	r3, [r7, #16]
  402a9c:	f003 031f 	and.w	r3, r3, #31
  402aa0:	2201      	movs	r2, #1
  402aa2:	409a      	lsls	r2, r3
		base->PIO_ODR = arch_ioport_pin_to_mask(pin);
  402aa4:	69bb      	ldr	r3, [r7, #24]
  402aa6:	615a      	str	r2, [r3, #20]
  402aa8:	6afb      	ldr	r3, [r7, #44]	; 0x2c
  402aaa:	60fb      	str	r3, [r7, #12]
	return 1U << (pin & 0x1F);
  402aac:	68fb      	ldr	r3, [r7, #12]
  402aae:	f003 031f 	and.w	r3, r3, #31
  402ab2:	2201      	movs	r2, #1
  402ab4:	409a      	lsls	r2, r3
	base->PIO_OWER = arch_ioport_pin_to_mask(pin);
  402ab6:	69bb      	ldr	r3, [r7, #24]
  402ab8:	f8c3 20a0 	str.w	r2, [r3, #160]	; 0xa0
}
  402abc:	bf00      	nop
  402abe:	3734      	adds	r7, #52	; 0x34
  402ac0:	46bd      	mov	sp, r7
  402ac2:	bc80      	pop	{r7}
  402ac4:	4770      	bx	lr

00402ac6 <ioport_set_pin_level>:
{
  402ac6:	b480      	push	{r7}
  402ac8:	b08b      	sub	sp, #44	; 0x2c
  402aca:	af00      	add	r7, sp, #0
  402acc:	6078      	str	r0, [r7, #4]
  402ace:	460b      	mov	r3, r1
  402ad0:	70fb      	strb	r3, [r7, #3]
  402ad2:	687b      	ldr	r3, [r7, #4]
  402ad4:	627b      	str	r3, [r7, #36]	; 0x24
  402ad6:	78fb      	ldrb	r3, [r7, #3]
  402ad8:	f887 3023 	strb.w	r3, [r7, #35]	; 0x23
  402adc:	6a7b      	ldr	r3, [r7, #36]	; 0x24
  402ade:	61fb      	str	r3, [r7, #28]
  402ae0:	69fb      	ldr	r3, [r7, #28]
  402ae2:	61bb      	str	r3, [r7, #24]
	return pin >> 5;
  402ae4:	69bb      	ldr	r3, [r7, #24]
  402ae6:	095b      	lsrs	r3, r3, #5
  402ae8:	617b      	str	r3, [r7, #20]
	return (Pio *)((uintptr_t)IOPORT_BASE_ADDRESS +
  402aea:	697b      	ldr	r3, [r7, #20]
  402aec:	f503 1300 	add.w	r3, r3, #2097152	; 0x200000
  402af0:	f203 7307 	addw	r3, r3, #1799	; 0x707
  402af4:	025b      	lsls	r3, r3, #9
	Pio *base = arch_ioport_pin_to_base(pin);
  402af6:	613b      	str	r3, [r7, #16]
	if (level) {
  402af8:	f897 3023 	ldrb.w	r3, [r7, #35]	; 0x23
  402afc:	2b00      	cmp	r3, #0
  402afe:	d009      	beq.n	402b14 <ioport_set_pin_level+0x4e>
  402b00:	6a7b      	ldr	r3, [r7, #36]	; 0x24
  402b02:	60fb      	str	r3, [r7, #12]
	return 1U << (pin & 0x1F);
  402b04:	68fb      	ldr	r3, [r7, #12]
  402b06:	f003 031f 	and.w	r3, r3, #31
  402b0a:	2201      	movs	r2, #1
  402b0c:	409a      	lsls	r2, r3
		base->PIO_SODR = arch_ioport_pin_to_mask(pin);
  402b0e:	693b      	ldr	r3, [r7, #16]
  402b10:	631a      	str	r2, [r3, #48]	; 0x30
}
  402b12:	e008      	b.n	402b26 <ioport_set_pin_level+0x60>
  402b14:	6a7b      	ldr	r3, [r7, #36]	; 0x24
  402b16:	60bb      	str	r3, [r7, #8]
	return 1U << (pin & 0x1F);
  402b18:	68bb      	ldr	r3, [r7, #8]
  402b1a:	f003 031f 	and.w	r3, r3, #31
  402b1e:	2201      	movs	r2, #1
  402b20:	409a      	lsls	r2, r3
		base->PIO_CODR = arch_ioport_pin_to_mask(pin);
  402b22:	693b      	ldr	r3, [r7, #16]
  402b24:	635a      	str	r2, [r3, #52]	; 0x34
  402b26:	bf00      	nop
  402b28:	372c      	adds	r7, #44	; 0x2c
  402b2a:	46bd      	mov	sp, r7
  402b2c:	bc80      	pop	{r7}
  402b2e:	4770      	bx	lr

00402b30 <board_init>:
#include <conf_board.h>
#include <camera.h>


void board_init(void)
{
  402b30:	b580      	push	{r7, lr}
  402b32:	af00      	add	r7, sp, #0
	ioport_init();
  402b34:	4b0b      	ldr	r3, [pc, #44]	; (402b64 <board_init+0x34>)
  402b36:	4798      	blx	r3
	ioport_set_pin_dir(PIN_WIFI_RESET,IOPORT_DIR_OUTPUT);
  402b38:	2101      	movs	r1, #1
  402b3a:	2021      	movs	r0, #33	; 0x21
  402b3c:	4b0a      	ldr	r3, [pc, #40]	; (402b68 <board_init+0x38>)
  402b3e:	4798      	blx	r3
	ioport_set_pin_level(PIN_WIFI_RESET,LOW);
  402b40:	2100      	movs	r1, #0
  402b42:	2021      	movs	r0, #33	; 0x21
  402b44:	4b09      	ldr	r3, [pc, #36]	; (402b6c <board_init+0x3c>)
  402b46:	4798      	blx	r3
	
	ioport_set_pin_dir(PIN_WIFI_NETWORK_STATUS,IOPORT_DIR_INPUT);
  402b48:	2100      	movs	r1, #0
  402b4a:	200b      	movs	r0, #11
  402b4c:	4b06      	ldr	r3, [pc, #24]	; (402b68 <board_init+0x38>)
  402b4e:	4798      	blx	r3
	//ioport_set_pin_level(PIN_WIFI_NETWORK_STATUS,LOW);
	
	ioport_set_pin_dir(PUSH_BUTTON,IOPORT_DIR_INPUT);
  402b50:	2100      	movs	r1, #0
  402b52:	2000      	movs	r0, #0
  402b54:	4b04      	ldr	r3, [pc, #16]	; (402b68 <board_init+0x38>)
  402b56:	4798      	blx	r3
	//ioport_set_pin_level(PUSH_BUTTON,HIGH);
	
	ioport_set_pin_dir(WIFI_COM_COMPLETE,IOPORT_DIR_INPUT);
  402b58:	2100      	movs	r1, #0
  402b5a:	200c      	movs	r0, #12
  402b5c:	4b02      	ldr	r3, [pc, #8]	; (402b68 <board_init+0x38>)
  402b5e:	4798      	blx	r3
	//ioport_set_pin_level(WIFI_COM_COMPLETE,LOW);



}
  402b60:	bf00      	nop
  402b62:	bd80      	pop	{r7, pc}
  402b64:	00402a29 	.word	0x00402a29
  402b68:	00402a41 	.word	0x00402a41
  402b6c:	00402ac7 	.word	0x00402ac7

00402b70 <Reset_Handler>:
/**
 * \brief This is the code that gets called on processor reset.
 * To initialize the device, and call the main() routine.
 */
void Reset_Handler(void)
{
  402b70:	b580      	push	{r7, lr}
  402b72:	b084      	sub	sp, #16
  402b74:	af00      	add	r7, sp, #0
	uint32_t *pSrc, *pDest;

	/* Initialize the relocate segment */
	pSrc = &_etext;
  402b76:	4b27      	ldr	r3, [pc, #156]	; (402c14 <Reset_Handler+0xa4>)
  402b78:	60fb      	str	r3, [r7, #12]
	pDest = &_srelocate;
  402b7a:	4b27      	ldr	r3, [pc, #156]	; (402c18 <Reset_Handler+0xa8>)
  402b7c:	60bb      	str	r3, [r7, #8]

	if (pSrc > pDest) {
  402b7e:	68fa      	ldr	r2, [r7, #12]
  402b80:	68bb      	ldr	r3, [r7, #8]
  402b82:	429a      	cmp	r2, r3
  402b84:	d90d      	bls.n	402ba2 <Reset_Handler+0x32>
		for (; pDest < &_erelocate;) {
  402b86:	e007      	b.n	402b98 <Reset_Handler+0x28>
			*pDest++ = *pSrc++;
  402b88:	68bb      	ldr	r3, [r7, #8]
  402b8a:	1d1a      	adds	r2, r3, #4
  402b8c:	60ba      	str	r2, [r7, #8]
  402b8e:	68fa      	ldr	r2, [r7, #12]
  402b90:	1d11      	adds	r1, r2, #4
  402b92:	60f9      	str	r1, [r7, #12]
  402b94:	6812      	ldr	r2, [r2, #0]
  402b96:	601a      	str	r2, [r3, #0]
		for (; pDest < &_erelocate;) {
  402b98:	68bb      	ldr	r3, [r7, #8]
  402b9a:	4a20      	ldr	r2, [pc, #128]	; (402c1c <Reset_Handler+0xac>)
  402b9c:	4293      	cmp	r3, r2
  402b9e:	d3f3      	bcc.n	402b88 <Reset_Handler+0x18>
  402ba0:	e020      	b.n	402be4 <Reset_Handler+0x74>
		}
	} else if (pSrc < pDest) {
  402ba2:	68fa      	ldr	r2, [r7, #12]
  402ba4:	68bb      	ldr	r3, [r7, #8]
  402ba6:	429a      	cmp	r2, r3
  402ba8:	d21c      	bcs.n	402be4 <Reset_Handler+0x74>
		uint32_t nb_bytes = (uint32_t)&_erelocate - (uint32_t)&_srelocate;
  402baa:	4a1c      	ldr	r2, [pc, #112]	; (402c1c <Reset_Handler+0xac>)
  402bac:	4b1a      	ldr	r3, [pc, #104]	; (402c18 <Reset_Handler+0xa8>)
  402bae:	1ad3      	subs	r3, r2, r3
  402bb0:	607b      	str	r3, [r7, #4]
		pSrc = (uint32_t*)((uint32_t)pSrc + nb_bytes) - 1;
  402bb2:	68fa      	ldr	r2, [r7, #12]
  402bb4:	687b      	ldr	r3, [r7, #4]
  402bb6:	4413      	add	r3, r2
  402bb8:	3b04      	subs	r3, #4
  402bba:	60fb      	str	r3, [r7, #12]
		pDest = (uint32_t*)((uint32_t)pDest + nb_bytes) - 1;
  402bbc:	68ba      	ldr	r2, [r7, #8]
  402bbe:	687b      	ldr	r3, [r7, #4]
  402bc0:	4413      	add	r3, r2
  402bc2:	3b04      	subs	r3, #4
  402bc4:	60bb      	str	r3, [r7, #8]
		for (;nb_bytes;nb_bytes -= 4) {
  402bc6:	e00a      	b.n	402bde <Reset_Handler+0x6e>
			*pDest-- = *pSrc--;
  402bc8:	68bb      	ldr	r3, [r7, #8]
  402bca:	1f1a      	subs	r2, r3, #4
  402bcc:	60ba      	str	r2, [r7, #8]
  402bce:	68fa      	ldr	r2, [r7, #12]
  402bd0:	1f11      	subs	r1, r2, #4
  402bd2:	60f9      	str	r1, [r7, #12]
  402bd4:	6812      	ldr	r2, [r2, #0]
  402bd6:	601a      	str	r2, [r3, #0]
		for (;nb_bytes;nb_bytes -= 4) {
  402bd8:	687b      	ldr	r3, [r7, #4]
  402bda:	3b04      	subs	r3, #4
  402bdc:	607b      	str	r3, [r7, #4]
  402bde:	687b      	ldr	r3, [r7, #4]
  402be0:	2b00      	cmp	r3, #0
  402be2:	d1f1      	bne.n	402bc8 <Reset_Handler+0x58>

    No Operation does nothing. This instruction can be used for code alignment purposes.
 */
__attribute__( ( always_inline ) ) __STATIC_INLINE void __NOP(void)
{
  __ASM volatile ("nop");
  402be4:	bf00      	nop
		}
	}
	__NOP();

	/* Clear the zero segment */
	for (pDest = &_szero; pDest < &_ezero;) {
  402be6:	4b0e      	ldr	r3, [pc, #56]	; (402c20 <Reset_Handler+0xb0>)
  402be8:	60bb      	str	r3, [r7, #8]
  402bea:	e004      	b.n	402bf6 <Reset_Handler+0x86>
		*pDest++ = 0;
  402bec:	68bb      	ldr	r3, [r7, #8]
  402bee:	1d1a      	adds	r2, r3, #4
  402bf0:	60ba      	str	r2, [r7, #8]
  402bf2:	2200      	movs	r2, #0
  402bf4:	601a      	str	r2, [r3, #0]
	for (pDest = &_szero; pDest < &_ezero;) {
  402bf6:	68bb      	ldr	r3, [r7, #8]
  402bf8:	4a0a      	ldr	r2, [pc, #40]	; (402c24 <Reset_Handler+0xb4>)
  402bfa:	4293      	cmp	r3, r2
  402bfc:	d3f6      	bcc.n	402bec <Reset_Handler+0x7c>
	}

	/* Set the vector table base address */
	pSrc = (uint32_t *) & _sfixed;
  402bfe:	4b0a      	ldr	r3, [pc, #40]	; (402c28 <Reset_Handler+0xb8>)
  402c00:	60fb      	str	r3, [r7, #12]
	SCB->VTOR = ((uint32_t) pSrc);
  402c02:	4a0a      	ldr	r2, [pc, #40]	; (402c2c <Reset_Handler+0xbc>)
  402c04:	68fb      	ldr	r3, [r7, #12]
  402c06:	6093      	str	r3, [r2, #8]

	/* Initialize the C library */
	__libc_init_array();
  402c08:	4b09      	ldr	r3, [pc, #36]	; (402c30 <Reset_Handler+0xc0>)
  402c0a:	4798      	blx	r3

	/* Branch to main function */
	main();
  402c0c:	4b09      	ldr	r3, [pc, #36]	; (402c34 <Reset_Handler+0xc4>)
  402c0e:	4798      	blx	r3

	/* Infinite loop */
	while (1);
  402c10:	e7fe      	b.n	402c10 <Reset_Handler+0xa0>
  402c12:	bf00      	nop
  402c14:	00409174 	.word	0x00409174
  402c18:	20000000 	.word	0x20000000
  402c1c:	200009c0 	.word	0x200009c0
  402c20:	200009c0 	.word	0x200009c0
  402c24:	20019564 	.word	0x20019564
  402c28:	00400000 	.word	0x00400000
  402c2c:	e000ed00 	.word	0xe000ed00
  402c30:	00403615 	.word	0x00403615
  402c34:	00403021 	.word	0x00403021

00402c38 <Dummy_Handler>:

/**
 * \brief Default interrupt handler for unused IRQs.
 */
void Dummy_Handler(void)
{
  402c38:	b480      	push	{r7}
  402c3a:	af00      	add	r7, sp, #0
	while (1) {
  402c3c:	e7fe      	b.n	402c3c <Dummy_Handler+0x4>
	...

00402c40 <SystemCoreClockUpdate>:

/**
 * \brief Get Core Clock Frequency.
 */
void SystemCoreClockUpdate( void )
{
  402c40:	b480      	push	{r7}
  402c42:	af00      	add	r7, sp, #0
	/* Determine clock frequency according to clock register values */
	switch ( PMC->PMC_MCKR & (uint32_t) PMC_MCKR_CSS_Msk ) {
  402c44:	4b5d      	ldr	r3, [pc, #372]	; (402dbc <SystemCoreClockUpdate+0x17c>)
  402c46:	6b1b      	ldr	r3, [r3, #48]	; 0x30
  402c48:	f003 0303 	and.w	r3, r3, #3
  402c4c:	2b03      	cmp	r3, #3
  402c4e:	f200 8096 	bhi.w	402d7e <SystemCoreClockUpdate+0x13e>
  402c52:	a201      	add	r2, pc, #4	; (adr r2, 402c58 <SystemCoreClockUpdate+0x18>)
  402c54:	f852 f023 	ldr.w	pc, [r2, r3, lsl #2]
  402c58:	00402c69 	.word	0x00402c69
  402c5c:	00402c89 	.word	0x00402c89
  402c60:	00402cd3 	.word	0x00402cd3
  402c64:	00402cd3 	.word	0x00402cd3
	case PMC_MCKR_CSS_SLOW_CLK: /* Slow clock */
			if ( SUPC->SUPC_SR & SUPC_SR_OSCSEL ) {
  402c68:	4b55      	ldr	r3, [pc, #340]	; (402dc0 <SystemCoreClockUpdate+0x180>)
  402c6a:	695b      	ldr	r3, [r3, #20]
  402c6c:	f003 0380 	and.w	r3, r3, #128	; 0x80
  402c70:	2b00      	cmp	r3, #0
  402c72:	d004      	beq.n	402c7e <SystemCoreClockUpdate+0x3e>
				SystemCoreClock = CHIP_FREQ_XTAL_32K;
  402c74:	4b53      	ldr	r3, [pc, #332]	; (402dc4 <SystemCoreClockUpdate+0x184>)
  402c76:	f44f 4200 	mov.w	r2, #32768	; 0x8000
  402c7a:	601a      	str	r2, [r3, #0]
			} else {
				SystemCoreClock = CHIP_FREQ_SLCK_RC;
			}
		break;
  402c7c:	e080      	b.n	402d80 <SystemCoreClockUpdate+0x140>
				SystemCoreClock = CHIP_FREQ_SLCK_RC;
  402c7e:	4b51      	ldr	r3, [pc, #324]	; (402dc4 <SystemCoreClockUpdate+0x184>)
  402c80:	f44f 42fa 	mov.w	r2, #32000	; 0x7d00
  402c84:	601a      	str	r2, [r3, #0]
		break;
  402c86:	e07b      	b.n	402d80 <SystemCoreClockUpdate+0x140>
		
	case PMC_MCKR_CSS_MAIN_CLK: /* Main clock */
		if ( PMC->CKGR_MOR & CKGR_MOR_MOSCSEL ) {
  402c88:	4b4c      	ldr	r3, [pc, #304]	; (402dbc <SystemCoreClockUpdate+0x17c>)
  402c8a:	6a1b      	ldr	r3, [r3, #32]
  402c8c:	f003 7380 	and.w	r3, r3, #16777216	; 0x1000000
  402c90:	2b00      	cmp	r3, #0
  402c92:	d003      	beq.n	402c9c <SystemCoreClockUpdate+0x5c>
			SystemCoreClock = CHIP_FREQ_XTAL;
  402c94:	4b4b      	ldr	r3, [pc, #300]	; (402dc4 <SystemCoreClockUpdate+0x184>)
  402c96:	4a4c      	ldr	r2, [pc, #304]	; (402dc8 <SystemCoreClockUpdate+0x188>)
  402c98:	601a      	str	r2, [r3, #0]
			
			default:
			break;
			}
		}
		break;
  402c9a:	e071      	b.n	402d80 <SystemCoreClockUpdate+0x140>
			SystemCoreClock = CHIP_FREQ_MAINCK_RC_4MHZ;
  402c9c:	4b49      	ldr	r3, [pc, #292]	; (402dc4 <SystemCoreClockUpdate+0x184>)
  402c9e:	4a4b      	ldr	r2, [pc, #300]	; (402dcc <SystemCoreClockUpdate+0x18c>)
  402ca0:	601a      	str	r2, [r3, #0]
			switch ( PMC->CKGR_MOR & CKGR_MOR_MOSCRCF_Msk ) {
  402ca2:	4b46      	ldr	r3, [pc, #280]	; (402dbc <SystemCoreClockUpdate+0x17c>)
  402ca4:	6a1b      	ldr	r3, [r3, #32]
  402ca6:	f003 0370 	and.w	r3, r3, #112	; 0x70
  402caa:	2b10      	cmp	r3, #16
  402cac:	d008      	beq.n	402cc0 <SystemCoreClockUpdate+0x80>
  402cae:	2b20      	cmp	r3, #32
  402cb0:	d00a      	beq.n	402cc8 <SystemCoreClockUpdate+0x88>
  402cb2:	2b00      	cmp	r3, #0
  402cb4:	d000      	beq.n	402cb8 <SystemCoreClockUpdate+0x78>
			break;
  402cb6:	e00b      	b.n	402cd0 <SystemCoreClockUpdate+0x90>
				SystemCoreClock = CHIP_FREQ_MAINCK_RC_4MHZ;
  402cb8:	4b42      	ldr	r3, [pc, #264]	; (402dc4 <SystemCoreClockUpdate+0x184>)
  402cba:	4a44      	ldr	r2, [pc, #272]	; (402dcc <SystemCoreClockUpdate+0x18c>)
  402cbc:	601a      	str	r2, [r3, #0]
			break;
  402cbe:	e007      	b.n	402cd0 <SystemCoreClockUpdate+0x90>
				SystemCoreClock = CHIP_FREQ_MAINCK_RC_8MHZ;
  402cc0:	4b40      	ldr	r3, [pc, #256]	; (402dc4 <SystemCoreClockUpdate+0x184>)
  402cc2:	4a43      	ldr	r2, [pc, #268]	; (402dd0 <SystemCoreClockUpdate+0x190>)
  402cc4:	601a      	str	r2, [r3, #0]
			break;
  402cc6:	e003      	b.n	402cd0 <SystemCoreClockUpdate+0x90>
				SystemCoreClock = CHIP_FREQ_MAINCK_RC_12MHZ;
  402cc8:	4b3e      	ldr	r3, [pc, #248]	; (402dc4 <SystemCoreClockUpdate+0x184>)
  402cca:	4a3f      	ldr	r2, [pc, #252]	; (402dc8 <SystemCoreClockUpdate+0x188>)
  402ccc:	601a      	str	r2, [r3, #0]
			break;
  402cce:	bf00      	nop
		break;
  402cd0:	e056      	b.n	402d80 <SystemCoreClockUpdate+0x140>
		
	case PMC_MCKR_CSS_PLLA_CLK:	/* PLLA clock */
	case PMC_MCKR_CSS_PLLB_CLK:	/* PLLB clock */
			if ( PMC->CKGR_MOR & CKGR_MOR_MOSCSEL ) {
  402cd2:	4b3a      	ldr	r3, [pc, #232]	; (402dbc <SystemCoreClockUpdate+0x17c>)
  402cd4:	6a1b      	ldr	r3, [r3, #32]
  402cd6:	f003 7380 	and.w	r3, r3, #16777216	; 0x1000000
  402cda:	2b00      	cmp	r3, #0
  402cdc:	d003      	beq.n	402ce6 <SystemCoreClockUpdate+0xa6>
				SystemCoreClock = CHIP_FREQ_XTAL;
  402cde:	4b39      	ldr	r3, [pc, #228]	; (402dc4 <SystemCoreClockUpdate+0x184>)
  402ce0:	4a39      	ldr	r2, [pc, #228]	; (402dc8 <SystemCoreClockUpdate+0x188>)
  402ce2:	601a      	str	r2, [r3, #0]
  402ce4:	e019      	b.n	402d1a <SystemCoreClockUpdate+0xda>
			} else {
				SystemCoreClock = CHIP_FREQ_MAINCK_RC_4MHZ;
  402ce6:	4b37      	ldr	r3, [pc, #220]	; (402dc4 <SystemCoreClockUpdate+0x184>)
  402ce8:	4a38      	ldr	r2, [pc, #224]	; (402dcc <SystemCoreClockUpdate+0x18c>)
  402cea:	601a      	str	r2, [r3, #0]
				
				switch ( PMC->CKGR_MOR & CKGR_MOR_MOSCRCF_Msk ) {
  402cec:	4b33      	ldr	r3, [pc, #204]	; (402dbc <SystemCoreClockUpdate+0x17c>)
  402cee:	6a1b      	ldr	r3, [r3, #32]
  402cf0:	f003 0370 	and.w	r3, r3, #112	; 0x70
  402cf4:	2b10      	cmp	r3, #16
  402cf6:	d008      	beq.n	402d0a <SystemCoreClockUpdate+0xca>
  402cf8:	2b20      	cmp	r3, #32
  402cfa:	d00a      	beq.n	402d12 <SystemCoreClockUpdate+0xd2>
  402cfc:	2b00      	cmp	r3, #0
  402cfe:	d000      	beq.n	402d02 <SystemCoreClockUpdate+0xc2>
				case CKGR_MOR_MOSCRCF_12_MHz:
					SystemCoreClock = CHIP_FREQ_MAINCK_RC_12MHZ;
					break;
				
				default:
					break;
  402d00:	e00b      	b.n	402d1a <SystemCoreClockUpdate+0xda>
					SystemCoreClock = CHIP_FREQ_MAINCK_RC_4MHZ;
  402d02:	4b30      	ldr	r3, [pc, #192]	; (402dc4 <SystemCoreClockUpdate+0x184>)
  402d04:	4a31      	ldr	r2, [pc, #196]	; (402dcc <SystemCoreClockUpdate+0x18c>)
  402d06:	601a      	str	r2, [r3, #0]
					break;
  402d08:	e007      	b.n	402d1a <SystemCoreClockUpdate+0xda>
					SystemCoreClock = CHIP_FREQ_MAINCK_RC_8MHZ;
  402d0a:	4b2e      	ldr	r3, [pc, #184]	; (402dc4 <SystemCoreClockUpdate+0x184>)
  402d0c:	4a30      	ldr	r2, [pc, #192]	; (402dd0 <SystemCoreClockUpdate+0x190>)
  402d0e:	601a      	str	r2, [r3, #0]
					break;
  402d10:	e003      	b.n	402d1a <SystemCoreClockUpdate+0xda>
					SystemCoreClock = CHIP_FREQ_MAINCK_RC_12MHZ;
  402d12:	4b2c      	ldr	r3, [pc, #176]	; (402dc4 <SystemCoreClockUpdate+0x184>)
  402d14:	4a2c      	ldr	r2, [pc, #176]	; (402dc8 <SystemCoreClockUpdate+0x188>)
  402d16:	601a      	str	r2, [r3, #0]
					break;
  402d18:	bf00      	nop
				}
			}
			
			if ( (uint32_t)(PMC->PMC_MCKR & (uint32_t) PMC_MCKR_CSS_Msk) ==
  402d1a:	4b28      	ldr	r3, [pc, #160]	; (402dbc <SystemCoreClockUpdate+0x17c>)
  402d1c:	6b1b      	ldr	r3, [r3, #48]	; 0x30
  402d1e:	f003 0303 	and.w	r3, r3, #3
  402d22:	2b02      	cmp	r3, #2
  402d24:	d115      	bne.n	402d52 <SystemCoreClockUpdate+0x112>
					PMC_MCKR_CSS_PLLA_CLK ) {
				SystemCoreClock *= ((((PMC->CKGR_PLLAR) & CKGR_PLLAR_MULA_Msk)
  402d26:	4b25      	ldr	r3, [pc, #148]	; (402dbc <SystemCoreClockUpdate+0x17c>)
  402d28:	6a9b      	ldr	r3, [r3, #40]	; 0x28
						>> CKGR_PLLAR_MULA_Pos) + 1U);
  402d2a:	0c1b      	lsrs	r3, r3, #16
  402d2c:	f3c3 030a 	ubfx	r3, r3, #0, #11
  402d30:	3301      	adds	r3, #1
				SystemCoreClock *= ((((PMC->CKGR_PLLAR) & CKGR_PLLAR_MULA_Msk)
  402d32:	4a24      	ldr	r2, [pc, #144]	; (402dc4 <SystemCoreClockUpdate+0x184>)
  402d34:	6812      	ldr	r2, [r2, #0]
  402d36:	fb02 f303 	mul.w	r3, r2, r3
  402d3a:	4a22      	ldr	r2, [pc, #136]	; (402dc4 <SystemCoreClockUpdate+0x184>)
  402d3c:	6013      	str	r3, [r2, #0]
				SystemCoreClock /= ((((PMC->CKGR_PLLAR) & CKGR_PLLAR_DIVA_Msk)
  402d3e:	4b1f      	ldr	r3, [pc, #124]	; (402dbc <SystemCoreClockUpdate+0x17c>)
  402d40:	6a9b      	ldr	r3, [r3, #40]	; 0x28
						>> CKGR_PLLAR_DIVA_Pos));
  402d42:	b2db      	uxtb	r3, r3
				SystemCoreClock /= ((((PMC->CKGR_PLLAR) & CKGR_PLLAR_DIVA_Msk)
  402d44:	4a1f      	ldr	r2, [pc, #124]	; (402dc4 <SystemCoreClockUpdate+0x184>)
  402d46:	6812      	ldr	r2, [r2, #0]
  402d48:	fbb2 f3f3 	udiv	r3, r2, r3
  402d4c:	4a1d      	ldr	r2, [pc, #116]	; (402dc4 <SystemCoreClockUpdate+0x184>)
  402d4e:	6013      	str	r3, [r2, #0]
				SystemCoreClock *= ((((PMC->CKGR_PLLBR) & CKGR_PLLBR_MULB_Msk)
						>> CKGR_PLLBR_MULB_Pos) + 1U);
				SystemCoreClock /= ((((PMC->CKGR_PLLBR) & CKGR_PLLBR_DIVB_Msk)
						>> CKGR_PLLBR_DIVB_Pos));
			}
		break;
  402d50:	e016      	b.n	402d80 <SystemCoreClockUpdate+0x140>
				SystemCoreClock *= ((((PMC->CKGR_PLLBR) & CKGR_PLLBR_MULB_Msk)
  402d52:	4b1a      	ldr	r3, [pc, #104]	; (402dbc <SystemCoreClockUpdate+0x17c>)
  402d54:	6adb      	ldr	r3, [r3, #44]	; 0x2c
						>> CKGR_PLLBR_MULB_Pos) + 1U);
  402d56:	0c1b      	lsrs	r3, r3, #16
  402d58:	f3c3 030a 	ubfx	r3, r3, #0, #11
  402d5c:	3301      	adds	r3, #1
				SystemCoreClock *= ((((PMC->CKGR_PLLBR) & CKGR_PLLBR_MULB_Msk)
  402d5e:	4a19      	ldr	r2, [pc, #100]	; (402dc4 <SystemCoreClockUpdate+0x184>)
  402d60:	6812      	ldr	r2, [r2, #0]
  402d62:	fb02 f303 	mul.w	r3, r2, r3
  402d66:	4a17      	ldr	r2, [pc, #92]	; (402dc4 <SystemCoreClockUpdate+0x184>)
  402d68:	6013      	str	r3, [r2, #0]
				SystemCoreClock /= ((((PMC->CKGR_PLLBR) & CKGR_PLLBR_DIVB_Msk)
  402d6a:	4b14      	ldr	r3, [pc, #80]	; (402dbc <SystemCoreClockUpdate+0x17c>)
  402d6c:	6adb      	ldr	r3, [r3, #44]	; 0x2c
						>> CKGR_PLLBR_DIVB_Pos));
  402d6e:	b2db      	uxtb	r3, r3
				SystemCoreClock /= ((((PMC->CKGR_PLLBR) & CKGR_PLLBR_DIVB_Msk)
  402d70:	4a14      	ldr	r2, [pc, #80]	; (402dc4 <SystemCoreClockUpdate+0x184>)
  402d72:	6812      	ldr	r2, [r2, #0]
  402d74:	fbb2 f3f3 	udiv	r3, r2, r3
  402d78:	4a12      	ldr	r2, [pc, #72]	; (402dc4 <SystemCoreClockUpdate+0x184>)
  402d7a:	6013      	str	r3, [r2, #0]
		break;
  402d7c:	e000      	b.n	402d80 <SystemCoreClockUpdate+0x140>
		
	default:
		break;
  402d7e:	bf00      	nop
	}

	if ( (PMC->PMC_MCKR & PMC_MCKR_PRES_Msk) == PMC_MCKR_PRES_CLK_3 ) {
  402d80:	4b0e      	ldr	r3, [pc, #56]	; (402dbc <SystemCoreClockUpdate+0x17c>)
  402d82:	6b1b      	ldr	r3, [r3, #48]	; 0x30
  402d84:	f003 0370 	and.w	r3, r3, #112	; 0x70
  402d88:	2b70      	cmp	r3, #112	; 0x70
  402d8a:	d108      	bne.n	402d9e <SystemCoreClockUpdate+0x15e>
		SystemCoreClock /= 3U;
  402d8c:	4b0d      	ldr	r3, [pc, #52]	; (402dc4 <SystemCoreClockUpdate+0x184>)
  402d8e:	681b      	ldr	r3, [r3, #0]
  402d90:	4a10      	ldr	r2, [pc, #64]	; (402dd4 <SystemCoreClockUpdate+0x194>)
  402d92:	fba2 2303 	umull	r2, r3, r2, r3
  402d96:	085b      	lsrs	r3, r3, #1
  402d98:	4a0a      	ldr	r2, [pc, #40]	; (402dc4 <SystemCoreClockUpdate+0x184>)
  402d9a:	6013      	str	r3, [r2, #0]
	} else {
		SystemCoreClock >>=
			((PMC->PMC_MCKR & PMC_MCKR_PRES_Msk) >> PMC_MCKR_PRES_Pos);
	}
}
  402d9c:	e00a      	b.n	402db4 <SystemCoreClockUpdate+0x174>
			((PMC->PMC_MCKR & PMC_MCKR_PRES_Msk) >> PMC_MCKR_PRES_Pos);
  402d9e:	4b07      	ldr	r3, [pc, #28]	; (402dbc <SystemCoreClockUpdate+0x17c>)
  402da0:	6b1b      	ldr	r3, [r3, #48]	; 0x30
  402da2:	091b      	lsrs	r3, r3, #4
  402da4:	f003 0307 	and.w	r3, r3, #7
		SystemCoreClock >>=
  402da8:	4a06      	ldr	r2, [pc, #24]	; (402dc4 <SystemCoreClockUpdate+0x184>)
  402daa:	6812      	ldr	r2, [r2, #0]
  402dac:	fa22 f303 	lsr.w	r3, r2, r3
  402db0:	4a04      	ldr	r2, [pc, #16]	; (402dc4 <SystemCoreClockUpdate+0x184>)
  402db2:	6013      	str	r3, [r2, #0]
}
  402db4:	bf00      	nop
  402db6:	46bd      	mov	sp, r7
  402db8:	bc80      	pop	{r7}
  402dba:	4770      	bx	lr
  402dbc:	400e0400 	.word	0x400e0400
  402dc0:	400e1410 	.word	0x400e1410
  402dc4:	2000000c 	.word	0x2000000c
  402dc8:	00b71b00 	.word	0x00b71b00
  402dcc:	003d0900 	.word	0x003d0900
  402dd0:	007a1200 	.word	0x007a1200
  402dd4:	aaaaaaab 	.word	0xaaaaaaab

00402dd8 <system_init_flash>:
 * \brief Initialize flash wait state according to operating frequency.
 *
 * \param ul_clk System clock frequency.
 */
void system_init_flash( uint32_t ul_clk )
{
  402dd8:	b480      	push	{r7}
  402dda:	b083      	sub	sp, #12
  402ddc:	af00      	add	r7, sp, #0
  402dde:	6078      	str	r0, [r7, #4]
  /* Set FWS for embedded Flash access according to operating frequency */
#if !defined(ID_EFC1)
	if ( ul_clk < CHIP_FREQ_FWS_0 ) {
  402de0:	687b      	ldr	r3, [r7, #4]
  402de2:	4a18      	ldr	r2, [pc, #96]	; (402e44 <system_init_flash+0x6c>)
  402de4:	4293      	cmp	r3, r2
  402de6:	d804      	bhi.n	402df2 <system_init_flash+0x1a>
		EFC0->EEFC_FMR = EEFC_FMR_FWS(0)|EEFC_FMR_CLOE;
  402de8:	4b17      	ldr	r3, [pc, #92]	; (402e48 <system_init_flash+0x70>)
  402dea:	f04f 6280 	mov.w	r2, #67108864	; 0x4000000
  402dee:	601a      	str	r2, [r3, #0]
				}
			}
		}
	}
#endif
}
  402df0:	e023      	b.n	402e3a <system_init_flash+0x62>
		if ( ul_clk < CHIP_FREQ_FWS_1 ) {
  402df2:	687b      	ldr	r3, [r7, #4]
  402df4:	4a15      	ldr	r2, [pc, #84]	; (402e4c <system_init_flash+0x74>)
  402df6:	4293      	cmp	r3, r2
  402df8:	d803      	bhi.n	402e02 <system_init_flash+0x2a>
			EFC0->EEFC_FMR = EEFC_FMR_FWS(1)|EEFC_FMR_CLOE;
  402dfa:	4b13      	ldr	r3, [pc, #76]	; (402e48 <system_init_flash+0x70>)
  402dfc:	4a14      	ldr	r2, [pc, #80]	; (402e50 <system_init_flash+0x78>)
  402dfe:	601a      	str	r2, [r3, #0]
}
  402e00:	e01b      	b.n	402e3a <system_init_flash+0x62>
			if ( ul_clk < CHIP_FREQ_FWS_2 ) {
  402e02:	687b      	ldr	r3, [r7, #4]
  402e04:	4a13      	ldr	r2, [pc, #76]	; (402e54 <system_init_flash+0x7c>)
  402e06:	4293      	cmp	r3, r2
  402e08:	d803      	bhi.n	402e12 <system_init_flash+0x3a>
				EFC0->EEFC_FMR = EEFC_FMR_FWS(2)|EEFC_FMR_CLOE;
  402e0a:	4b0f      	ldr	r3, [pc, #60]	; (402e48 <system_init_flash+0x70>)
  402e0c:	4a12      	ldr	r2, [pc, #72]	; (402e58 <system_init_flash+0x80>)
  402e0e:	601a      	str	r2, [r3, #0]
}
  402e10:	e013      	b.n	402e3a <system_init_flash+0x62>
				if ( ul_clk < CHIP_FREQ_FWS_3 ) {
  402e12:	687b      	ldr	r3, [r7, #4]
  402e14:	4a11      	ldr	r2, [pc, #68]	; (402e5c <system_init_flash+0x84>)
  402e16:	4293      	cmp	r3, r2
  402e18:	d803      	bhi.n	402e22 <system_init_flash+0x4a>
					EFC0->EEFC_FMR = EEFC_FMR_FWS(3)|EEFC_FMR_CLOE;
  402e1a:	4b0b      	ldr	r3, [pc, #44]	; (402e48 <system_init_flash+0x70>)
  402e1c:	4a10      	ldr	r2, [pc, #64]	; (402e60 <system_init_flash+0x88>)
  402e1e:	601a      	str	r2, [r3, #0]
}
  402e20:	e00b      	b.n	402e3a <system_init_flash+0x62>
					if ( ul_clk < CHIP_FREQ_FWS_4 ) {
  402e22:	687b      	ldr	r3, [r7, #4]
  402e24:	4a0f      	ldr	r2, [pc, #60]	; (402e64 <system_init_flash+0x8c>)
  402e26:	4293      	cmp	r3, r2
  402e28:	d804      	bhi.n	402e34 <system_init_flash+0x5c>
					EFC0->EEFC_FMR = EEFC_FMR_FWS(4)|EEFC_FMR_CLOE;
  402e2a:	4b07      	ldr	r3, [pc, #28]	; (402e48 <system_init_flash+0x70>)
  402e2c:	f04f 2204 	mov.w	r2, #67109888	; 0x4000400
  402e30:	601a      	str	r2, [r3, #0]
}
  402e32:	e002      	b.n	402e3a <system_init_flash+0x62>
					EFC0->EEFC_FMR = EEFC_FMR_FWS(5)|EEFC_FMR_CLOE;
  402e34:	4b04      	ldr	r3, [pc, #16]	; (402e48 <system_init_flash+0x70>)
  402e36:	4a0c      	ldr	r2, [pc, #48]	; (402e68 <system_init_flash+0x90>)
  402e38:	601a      	str	r2, [r3, #0]
}
  402e3a:	bf00      	nop
  402e3c:	370c      	adds	r7, #12
  402e3e:	46bd      	mov	sp, r7
  402e40:	bc80      	pop	{r7}
  402e42:	4770      	bx	lr
  402e44:	01312cff 	.word	0x01312cff
  402e48:	400e0a00 	.word	0x400e0a00
  402e4c:	026259ff 	.word	0x026259ff
  402e50:	04000100 	.word	0x04000100
  402e54:	039386ff 	.word	0x039386ff
  402e58:	04000200 	.word	0x04000200
  402e5c:	04c4b3ff 	.word	0x04c4b3ff
  402e60:	04000300 	.word	0x04000300
  402e64:	05f5e0ff 	.word	0x05f5e0ff
  402e68:	04000500 	.word	0x04000500

00402e6c <_sbrk>:
extern void _exit(int status);
extern void _kill(int pid, int sig);
extern int _getpid(void);

extern caddr_t _sbrk(int incr)
{
  402e6c:	b480      	push	{r7}
  402e6e:	b085      	sub	sp, #20
  402e70:	af00      	add	r7, sp, #0
  402e72:	6078      	str	r0, [r7, #4]
	static unsigned char *heap = NULL;
	unsigned char *prev_heap;
	int ramend = (int)&__ram_end__;
  402e74:	4b10      	ldr	r3, [pc, #64]	; (402eb8 <_sbrk+0x4c>)
  402e76:	60fb      	str	r3, [r7, #12]

	if (heap == NULL) {
  402e78:	4b10      	ldr	r3, [pc, #64]	; (402ebc <_sbrk+0x50>)
  402e7a:	681b      	ldr	r3, [r3, #0]
  402e7c:	2b00      	cmp	r3, #0
  402e7e:	d102      	bne.n	402e86 <_sbrk+0x1a>
		heap = (unsigned char *)&_end;
  402e80:	4b0e      	ldr	r3, [pc, #56]	; (402ebc <_sbrk+0x50>)
  402e82:	4a0f      	ldr	r2, [pc, #60]	; (402ec0 <_sbrk+0x54>)
  402e84:	601a      	str	r2, [r3, #0]
	}
	prev_heap = heap;
  402e86:	4b0d      	ldr	r3, [pc, #52]	; (402ebc <_sbrk+0x50>)
  402e88:	681b      	ldr	r3, [r3, #0]
  402e8a:	60bb      	str	r3, [r7, #8]

	if (((int)prev_heap + incr) > ramend) {
  402e8c:	68ba      	ldr	r2, [r7, #8]
  402e8e:	687b      	ldr	r3, [r7, #4]
  402e90:	441a      	add	r2, r3
  402e92:	68fb      	ldr	r3, [r7, #12]
  402e94:	429a      	cmp	r2, r3
  402e96:	dd02      	ble.n	402e9e <_sbrk+0x32>
		return (caddr_t) -1;	
  402e98:	f04f 33ff 	mov.w	r3, #4294967295
  402e9c:	e006      	b.n	402eac <_sbrk+0x40>
	}

	heap += incr;
  402e9e:	4b07      	ldr	r3, [pc, #28]	; (402ebc <_sbrk+0x50>)
  402ea0:	681a      	ldr	r2, [r3, #0]
  402ea2:	687b      	ldr	r3, [r7, #4]
  402ea4:	4413      	add	r3, r2
  402ea6:	4a05      	ldr	r2, [pc, #20]	; (402ebc <_sbrk+0x50>)
  402ea8:	6013      	str	r3, [r2, #0]

	return (caddr_t) prev_heap;
  402eaa:	68bb      	ldr	r3, [r7, #8]
}
  402eac:	4618      	mov	r0, r3
  402eae:	3714      	adds	r7, #20
  402eb0:	46bd      	mov	sp, r7
  402eb2:	bc80      	pop	{r7}
  402eb4:	4770      	bx	lr
  402eb6:	bf00      	nop
  402eb8:	2001fffc 	.word	0x2001fffc
  402ebc:	20000a74 	.word	0x20000a74
  402ec0:	2001c568 	.word	0x2001c568

00402ec4 <osc_get_rate>:
{
  402ec4:	b480      	push	{r7}
  402ec6:	b083      	sub	sp, #12
  402ec8:	af00      	add	r7, sp, #0
  402eca:	6078      	str	r0, [r7, #4]
	switch (ul_id) {
  402ecc:	687b      	ldr	r3, [r7, #4]
  402ece:	2b07      	cmp	r3, #7
  402ed0:	d825      	bhi.n	402f1e <osc_get_rate+0x5a>
  402ed2:	a201      	add	r2, pc, #4	; (adr r2, 402ed8 <osc_get_rate+0x14>)
  402ed4:	f852 f023 	ldr.w	pc, [r2, r3, lsl #2]
  402ed8:	00402ef9 	.word	0x00402ef9
  402edc:	00402eff 	.word	0x00402eff
  402ee0:	00402f05 	.word	0x00402f05
  402ee4:	00402f0b 	.word	0x00402f0b
  402ee8:	00402f0f 	.word	0x00402f0f
  402eec:	00402f13 	.word	0x00402f13
  402ef0:	00402f17 	.word	0x00402f17
  402ef4:	00402f1b 	.word	0x00402f1b
		return OSC_SLCK_32K_RC_HZ;
  402ef8:	f44f 43fa 	mov.w	r3, #32000	; 0x7d00
  402efc:	e010      	b.n	402f20 <osc_get_rate+0x5c>
		return BOARD_FREQ_SLCK_XTAL;
  402efe:	f44f 4300 	mov.w	r3, #32768	; 0x8000
  402f02:	e00d      	b.n	402f20 <osc_get_rate+0x5c>
		return BOARD_FREQ_SLCK_BYPASS;
  402f04:	f44f 4300 	mov.w	r3, #32768	; 0x8000
  402f08:	e00a      	b.n	402f20 <osc_get_rate+0x5c>
		return OSC_MAINCK_4M_RC_HZ;
  402f0a:	4b08      	ldr	r3, [pc, #32]	; (402f2c <osc_get_rate+0x68>)
  402f0c:	e008      	b.n	402f20 <osc_get_rate+0x5c>
		return OSC_MAINCK_8M_RC_HZ;
  402f0e:	4b08      	ldr	r3, [pc, #32]	; (402f30 <osc_get_rate+0x6c>)
  402f10:	e006      	b.n	402f20 <osc_get_rate+0x5c>
		return OSC_MAINCK_12M_RC_HZ;
  402f12:	4b08      	ldr	r3, [pc, #32]	; (402f34 <osc_get_rate+0x70>)
  402f14:	e004      	b.n	402f20 <osc_get_rate+0x5c>
		return BOARD_FREQ_MAINCK_XTAL;
  402f16:	4b07      	ldr	r3, [pc, #28]	; (402f34 <osc_get_rate+0x70>)
  402f18:	e002      	b.n	402f20 <osc_get_rate+0x5c>
		return BOARD_FREQ_MAINCK_BYPASS;
  402f1a:	4b06      	ldr	r3, [pc, #24]	; (402f34 <osc_get_rate+0x70>)
  402f1c:	e000      	b.n	402f20 <osc_get_rate+0x5c>
	return 0;
  402f1e:	2300      	movs	r3, #0
}
  402f20:	4618      	mov	r0, r3
  402f22:	370c      	adds	r7, #12
  402f24:	46bd      	mov	sp, r7
  402f26:	bc80      	pop	{r7}
  402f28:	4770      	bx	lr
  402f2a:	bf00      	nop
  402f2c:	003d0900 	.word	0x003d0900
  402f30:	007a1200 	.word	0x007a1200
  402f34:	00b71b00 	.word	0x00b71b00

00402f38 <sysclk_get_main_hz>:
{
  402f38:	b580      	push	{r7, lr}
  402f3a:	af00      	add	r7, sp, #0
		return pll_get_default_rate(0);
  402f3c:	2006      	movs	r0, #6
  402f3e:	4b04      	ldr	r3, [pc, #16]	; (402f50 <sysclk_get_main_hz+0x18>)
  402f40:	4798      	blx	r3
  402f42:	4602      	mov	r2, r0
  402f44:	4613      	mov	r3, r2
  402f46:	009b      	lsls	r3, r3, #2
  402f48:	4413      	add	r3, r2
  402f4a:	009b      	lsls	r3, r3, #2
}
  402f4c:	4618      	mov	r0, r3
  402f4e:	bd80      	pop	{r7, pc}
  402f50:	00402ec5 	.word	0x00402ec5

00402f54 <sysclk_get_cpu_hz>:
{
  402f54:	b580      	push	{r7, lr}
  402f56:	af00      	add	r7, sp, #0
	return sysclk_get_main_hz() /
  402f58:	4b02      	ldr	r3, [pc, #8]	; (402f64 <sysclk_get_cpu_hz+0x10>)
  402f5a:	4798      	blx	r3
  402f5c:	4603      	mov	r3, r0
  402f5e:	085b      	lsrs	r3, r3, #1
}
  402f60:	4618      	mov	r0, r3
  402f62:	bd80      	pop	{r7, pc}
  402f64:	00402f39 	.word	0x00402f39

00402f68 <ioport_set_pin_level>:
{
  402f68:	b480      	push	{r7}
  402f6a:	b08b      	sub	sp, #44	; 0x2c
  402f6c:	af00      	add	r7, sp, #0
  402f6e:	6078      	str	r0, [r7, #4]
  402f70:	460b      	mov	r3, r1
  402f72:	70fb      	strb	r3, [r7, #3]
  402f74:	687b      	ldr	r3, [r7, #4]
  402f76:	627b      	str	r3, [r7, #36]	; 0x24
  402f78:	78fb      	ldrb	r3, [r7, #3]
  402f7a:	f887 3023 	strb.w	r3, [r7, #35]	; 0x23
  402f7e:	6a7b      	ldr	r3, [r7, #36]	; 0x24
  402f80:	61fb      	str	r3, [r7, #28]
  402f82:	69fb      	ldr	r3, [r7, #28]
  402f84:	61bb      	str	r3, [r7, #24]
	return pin >> 5;
  402f86:	69bb      	ldr	r3, [r7, #24]
  402f88:	095b      	lsrs	r3, r3, #5
  402f8a:	617b      	str	r3, [r7, #20]
	return (Pio *)((uintptr_t)IOPORT_BASE_ADDRESS +
  402f8c:	697b      	ldr	r3, [r7, #20]
  402f8e:	f503 1300 	add.w	r3, r3, #2097152	; 0x200000
  402f92:	f203 7307 	addw	r3, r3, #1799	; 0x707
  402f96:	025b      	lsls	r3, r3, #9
	Pio *base = arch_ioport_pin_to_base(pin);
  402f98:	613b      	str	r3, [r7, #16]
	if (level) {
  402f9a:	f897 3023 	ldrb.w	r3, [r7, #35]	; 0x23
  402f9e:	2b00      	cmp	r3, #0
  402fa0:	d009      	beq.n	402fb6 <ioport_set_pin_level+0x4e>
  402fa2:	6a7b      	ldr	r3, [r7, #36]	; 0x24
  402fa4:	60fb      	str	r3, [r7, #12]
	return 1U << (pin & 0x1F);
  402fa6:	68fb      	ldr	r3, [r7, #12]
  402fa8:	f003 031f 	and.w	r3, r3, #31
  402fac:	2201      	movs	r2, #1
  402fae:	409a      	lsls	r2, r3
		base->PIO_SODR = arch_ioport_pin_to_mask(pin);
  402fb0:	693b      	ldr	r3, [r7, #16]
  402fb2:	631a      	str	r2, [r3, #48]	; 0x30
}
  402fb4:	e008      	b.n	402fc8 <ioport_set_pin_level+0x60>
  402fb6:	6a7b      	ldr	r3, [r7, #36]	; 0x24
  402fb8:	60bb      	str	r3, [r7, #8]
	return 1U << (pin & 0x1F);
  402fba:	68bb      	ldr	r3, [r7, #8]
  402fbc:	f003 031f 	and.w	r3, r3, #31
  402fc0:	2201      	movs	r2, #1
  402fc2:	409a      	lsls	r2, r3
		base->PIO_CODR = arch_ioport_pin_to_mask(pin);
  402fc4:	693b      	ldr	r3, [r7, #16]
  402fc6:	635a      	str	r2, [r3, #52]	; 0x34
  402fc8:	bf00      	nop
  402fca:	372c      	adds	r7, #44	; 0x2c
  402fcc:	46bd      	mov	sp, r7
  402fce:	bc80      	pop	{r7}
  402fd0:	4770      	bx	lr

00402fd2 <ioport_get_pin_level>:
 *
 * \param pin IOPORT pin to read
 * \return Current logical value of the specified pin
 */
static inline bool ioport_get_pin_level(ioport_pin_t pin)
{
  402fd2:	b480      	push	{r7}
  402fd4:	b089      	sub	sp, #36	; 0x24
  402fd6:	af00      	add	r7, sp, #0
  402fd8:	6078      	str	r0, [r7, #4]
  402fda:	687b      	ldr	r3, [r7, #4]
  402fdc:	61fb      	str	r3, [r7, #28]
  402fde:	69fb      	ldr	r3, [r7, #28]
  402fe0:	61bb      	str	r3, [r7, #24]
  402fe2:	69bb      	ldr	r3, [r7, #24]
  402fe4:	617b      	str	r3, [r7, #20]
	return pin >> 5;
  402fe6:	697b      	ldr	r3, [r7, #20]
  402fe8:	095b      	lsrs	r3, r3, #5
  402fea:	613b      	str	r3, [r7, #16]
	return (Pio *)((uintptr_t)IOPORT_BASE_ADDRESS +
  402fec:	693b      	ldr	r3, [r7, #16]
  402fee:	f503 1300 	add.w	r3, r3, #2097152	; 0x200000
  402ff2:	f203 7307 	addw	r3, r3, #1799	; 0x707
  402ff6:	025b      	lsls	r3, r3, #9
	}
}

__always_inline static bool arch_ioport_get_pin_level(ioport_pin_t pin)
{
	return arch_ioport_pin_to_base(pin)->PIO_PDSR & arch_ioport_pin_to_mask(pin);
  402ff8:	6bda      	ldr	r2, [r3, #60]	; 0x3c
  402ffa:	69fb      	ldr	r3, [r7, #28]
  402ffc:	60fb      	str	r3, [r7, #12]
	return 1U << (pin & 0x1F);
  402ffe:	68fb      	ldr	r3, [r7, #12]
  403000:	f003 031f 	and.w	r3, r3, #31
  403004:	2101      	movs	r1, #1
  403006:	fa01 f303 	lsl.w	r3, r1, r3
	return arch_ioport_pin_to_base(pin)->PIO_PDSR & arch_ioport_pin_to_mask(pin);
  40300a:	4013      	ands	r3, r2
  40300c:	2b00      	cmp	r3, #0
  40300e:	bf14      	ite	ne
  403010:	2301      	movne	r3, #1
  403012:	2300      	moveq	r3, #0
  403014:	b2db      	uxtb	r3, r3
	return arch_ioport_get_pin_level(pin);
}
  403016:	4618      	mov	r0, r3
  403018:	3724      	adds	r7, #36	; 0x24
  40301a:	46bd      	mov	sp, r7
  40301c:	bc80      	pop	{r7}
  40301e:	4770      	bx	lr

00403020 <main>:
// Global variables because we're mechanical engineers
volatile uint32_t receivedMessage;


int main (void)
{
  403020:	e92d 4ff0 	stmdb	sp!, {r4, r5, r6, r7, r8, r9, sl, fp, lr}
  403024:	b09b      	sub	sp, #108	; 0x6c
  403026:	af00      	add	r7, sp, #0
	// boilerplate
	sysclk_init();
  403028:	4b9c      	ldr	r3, [pc, #624]	; (40329c <main+0x27c>)
  40302a:	4798      	blx	r3
	wdt_disable(WDT);
  40302c:	489c      	ldr	r0, [pc, #624]	; (4032a0 <main+0x280>)
  40302e:	4b9d      	ldr	r3, [pc, #628]	; (4032a4 <main+0x284>)
  403030:	4798      	blx	r3
	board_init();
  403032:	4b9d      	ldr	r3, [pc, #628]	; (4032a8 <main+0x288>)
  403034:	4798      	blx	r3
	
	
	configure_tc();
  403036:	4b9d      	ldr	r3, [pc, #628]	; (4032ac <main+0x28c>)
  403038:	4798      	blx	r3
	tc_start(TC0, 0);
  40303a:	2100      	movs	r1, #0
  40303c:	489c      	ldr	r0, [pc, #624]	; (4032b0 <main+0x290>)
  40303e:	4b9d      	ldr	r3, [pc, #628]	; (4032b4 <main+0x294>)
  403040:	4798      	blx	r3

	// Configure all of the wifi stuff
	configure_usart_wifi();
  403042:	4b9d      	ldr	r3, [pc, #628]	; (4032b8 <main+0x298>)
  403044:	4798      	blx	r3
	configure_wifi_comm_pin();
  403046:	4b9d      	ldr	r3, [pc, #628]	; (4032bc <main+0x29c>)
  403048:	4798      	blx	r3
	configure_wifi_web_setup_pin();
  40304a:	4b9d      	ldr	r3, [pc, #628]	; (4032c0 <main+0x2a0>)
  40304c:	4798      	blx	r3
	
	
	ioport_set_pin_level(PIN_WIFI_RESET,LOW); //reset WIFI
  40304e:	2100      	movs	r1, #0
  403050:	2021      	movs	r0, #33	; 0x21
  403052:	4b9c      	ldr	r3, [pc, #624]	; (4032c4 <main+0x2a4>)
  403054:	4798      	blx	r3
	delay_ms(10);
  403056:	4b9c      	ldr	r3, [pc, #624]	; (4032c8 <main+0x2a8>)
  403058:	4798      	blx	r3
  40305a:	4603      	mov	r3, r0
  40305c:	4619      	mov	r1, r3
  40305e:	f04f 0200 	mov.w	r2, #0
  403062:	460b      	mov	r3, r1
  403064:	4614      	mov	r4, r2
  403066:	00a6      	lsls	r6, r4, #2
  403068:	ea46 7693 	orr.w	r6, r6, r3, lsr #30
  40306c:	009d      	lsls	r5, r3, #2
  40306e:	462b      	mov	r3, r5
  403070:	4634      	mov	r4, r6
  403072:	185b      	adds	r3, r3, r1
  403074:	eb44 0402 	adc.w	r4, r4, r2
  403078:	18db      	adds	r3, r3, r3
  40307a:	eb44 0404 	adc.w	r4, r4, r4
  40307e:	4619      	mov	r1, r3
  403080:	4622      	mov	r2, r4
  403082:	f243 63af 	movw	r3, #13999	; 0x36af
  403086:	f04f 0400 	mov.w	r4, #0
  40308a:	18cd      	adds	r5, r1, r3
  40308c:	eb42 0604 	adc.w	r6, r2, r4
  403090:	4628      	mov	r0, r5
  403092:	4631      	mov	r1, r6
  403094:	4c8d      	ldr	r4, [pc, #564]	; (4032cc <main+0x2ac>)
  403096:	f243 62b0 	movw	r2, #14000	; 0x36b0
  40309a:	f04f 0300 	mov.w	r3, #0
  40309e:	47a0      	blx	r4
  4030a0:	4603      	mov	r3, r0
  4030a2:	460c      	mov	r4, r1
  4030a4:	4618      	mov	r0, r3
  4030a6:	4b8a      	ldr	r3, [pc, #552]	; (4032d0 <main+0x2b0>)
  4030a8:	4798      	blx	r3
	ioport_set_pin_level(PIN_WIFI_RESET,HIGH); //turn Wifi Back on
  4030aa:	2101      	movs	r1, #1
  4030ac:	2021      	movs	r0, #33	; 0x21
  4030ae:	4b85      	ldr	r3, [pc, #532]	; (4032c4 <main+0x2a4>)
  4030b0:	4798      	blx	r3
	
	
	
	//initialize camera and start capture
	pmc_enable_periph_clk(ID_BOARD_TWI);
  4030b2:	2013      	movs	r0, #19
  4030b4:	4b87      	ldr	r3, [pc, #540]	; (4032d4 <main+0x2b4>)
  4030b6:	4798      	blx	r3
	pmc_enable_pllbck(7, 0x1, 1); /* PLLB work at 96 Mhz */
  4030b8:	2201      	movs	r2, #1
  4030ba:	2101      	movs	r1, #1
  4030bc:	2007      	movs	r0, #7
  4030be:	4b86      	ldr	r3, [pc, #536]	; (4032d8 <main+0x2b8>)
  4030c0:	4798      	blx	r3
	pmc_enable_pllack(7, 0x1,1);
  4030c2:	2201      	movs	r2, #1
  4030c4:	2101      	movs	r1, #1
  4030c6:	2007      	movs	r0, #7
  4030c8:	4b84      	ldr	r3, [pc, #528]	; (4032dc <main+0x2bc>)
  4030ca:	4798      	blx	r3
	init_camera();
  4030cc:	4b84      	ldr	r3, [pc, #528]	; (4032e0 <main+0x2c0>)
  4030ce:	4798      	blx	r3

	//start_capture();

	while(ioport_get_pin_level(PIN_WIFI_NETWORK_STATUS)==LOW){
  4030d0:	e00b      	b.n	4030ea <main+0xca>
		if(wifi_setup_flag == true){
  4030d2:	4b84      	ldr	r3, [pc, #528]	; (4032e4 <main+0x2c4>)
  4030d4:	781b      	ldrb	r3, [r3, #0]
  4030d6:	b2db      	uxtb	r3, r3
  4030d8:	2b00      	cmp	r3, #0
  4030da:	d006      	beq.n	4030ea <main+0xca>
			
			write_wifi_command("setup web\r\n", 5);
  4030dc:	2105      	movs	r1, #5
  4030de:	4882      	ldr	r0, [pc, #520]	; (4032e8 <main+0x2c8>)
  4030e0:	4b82      	ldr	r3, [pc, #520]	; (4032ec <main+0x2cc>)
  4030e2:	4798      	blx	r3
			//ioport_set_pin_level(PUSH_BUTTON,LOW);
			wifi_setup_flag = false;
  4030e4:	4b7f      	ldr	r3, [pc, #508]	; (4032e4 <main+0x2c4>)
  4030e6:	2200      	movs	r2, #0
  4030e8:	701a      	strb	r2, [r3, #0]
	while(ioport_get_pin_level(PIN_WIFI_NETWORK_STATUS)==LOW){
  4030ea:	200b      	movs	r0, #11
  4030ec:	4b80      	ldr	r3, [pc, #512]	; (4032f0 <main+0x2d0>)
  4030ee:	4798      	blx	r3
  4030f0:	4603      	mov	r3, r0
  4030f2:	f083 0301 	eor.w	r3, r3, #1
  4030f6:	b2db      	uxtb	r3, r3
  4030f8:	2b00      	cmp	r3, #0
  4030fa:	d1ea      	bne.n	4030d2 <main+0xb2>
	}
	
	
			
	while(1){
		if(wifi_setup_flag == true){
  4030fc:	4b79      	ldr	r3, [pc, #484]	; (4032e4 <main+0x2c4>)
  4030fe:	781b      	ldrb	r3, [r3, #0]
  403100:	b2db      	uxtb	r3, r3
  403102:	2b00      	cmp	r3, #0
  403104:	d007      	beq.n	403116 <main+0xf6>
			write_wifi_command("setup web\r\n", 5);
  403106:	2105      	movs	r1, #5
  403108:	4877      	ldr	r0, [pc, #476]	; (4032e8 <main+0x2c8>)
  40310a:	4b78      	ldr	r3, [pc, #480]	; (4032ec <main+0x2cc>)
  40310c:	4798      	blx	r3
			wifi_setup_flag = false;
  40310e:	4b75      	ldr	r3, [pc, #468]	; (4032e4 <main+0x2c4>)
  403110:	2200      	movs	r2, #0
  403112:	701a      	strb	r2, [r3, #0]
  403114:	e7f2      	b.n	4030fc <main+0xdc>
		}
		else{
			bool wifiNetworkConnected = ioport_get_pin_level(PIN_WIFI_NETWORK_STATUS); //check if connected to a network
  403116:	200b      	movs	r0, #11
  403118:	4b75      	ldr	r3, [pc, #468]	; (4032f0 <main+0x2d0>)
  40311a:	4798      	blx	r3
  40311c:	4603      	mov	r3, r0
  40311e:	f887 3063 	strb.w	r3, [r7, #99]	; 0x63
			if(wifiNetworkConnected == true){												//if yes, are there any open streams?
  403122:	f897 3063 	ldrb.w	r3, [r7, #99]	; 0x63
  403126:	2b00      	cmp	r3, #0
  403128:	d064      	beq.n	4031f4 <main+0x1d4>
				char sendString[80];
				for(int ii = 0; ii<80; ii++){
  40312a:	2300      	movs	r3, #0
  40312c:	667b      	str	r3, [r7, #100]	; 0x64
  40312e:	e008      	b.n	403142 <main+0x122>
					sendString[ii] = 0;
  403130:	f107 0210 	add.w	r2, r7, #16
  403134:	6e7b      	ldr	r3, [r7, #100]	; 0x64
  403136:	4413      	add	r3, r2
  403138:	2200      	movs	r2, #0
  40313a:	701a      	strb	r2, [r3, #0]
				for(int ii = 0; ii<80; ii++){
  40313c:	6e7b      	ldr	r3, [r7, #100]	; 0x64
  40313e:	3301      	adds	r3, #1
  403140:	667b      	str	r3, [r7, #100]	; 0x64
  403142:	6e7b      	ldr	r3, [r7, #100]	; 0x64
  403144:	2b4f      	cmp	r3, #79	; 0x4f
  403146:	ddf3      	ble.n	403130 <main+0x110>
				}
				sprintf(sendString, "stream_poll 0\r\n");
  403148:	f107 0310 	add.w	r3, r7, #16
  40314c:	4a69      	ldr	r2, [pc, #420]	; (4032f4 <main+0x2d4>)
  40314e:	461c      	mov	r4, r3
  403150:	4613      	mov	r3, r2
  403152:	cb0f      	ldmia	r3, {r0, r1, r2, r3}
  403154:	e884 000f 	stmia.w	r4, {r0, r1, r2, r3}
				write_wifi_command(&sendString,5);
  403158:	f107 0310 	add.w	r3, r7, #16
  40315c:	2105      	movs	r1, #5
  40315e:	4618      	mov	r0, r3
  403160:	4b62      	ldr	r3, [pc, #392]	; (4032ec <main+0x2cc>)
  403162:	4798      	blx	r3
				if(receivedMessage!=COMMAND_FAILED){
  403164:	4b64      	ldr	r3, [pc, #400]	; (4032f8 <main+0x2d8>)
  403166:	681b      	ldr	r3, [r3, #0]
  403168:	2b05      	cmp	r3, #5
  40316a:	d004      	beq.n	403176 <main+0x156>
					start_capture();
  40316c:	4b63      	ldr	r3, [pc, #396]	; (4032fc <main+0x2dc>)
  40316e:	4798      	blx	r3
					write_image_to_file();
  403170:	4b63      	ldr	r3, [pc, #396]	; (403300 <main+0x2e0>)
  403172:	4798      	blx	r3
  403174:	e7c2      	b.n	4030fc <main+0xdc>
				}
				else{
					delay_ms(1000);
  403176:	4b54      	ldr	r3, [pc, #336]	; (4032c8 <main+0x2a8>)
  403178:	4798      	blx	r3
  40317a:	4603      	mov	r3, r0
  40317c:	4619      	mov	r1, r3
  40317e:	f04f 0200 	mov.w	r2, #0
  403182:	460b      	mov	r3, r1
  403184:	4614      	mov	r4, r2
  403186:	ea4f 1944 	mov.w	r9, r4, lsl #5
  40318a:	ea49 69d3 	orr.w	r9, r9, r3, lsr #27
  40318e:	ea4f 1843 	mov.w	r8, r3, lsl #5
  403192:	4643      	mov	r3, r8
  403194:	464c      	mov	r4, r9
  403196:	1a5b      	subs	r3, r3, r1
  403198:	eb64 0402 	sbc.w	r4, r4, r2
  40319c:	ea4f 0b84 	mov.w	fp, r4, lsl #2
  4031a0:	ea4b 7b93 	orr.w	fp, fp, r3, lsr #30
  4031a4:	ea4f 0a83 	mov.w	sl, r3, lsl #2
  4031a8:	4653      	mov	r3, sl
  4031aa:	465c      	mov	r4, fp
  4031ac:	185b      	adds	r3, r3, r1
  4031ae:	eb44 0402 	adc.w	r4, r4, r2
  4031b2:	00e2      	lsls	r2, r4, #3
  4031b4:	60fa      	str	r2, [r7, #12]
  4031b6:	68fa      	ldr	r2, [r7, #12]
  4031b8:	ea42 7253 	orr.w	r2, r2, r3, lsr #29
  4031bc:	60fa      	str	r2, [r7, #12]
  4031be:	00db      	lsls	r3, r3, #3
  4031c0:	60bb      	str	r3, [r7, #8]
  4031c2:	e9d7 3402 	ldrd	r3, r4, [r7, #8]
  4031c6:	4619      	mov	r1, r3
  4031c8:	4622      	mov	r2, r4
  4031ca:	f243 63af 	movw	r3, #13999	; 0x36af
  4031ce:	f04f 0400 	mov.w	r4, #0
  4031d2:	18cd      	adds	r5, r1, r3
  4031d4:	eb42 0604 	adc.w	r6, r2, r4
  4031d8:	4628      	mov	r0, r5
  4031da:	4631      	mov	r1, r6
  4031dc:	4c3b      	ldr	r4, [pc, #236]	; (4032cc <main+0x2ac>)
  4031de:	f243 62b0 	movw	r2, #14000	; 0x36b0
  4031e2:	f04f 0300 	mov.w	r3, #0
  4031e6:	47a0      	blx	r4
  4031e8:	4603      	mov	r3, r0
  4031ea:	460c      	mov	r4, r1
  4031ec:	4618      	mov	r0, r3
  4031ee:	4b38      	ldr	r3, [pc, #224]	; (4032d0 <main+0x2b0>)
  4031f0:	4798      	blx	r3
  4031f2:	e783      	b.n	4030fc <main+0xdc>
				}
			}
			else{
				ioport_set_pin_level(PIN_WIFI_RESET,LOW); //reset WIFI
  4031f4:	2100      	movs	r1, #0
  4031f6:	2021      	movs	r0, #33	; 0x21
  4031f8:	4b32      	ldr	r3, [pc, #200]	; (4032c4 <main+0x2a4>)
  4031fa:	4798      	blx	r3
				delay_ms(50);
  4031fc:	4b32      	ldr	r3, [pc, #200]	; (4032c8 <main+0x2a8>)
  4031fe:	4798      	blx	r3
  403200:	4603      	mov	r3, r0
  403202:	4619      	mov	r1, r3
  403204:	f04f 0200 	mov.w	r2, #0
  403208:	460b      	mov	r3, r1
  40320a:	4614      	mov	r4, r2
  40320c:	18db      	adds	r3, r3, r3
  40320e:	eb44 0404 	adc.w	r4, r4, r4
  403212:	185b      	adds	r3, r3, r1
  403214:	eb44 0402 	adc.w	r4, r4, r2
  403218:	00e0      	lsls	r0, r4, #3
  40321a:	6078      	str	r0, [r7, #4]
  40321c:	6878      	ldr	r0, [r7, #4]
  40321e:	ea40 7053 	orr.w	r0, r0, r3, lsr #29
  403222:	6078      	str	r0, [r7, #4]
  403224:	00db      	lsls	r3, r3, #3
  403226:	603b      	str	r3, [r7, #0]
  403228:	e9d7 3400 	ldrd	r3, r4, [r7]
  40322c:	185b      	adds	r3, r3, r1
  40322e:	eb44 0402 	adc.w	r4, r4, r2
  403232:	18db      	adds	r3, r3, r3
  403234:	eb44 0404 	adc.w	r4, r4, r4
  403238:	4619      	mov	r1, r3
  40323a:	4622      	mov	r2, r4
  40323c:	f243 63af 	movw	r3, #13999	; 0x36af
  403240:	f04f 0400 	mov.w	r4, #0
  403244:	18cd      	adds	r5, r1, r3
  403246:	eb42 0604 	adc.w	r6, r2, r4
  40324a:	4628      	mov	r0, r5
  40324c:	4631      	mov	r1, r6
  40324e:	4c1f      	ldr	r4, [pc, #124]	; (4032cc <main+0x2ac>)
  403250:	f243 62b0 	movw	r2, #14000	; 0x36b0
  403254:	f04f 0300 	mov.w	r3, #0
  403258:	47a0      	blx	r4
  40325a:	4603      	mov	r3, r0
  40325c:	460c      	mov	r4, r1
  40325e:	4618      	mov	r0, r3
  403260:	4b1b      	ldr	r3, [pc, #108]	; (4032d0 <main+0x2b0>)
  403262:	4798      	blx	r3
				ioport_set_pin_level(PIN_WIFI_RESET,HIGH); //turn Wifi Back on
  403264:	2101      	movs	r1, #1
  403266:	2021      	movs	r0, #33	; 0x21
  403268:	4b16      	ldr	r3, [pc, #88]	; (4032c4 <main+0x2a4>)
  40326a:	4798      	blx	r3

				while(ioport_get_pin_level(PIN_WIFI_NETWORK_STATUS)==LOW){
  40326c:	e00b      	b.n	403286 <main+0x266>
					if(wifi_setup_flag == true){
  40326e:	4b1d      	ldr	r3, [pc, #116]	; (4032e4 <main+0x2c4>)
  403270:	781b      	ldrb	r3, [r3, #0]
  403272:	b2db      	uxtb	r3, r3
  403274:	2b00      	cmp	r3, #0
  403276:	d006      	beq.n	403286 <main+0x266>
						
						write_wifi_command("setup web\r\n", 5);
  403278:	2105      	movs	r1, #5
  40327a:	481b      	ldr	r0, [pc, #108]	; (4032e8 <main+0x2c8>)
  40327c:	4b1b      	ldr	r3, [pc, #108]	; (4032ec <main+0x2cc>)
  40327e:	4798      	blx	r3
						//ioport_set_pin_level(PUSH_BUTTON,LOW);
						wifi_setup_flag = false;
  403280:	4b18      	ldr	r3, [pc, #96]	; (4032e4 <main+0x2c4>)
  403282:	2200      	movs	r2, #0
  403284:	701a      	strb	r2, [r3, #0]
				while(ioport_get_pin_level(PIN_WIFI_NETWORK_STATUS)==LOW){
  403286:	200b      	movs	r0, #11
  403288:	4b19      	ldr	r3, [pc, #100]	; (4032f0 <main+0x2d0>)
  40328a:	4798      	blx	r3
  40328c:	4603      	mov	r3, r0
  40328e:	f083 0301 	eor.w	r3, r3, #1
  403292:	b2db      	uxtb	r3, r3
  403294:	2b00      	cmp	r3, #0
  403296:	d1ea      	bne.n	40326e <main+0x24e>
		if(wifi_setup_flag == true){
  403298:	e730      	b.n	4030fc <main+0xdc>
  40329a:	bf00      	nop
  40329c:	004020e1 	.word	0x004020e1
  4032a0:	400e1450 	.word	0x400e1450
  4032a4:	004002a1 	.word	0x004002a1
  4032a8:	00402b31 	.word	0x00402b31
  4032ac:	00400ecd 	.word	0x00400ecd
  4032b0:	40010000 	.word	0x40010000
  4032b4:	00400171 	.word	0x00400171
  4032b8:	004011b5 	.word	0x004011b5
  4032bc:	00401271 	.word	0x00401271
  4032c0:	004012d1 	.word	0x004012d1
  4032c4:	00402f69 	.word	0x00402f69
  4032c8:	00402f55 	.word	0x00402f55
  4032cc:	00403305 	.word	0x00403305
  4032d0:	20000001 	.word	0x20000001
  4032d4:	0040298d 	.word	0x0040298d
  4032d8:	0040290d 	.word	0x0040290d
  4032dc:	00402889 	.word	0x00402889
  4032e0:	00400615 	.word	0x00400615
  4032e4:	200009ed 	.word	0x200009ed
  4032e8:	00408ea0 	.word	0x00408ea0
  4032ec:	00401329 	.word	0x00401329
  4032f0:	00402fd3 	.word	0x00402fd3
  4032f4:	00408eac 	.word	0x00408eac
  4032f8:	200009f0 	.word	0x200009f0
  4032fc:	004007f5 	.word	0x004007f5
  403300:	00401379 	.word	0x00401379

00403304 <__aeabi_uldivmod>:
  403304:	b953      	cbnz	r3, 40331c <__aeabi_uldivmod+0x18>
  403306:	b94a      	cbnz	r2, 40331c <__aeabi_uldivmod+0x18>
  403308:	2900      	cmp	r1, #0
  40330a:	bf08      	it	eq
  40330c:	2800      	cmpeq	r0, #0
  40330e:	bf1c      	itt	ne
  403310:	f04f 31ff 	movne.w	r1, #4294967295
  403314:	f04f 30ff 	movne.w	r0, #4294967295
  403318:	f000 b97a 	b.w	403610 <__aeabi_idiv0>
  40331c:	f1ad 0c08 	sub.w	ip, sp, #8
  403320:	e96d ce04 	strd	ip, lr, [sp, #-16]!
  403324:	f000 f806 	bl	403334 <__udivmoddi4>
  403328:	f8dd e004 	ldr.w	lr, [sp, #4]
  40332c:	e9dd 2302 	ldrd	r2, r3, [sp, #8]
  403330:	b004      	add	sp, #16
  403332:	4770      	bx	lr

00403334 <__udivmoddi4>:
  403334:	e92d 47f0 	stmdb	sp!, {r4, r5, r6, r7, r8, r9, sl, lr}
  403338:	468c      	mov	ip, r1
  40333a:	460d      	mov	r5, r1
  40333c:	4604      	mov	r4, r0
  40333e:	9e08      	ldr	r6, [sp, #32]
  403340:	2b00      	cmp	r3, #0
  403342:	d151      	bne.n	4033e8 <__udivmoddi4+0xb4>
  403344:	428a      	cmp	r2, r1
  403346:	4617      	mov	r7, r2
  403348:	d96d      	bls.n	403426 <__udivmoddi4+0xf2>
  40334a:	fab2 fe82 	clz	lr, r2
  40334e:	f1be 0f00 	cmp.w	lr, #0
  403352:	d00b      	beq.n	40336c <__udivmoddi4+0x38>
  403354:	f1ce 0c20 	rsb	ip, lr, #32
  403358:	fa01 f50e 	lsl.w	r5, r1, lr
  40335c:	fa20 fc0c 	lsr.w	ip, r0, ip
  403360:	fa02 f70e 	lsl.w	r7, r2, lr
  403364:	ea4c 0c05 	orr.w	ip, ip, r5
  403368:	fa00 f40e 	lsl.w	r4, r0, lr
  40336c:	ea4f 4a17 	mov.w	sl, r7, lsr #16
  403370:	0c25      	lsrs	r5, r4, #16
  403372:	fbbc f8fa 	udiv	r8, ip, sl
  403376:	fa1f f987 	uxth.w	r9, r7
  40337a:	fb0a cc18 	mls	ip, sl, r8, ip
  40337e:	ea45 450c 	orr.w	r5, r5, ip, lsl #16
  403382:	fb08 f309 	mul.w	r3, r8, r9
  403386:	42ab      	cmp	r3, r5
  403388:	d90a      	bls.n	4033a0 <__udivmoddi4+0x6c>
  40338a:	19ed      	adds	r5, r5, r7
  40338c:	f108 32ff 	add.w	r2, r8, #4294967295
  403390:	f080 8123 	bcs.w	4035da <__udivmoddi4+0x2a6>
  403394:	42ab      	cmp	r3, r5
  403396:	f240 8120 	bls.w	4035da <__udivmoddi4+0x2a6>
  40339a:	f1a8 0802 	sub.w	r8, r8, #2
  40339e:	443d      	add	r5, r7
  4033a0:	1aed      	subs	r5, r5, r3
  4033a2:	b2a4      	uxth	r4, r4
  4033a4:	fbb5 f0fa 	udiv	r0, r5, sl
  4033a8:	fb0a 5510 	mls	r5, sl, r0, r5
  4033ac:	ea44 4405 	orr.w	r4, r4, r5, lsl #16
  4033b0:	fb00 f909 	mul.w	r9, r0, r9
  4033b4:	45a1      	cmp	r9, r4
  4033b6:	d909      	bls.n	4033cc <__udivmoddi4+0x98>
  4033b8:	19e4      	adds	r4, r4, r7
  4033ba:	f100 33ff 	add.w	r3, r0, #4294967295
  4033be:	f080 810a 	bcs.w	4035d6 <__udivmoddi4+0x2a2>
  4033c2:	45a1      	cmp	r9, r4
  4033c4:	f240 8107 	bls.w	4035d6 <__udivmoddi4+0x2a2>
  4033c8:	3802      	subs	r0, #2
  4033ca:	443c      	add	r4, r7
  4033cc:	eba4 0409 	sub.w	r4, r4, r9
  4033d0:	ea40 4008 	orr.w	r0, r0, r8, lsl #16
  4033d4:	2100      	movs	r1, #0
  4033d6:	2e00      	cmp	r6, #0
  4033d8:	d061      	beq.n	40349e <__udivmoddi4+0x16a>
  4033da:	fa24 f40e 	lsr.w	r4, r4, lr
  4033de:	2300      	movs	r3, #0
  4033e0:	6034      	str	r4, [r6, #0]
  4033e2:	6073      	str	r3, [r6, #4]
  4033e4:	e8bd 87f0 	ldmia.w	sp!, {r4, r5, r6, r7, r8, r9, sl, pc}
  4033e8:	428b      	cmp	r3, r1
  4033ea:	d907      	bls.n	4033fc <__udivmoddi4+0xc8>
  4033ec:	2e00      	cmp	r6, #0
  4033ee:	d054      	beq.n	40349a <__udivmoddi4+0x166>
  4033f0:	2100      	movs	r1, #0
  4033f2:	e886 0021 	stmia.w	r6, {r0, r5}
  4033f6:	4608      	mov	r0, r1
  4033f8:	e8bd 87f0 	ldmia.w	sp!, {r4, r5, r6, r7, r8, r9, sl, pc}
  4033fc:	fab3 f183 	clz	r1, r3
  403400:	2900      	cmp	r1, #0
  403402:	f040 808e 	bne.w	403522 <__udivmoddi4+0x1ee>
  403406:	42ab      	cmp	r3, r5
  403408:	d302      	bcc.n	403410 <__udivmoddi4+0xdc>
  40340a:	4282      	cmp	r2, r0
  40340c:	f200 80fa 	bhi.w	403604 <__udivmoddi4+0x2d0>
  403410:	1a84      	subs	r4, r0, r2
  403412:	eb65 0503 	sbc.w	r5, r5, r3
  403416:	2001      	movs	r0, #1
  403418:	46ac      	mov	ip, r5
  40341a:	2e00      	cmp	r6, #0
  40341c:	d03f      	beq.n	40349e <__udivmoddi4+0x16a>
  40341e:	e886 1010 	stmia.w	r6, {r4, ip}
  403422:	e8bd 87f0 	ldmia.w	sp!, {r4, r5, r6, r7, r8, r9, sl, pc}
  403426:	b912      	cbnz	r2, 40342e <__udivmoddi4+0xfa>
  403428:	2701      	movs	r7, #1
  40342a:	fbb7 f7f2 	udiv	r7, r7, r2
  40342e:	fab7 fe87 	clz	lr, r7
  403432:	f1be 0f00 	cmp.w	lr, #0
  403436:	d134      	bne.n	4034a2 <__udivmoddi4+0x16e>
  403438:	1beb      	subs	r3, r5, r7
  40343a:	0c3a      	lsrs	r2, r7, #16
  40343c:	fa1f fc87 	uxth.w	ip, r7
  403440:	2101      	movs	r1, #1
  403442:	fbb3 f8f2 	udiv	r8, r3, r2
  403446:	0c25      	lsrs	r5, r4, #16
  403448:	fb02 3318 	mls	r3, r2, r8, r3
  40344c:	ea45 4503 	orr.w	r5, r5, r3, lsl #16
  403450:	fb0c f308 	mul.w	r3, ip, r8
  403454:	42ab      	cmp	r3, r5
  403456:	d907      	bls.n	403468 <__udivmoddi4+0x134>
  403458:	19ed      	adds	r5, r5, r7
  40345a:	f108 30ff 	add.w	r0, r8, #4294967295
  40345e:	d202      	bcs.n	403466 <__udivmoddi4+0x132>
  403460:	42ab      	cmp	r3, r5
  403462:	f200 80d1 	bhi.w	403608 <__udivmoddi4+0x2d4>
  403466:	4680      	mov	r8, r0
  403468:	1aed      	subs	r5, r5, r3
  40346a:	b2a3      	uxth	r3, r4
  40346c:	fbb5 f0f2 	udiv	r0, r5, r2
  403470:	fb02 5510 	mls	r5, r2, r0, r5
  403474:	ea43 4405 	orr.w	r4, r3, r5, lsl #16
  403478:	fb0c fc00 	mul.w	ip, ip, r0
  40347c:	45a4      	cmp	ip, r4
  40347e:	d907      	bls.n	403490 <__udivmoddi4+0x15c>
  403480:	19e4      	adds	r4, r4, r7
  403482:	f100 33ff 	add.w	r3, r0, #4294967295
  403486:	d202      	bcs.n	40348e <__udivmoddi4+0x15a>
  403488:	45a4      	cmp	ip, r4
  40348a:	f200 80b8 	bhi.w	4035fe <__udivmoddi4+0x2ca>
  40348e:	4618      	mov	r0, r3
  403490:	eba4 040c 	sub.w	r4, r4, ip
  403494:	ea40 4008 	orr.w	r0, r0, r8, lsl #16
  403498:	e79d      	b.n	4033d6 <__udivmoddi4+0xa2>
  40349a:	4631      	mov	r1, r6
  40349c:	4630      	mov	r0, r6
  40349e:	e8bd 87f0 	ldmia.w	sp!, {r4, r5, r6, r7, r8, r9, sl, pc}
  4034a2:	f1ce 0420 	rsb	r4, lr, #32
  4034a6:	fa05 f30e 	lsl.w	r3, r5, lr
  4034aa:	fa07 f70e 	lsl.w	r7, r7, lr
  4034ae:	fa20 f804 	lsr.w	r8, r0, r4
  4034b2:	0c3a      	lsrs	r2, r7, #16
  4034b4:	fa25 f404 	lsr.w	r4, r5, r4
  4034b8:	ea48 0803 	orr.w	r8, r8, r3
  4034bc:	fbb4 f1f2 	udiv	r1, r4, r2
  4034c0:	ea4f 4518 	mov.w	r5, r8, lsr #16
  4034c4:	fb02 4411 	mls	r4, r2, r1, r4
  4034c8:	fa1f fc87 	uxth.w	ip, r7
  4034cc:	ea45 4504 	orr.w	r5, r5, r4, lsl #16
  4034d0:	fb01 f30c 	mul.w	r3, r1, ip
  4034d4:	42ab      	cmp	r3, r5
  4034d6:	fa00 f40e 	lsl.w	r4, r0, lr
  4034da:	d909      	bls.n	4034f0 <__udivmoddi4+0x1bc>
  4034dc:	19ed      	adds	r5, r5, r7
  4034de:	f101 30ff 	add.w	r0, r1, #4294967295
  4034e2:	f080 808a 	bcs.w	4035fa <__udivmoddi4+0x2c6>
  4034e6:	42ab      	cmp	r3, r5
  4034e8:	f240 8087 	bls.w	4035fa <__udivmoddi4+0x2c6>
  4034ec:	3902      	subs	r1, #2
  4034ee:	443d      	add	r5, r7
  4034f0:	1aeb      	subs	r3, r5, r3
  4034f2:	fa1f f588 	uxth.w	r5, r8
  4034f6:	fbb3 f0f2 	udiv	r0, r3, r2
  4034fa:	fb02 3310 	mls	r3, r2, r0, r3
  4034fe:	ea45 4503 	orr.w	r5, r5, r3, lsl #16
  403502:	fb00 f30c 	mul.w	r3, r0, ip
  403506:	42ab      	cmp	r3, r5
  403508:	d907      	bls.n	40351a <__udivmoddi4+0x1e6>
  40350a:	19ed      	adds	r5, r5, r7
  40350c:	f100 38ff 	add.w	r8, r0, #4294967295
  403510:	d26f      	bcs.n	4035f2 <__udivmoddi4+0x2be>
  403512:	42ab      	cmp	r3, r5
  403514:	d96d      	bls.n	4035f2 <__udivmoddi4+0x2be>
  403516:	3802      	subs	r0, #2
  403518:	443d      	add	r5, r7
  40351a:	1aeb      	subs	r3, r5, r3
  40351c:	ea40 4101 	orr.w	r1, r0, r1, lsl #16
  403520:	e78f      	b.n	403442 <__udivmoddi4+0x10e>
  403522:	f1c1 0720 	rsb	r7, r1, #32
  403526:	fa22 f807 	lsr.w	r8, r2, r7
  40352a:	408b      	lsls	r3, r1
  40352c:	fa05 f401 	lsl.w	r4, r5, r1
  403530:	ea48 0303 	orr.w	r3, r8, r3
  403534:	fa20 fe07 	lsr.w	lr, r0, r7
  403538:	ea4f 4c13 	mov.w	ip, r3, lsr #16
  40353c:	40fd      	lsrs	r5, r7
  40353e:	ea4e 0e04 	orr.w	lr, lr, r4
  403542:	fbb5 f9fc 	udiv	r9, r5, ip
  403546:	ea4f 441e 	mov.w	r4, lr, lsr #16
  40354a:	fb0c 5519 	mls	r5, ip, r9, r5
  40354e:	fa1f f883 	uxth.w	r8, r3
  403552:	ea44 4505 	orr.w	r5, r4, r5, lsl #16
  403556:	fb09 f408 	mul.w	r4, r9, r8
  40355a:	42ac      	cmp	r4, r5
  40355c:	fa02 f201 	lsl.w	r2, r2, r1
  403560:	fa00 fa01 	lsl.w	sl, r0, r1
  403564:	d908      	bls.n	403578 <__udivmoddi4+0x244>
  403566:	18ed      	adds	r5, r5, r3
  403568:	f109 30ff 	add.w	r0, r9, #4294967295
  40356c:	d243      	bcs.n	4035f6 <__udivmoddi4+0x2c2>
  40356e:	42ac      	cmp	r4, r5
  403570:	d941      	bls.n	4035f6 <__udivmoddi4+0x2c2>
  403572:	f1a9 0902 	sub.w	r9, r9, #2
  403576:	441d      	add	r5, r3
  403578:	1b2d      	subs	r5, r5, r4
  40357a:	fa1f fe8e 	uxth.w	lr, lr
  40357e:	fbb5 f0fc 	udiv	r0, r5, ip
  403582:	fb0c 5510 	mls	r5, ip, r0, r5
  403586:	ea4e 4405 	orr.w	r4, lr, r5, lsl #16
  40358a:	fb00 f808 	mul.w	r8, r0, r8
  40358e:	45a0      	cmp	r8, r4
  403590:	d907      	bls.n	4035a2 <__udivmoddi4+0x26e>
  403592:	18e4      	adds	r4, r4, r3
  403594:	f100 35ff 	add.w	r5, r0, #4294967295
  403598:	d229      	bcs.n	4035ee <__udivmoddi4+0x2ba>
  40359a:	45a0      	cmp	r8, r4
  40359c:	d927      	bls.n	4035ee <__udivmoddi4+0x2ba>
  40359e:	3802      	subs	r0, #2
  4035a0:	441c      	add	r4, r3
  4035a2:	ea40 4009 	orr.w	r0, r0, r9, lsl #16
  4035a6:	eba4 0408 	sub.w	r4, r4, r8
  4035aa:	fba0 8902 	umull	r8, r9, r0, r2
  4035ae:	454c      	cmp	r4, r9
  4035b0:	46c6      	mov	lr, r8
  4035b2:	464d      	mov	r5, r9
  4035b4:	d315      	bcc.n	4035e2 <__udivmoddi4+0x2ae>
  4035b6:	d012      	beq.n	4035de <__udivmoddi4+0x2aa>
  4035b8:	b156      	cbz	r6, 4035d0 <__udivmoddi4+0x29c>
  4035ba:	ebba 030e 	subs.w	r3, sl, lr
  4035be:	eb64 0405 	sbc.w	r4, r4, r5
  4035c2:	fa04 f707 	lsl.w	r7, r4, r7
  4035c6:	40cb      	lsrs	r3, r1
  4035c8:	431f      	orrs	r7, r3
  4035ca:	40cc      	lsrs	r4, r1
  4035cc:	6037      	str	r7, [r6, #0]
  4035ce:	6074      	str	r4, [r6, #4]
  4035d0:	2100      	movs	r1, #0
  4035d2:	e8bd 87f0 	ldmia.w	sp!, {r4, r5, r6, r7, r8, r9, sl, pc}
  4035d6:	4618      	mov	r0, r3
  4035d8:	e6f8      	b.n	4033cc <__udivmoddi4+0x98>
  4035da:	4690      	mov	r8, r2
  4035dc:	e6e0      	b.n	4033a0 <__udivmoddi4+0x6c>
  4035de:	45c2      	cmp	sl, r8
  4035e0:	d2ea      	bcs.n	4035b8 <__udivmoddi4+0x284>
  4035e2:	ebb8 0e02 	subs.w	lr, r8, r2
  4035e6:	eb69 0503 	sbc.w	r5, r9, r3
  4035ea:	3801      	subs	r0, #1
  4035ec:	e7e4      	b.n	4035b8 <__udivmoddi4+0x284>
  4035ee:	4628      	mov	r0, r5
  4035f0:	e7d7      	b.n	4035a2 <__udivmoddi4+0x26e>
  4035f2:	4640      	mov	r0, r8
  4035f4:	e791      	b.n	40351a <__udivmoddi4+0x1e6>
  4035f6:	4681      	mov	r9, r0
  4035f8:	e7be      	b.n	403578 <__udivmoddi4+0x244>
  4035fa:	4601      	mov	r1, r0
  4035fc:	e778      	b.n	4034f0 <__udivmoddi4+0x1bc>
  4035fe:	3802      	subs	r0, #2
  403600:	443c      	add	r4, r7
  403602:	e745      	b.n	403490 <__udivmoddi4+0x15c>
  403604:	4608      	mov	r0, r1
  403606:	e708      	b.n	40341a <__udivmoddi4+0xe6>
  403608:	f1a8 0802 	sub.w	r8, r8, #2
  40360c:	443d      	add	r5, r7
  40360e:	e72b      	b.n	403468 <__udivmoddi4+0x134>

00403610 <__aeabi_idiv0>:
  403610:	4770      	bx	lr
  403612:	bf00      	nop

00403614 <__libc_init_array>:
  403614:	b570      	push	{r4, r5, r6, lr}
  403616:	4e0f      	ldr	r6, [pc, #60]	; (403654 <__libc_init_array+0x40>)
  403618:	4d0f      	ldr	r5, [pc, #60]	; (403658 <__libc_init_array+0x44>)
  40361a:	1b76      	subs	r6, r6, r5
  40361c:	10b6      	asrs	r6, r6, #2
  40361e:	bf18      	it	ne
  403620:	2400      	movne	r4, #0
  403622:	d005      	beq.n	403630 <__libc_init_array+0x1c>
  403624:	3401      	adds	r4, #1
  403626:	f855 3b04 	ldr.w	r3, [r5], #4
  40362a:	4798      	blx	r3
  40362c:	42a6      	cmp	r6, r4
  40362e:	d1f9      	bne.n	403624 <__libc_init_array+0x10>
  403630:	4e0a      	ldr	r6, [pc, #40]	; (40365c <__libc_init_array+0x48>)
  403632:	4d0b      	ldr	r5, [pc, #44]	; (403660 <__libc_init_array+0x4c>)
  403634:	1b76      	subs	r6, r6, r5
  403636:	f005 fd87 	bl	409148 <_init>
  40363a:	10b6      	asrs	r6, r6, #2
  40363c:	bf18      	it	ne
  40363e:	2400      	movne	r4, #0
  403640:	d006      	beq.n	403650 <__libc_init_array+0x3c>
  403642:	3401      	adds	r4, #1
  403644:	f855 3b04 	ldr.w	r3, [r5], #4
  403648:	4798      	blx	r3
  40364a:	42a6      	cmp	r6, r4
  40364c:	d1f9      	bne.n	403642 <__libc_init_array+0x2e>
  40364e:	bd70      	pop	{r4, r5, r6, pc}
  403650:	bd70      	pop	{r4, r5, r6, pc}
  403652:	bf00      	nop
  403654:	00409154 	.word	0x00409154
  403658:	00409154 	.word	0x00409154
  40365c:	0040915c 	.word	0x0040915c
  403660:	00409154 	.word	0x00409154

00403664 <memset>:
  403664:	b470      	push	{r4, r5, r6}
  403666:	0786      	lsls	r6, r0, #30
  403668:	d046      	beq.n	4036f8 <memset+0x94>
  40366a:	1e54      	subs	r4, r2, #1
  40366c:	2a00      	cmp	r2, #0
  40366e:	d041      	beq.n	4036f4 <memset+0x90>
  403670:	b2ca      	uxtb	r2, r1
  403672:	4603      	mov	r3, r0
  403674:	e002      	b.n	40367c <memset+0x18>
  403676:	f114 34ff 	adds.w	r4, r4, #4294967295
  40367a:	d33b      	bcc.n	4036f4 <memset+0x90>
  40367c:	f803 2b01 	strb.w	r2, [r3], #1
  403680:	079d      	lsls	r5, r3, #30
  403682:	d1f8      	bne.n	403676 <memset+0x12>
  403684:	2c03      	cmp	r4, #3
  403686:	d92e      	bls.n	4036e6 <memset+0x82>
  403688:	b2cd      	uxtb	r5, r1
  40368a:	ea45 2505 	orr.w	r5, r5, r5, lsl #8
  40368e:	2c0f      	cmp	r4, #15
  403690:	ea45 4505 	orr.w	r5, r5, r5, lsl #16
  403694:	d919      	bls.n	4036ca <memset+0x66>
  403696:	f103 0210 	add.w	r2, r3, #16
  40369a:	4626      	mov	r6, r4
  40369c:	3e10      	subs	r6, #16
  40369e:	2e0f      	cmp	r6, #15
  4036a0:	f842 5c10 	str.w	r5, [r2, #-16]
  4036a4:	f842 5c0c 	str.w	r5, [r2, #-12]
  4036a8:	f842 5c08 	str.w	r5, [r2, #-8]
  4036ac:	f842 5c04 	str.w	r5, [r2, #-4]
  4036b0:	f102 0210 	add.w	r2, r2, #16
  4036b4:	d8f2      	bhi.n	40369c <memset+0x38>
  4036b6:	f1a4 0210 	sub.w	r2, r4, #16
  4036ba:	f022 020f 	bic.w	r2, r2, #15
  4036be:	f004 040f 	and.w	r4, r4, #15
  4036c2:	3210      	adds	r2, #16
  4036c4:	2c03      	cmp	r4, #3
  4036c6:	4413      	add	r3, r2
  4036c8:	d90d      	bls.n	4036e6 <memset+0x82>
  4036ca:	461e      	mov	r6, r3
  4036cc:	4622      	mov	r2, r4
  4036ce:	3a04      	subs	r2, #4
  4036d0:	2a03      	cmp	r2, #3
  4036d2:	f846 5b04 	str.w	r5, [r6], #4
  4036d6:	d8fa      	bhi.n	4036ce <memset+0x6a>
  4036d8:	1f22      	subs	r2, r4, #4
  4036da:	f022 0203 	bic.w	r2, r2, #3
  4036de:	3204      	adds	r2, #4
  4036e0:	4413      	add	r3, r2
  4036e2:	f004 0403 	and.w	r4, r4, #3
  4036e6:	b12c      	cbz	r4, 4036f4 <memset+0x90>
  4036e8:	b2c9      	uxtb	r1, r1
  4036ea:	441c      	add	r4, r3
  4036ec:	f803 1b01 	strb.w	r1, [r3], #1
  4036f0:	429c      	cmp	r4, r3
  4036f2:	d1fb      	bne.n	4036ec <memset+0x88>
  4036f4:	bc70      	pop	{r4, r5, r6}
  4036f6:	4770      	bx	lr
  4036f8:	4614      	mov	r4, r2
  4036fa:	4603      	mov	r3, r0
  4036fc:	e7c2      	b.n	403684 <memset+0x20>
  4036fe:	bf00      	nop

00403700 <sprintf>:
  403700:	b40e      	push	{r1, r2, r3}
  403702:	b5f0      	push	{r4, r5, r6, r7, lr}
  403704:	b09c      	sub	sp, #112	; 0x70
  403706:	ab21      	add	r3, sp, #132	; 0x84
  403708:	490f      	ldr	r1, [pc, #60]	; (403748 <sprintf+0x48>)
  40370a:	f853 2b04 	ldr.w	r2, [r3], #4
  40370e:	9301      	str	r3, [sp, #4]
  403710:	4605      	mov	r5, r0
  403712:	f06f 4400 	mvn.w	r4, #2147483648	; 0x80000000
  403716:	6808      	ldr	r0, [r1, #0]
  403718:	9502      	str	r5, [sp, #8]
  40371a:	f44f 7702 	mov.w	r7, #520	; 0x208
  40371e:	f64f 76ff 	movw	r6, #65535	; 0xffff
  403722:	a902      	add	r1, sp, #8
  403724:	9506      	str	r5, [sp, #24]
  403726:	f8ad 7014 	strh.w	r7, [sp, #20]
  40372a:	9404      	str	r4, [sp, #16]
  40372c:	9407      	str	r4, [sp, #28]
  40372e:	f8ad 6016 	strh.w	r6, [sp, #22]
  403732:	f000 fa6f 	bl	403c14 <_svfprintf_r>
  403736:	9b02      	ldr	r3, [sp, #8]
  403738:	2200      	movs	r2, #0
  40373a:	701a      	strb	r2, [r3, #0]
  40373c:	b01c      	add	sp, #112	; 0x70
  40373e:	e8bd 40f0 	ldmia.w	sp!, {r4, r5, r6, r7, lr}
  403742:	b003      	add	sp, #12
  403744:	4770      	bx	lr
  403746:	bf00      	nop
  403748:	20000010 	.word	0x20000010

0040374c <critical_factorization>:
  40374c:	e92d 41f0 	stmdb	sp!, {r4, r5, r6, r7, r8, lr}
  403750:	f04f 0e01 	mov.w	lr, #1
  403754:	4674      	mov	r4, lr
  403756:	2500      	movs	r5, #0
  403758:	f04f 36ff 	mov.w	r6, #4294967295
  40375c:	192b      	adds	r3, r5, r4
  40375e:	428b      	cmp	r3, r1
  403760:	eb00 0706 	add.w	r7, r0, r6
  403764:	d20d      	bcs.n	403782 <critical_factorization+0x36>
  403766:	5d3f      	ldrb	r7, [r7, r4]
  403768:	f810 c003 	ldrb.w	ip, [r0, r3]
  40376c:	45bc      	cmp	ip, r7
  40376e:	d22d      	bcs.n	4037cc <critical_factorization+0x80>
  403770:	461d      	mov	r5, r3
  403772:	2401      	movs	r4, #1
  403774:	eba3 0e06 	sub.w	lr, r3, r6
  403778:	192b      	adds	r3, r5, r4
  40377a:	428b      	cmp	r3, r1
  40377c:	eb00 0706 	add.w	r7, r0, r6
  403780:	d3f1      	bcc.n	403766 <critical_factorization+0x1a>
  403782:	f04f 0801 	mov.w	r8, #1
  403786:	f8c2 e000 	str.w	lr, [r2]
  40378a:	4644      	mov	r4, r8
  40378c:	2500      	movs	r5, #0
  40378e:	f04f 37ff 	mov.w	r7, #4294967295
  403792:	192b      	adds	r3, r5, r4
  403794:	4299      	cmp	r1, r3
  403796:	eb00 0e07 	add.w	lr, r0, r7
  40379a:	d90e      	bls.n	4037ba <critical_factorization+0x6e>
  40379c:	f81e e004 	ldrb.w	lr, [lr, r4]
  4037a0:	f810 c003 	ldrb.w	ip, [r0, r3]
  4037a4:	45f4      	cmp	ip, lr
  4037a6:	d918      	bls.n	4037da <critical_factorization+0x8e>
  4037a8:	461d      	mov	r5, r3
  4037aa:	2401      	movs	r4, #1
  4037ac:	eba3 0807 	sub.w	r8, r3, r7
  4037b0:	192b      	adds	r3, r5, r4
  4037b2:	4299      	cmp	r1, r3
  4037b4:	eb00 0e07 	add.w	lr, r0, r7
  4037b8:	d8f0      	bhi.n	40379c <critical_factorization+0x50>
  4037ba:	3701      	adds	r7, #1
  4037bc:	1c70      	adds	r0, r6, #1
  4037be:	4287      	cmp	r7, r0
  4037c0:	bf24      	itt	cs
  4037c2:	f8c2 8000 	strcs.w	r8, [r2]
  4037c6:	4638      	movcs	r0, r7
  4037c8:	e8bd 81f0 	ldmia.w	sp!, {r4, r5, r6, r7, r8, pc}
  4037cc:	d00c      	beq.n	4037e8 <critical_factorization+0x9c>
  4037ce:	f04f 0e01 	mov.w	lr, #1
  4037d2:	462e      	mov	r6, r5
  4037d4:	4674      	mov	r4, lr
  4037d6:	4475      	add	r5, lr
  4037d8:	e7c0      	b.n	40375c <critical_factorization+0x10>
  4037da:	d00b      	beq.n	4037f4 <critical_factorization+0xa8>
  4037dc:	f04f 0801 	mov.w	r8, #1
  4037e0:	462f      	mov	r7, r5
  4037e2:	4644      	mov	r4, r8
  4037e4:	4445      	add	r5, r8
  4037e6:	e7d4      	b.n	403792 <critical_factorization+0x46>
  4037e8:	4574      	cmp	r4, lr
  4037ea:	bf12      	itee	ne
  4037ec:	3401      	addne	r4, #1
  4037ee:	461d      	moveq	r5, r3
  4037f0:	2401      	moveq	r4, #1
  4037f2:	e7b3      	b.n	40375c <critical_factorization+0x10>
  4037f4:	4544      	cmp	r4, r8
  4037f6:	bf12      	itee	ne
  4037f8:	3401      	addne	r4, #1
  4037fa:	461d      	moveq	r5, r3
  4037fc:	2401      	moveq	r4, #1
  4037fe:	e7c8      	b.n	403792 <critical_factorization+0x46>

00403800 <two_way_long_needle>:
  403800:	e92d 4ff0 	stmdb	sp!, {r4, r5, r6, r7, r8, r9, sl, fp, lr}
  403804:	f2ad 4d14 	subw	sp, sp, #1044	; 0x414
  403808:	4616      	mov	r6, r2
  40380a:	4605      	mov	r5, r0
  40380c:	468b      	mov	fp, r1
  40380e:	4610      	mov	r0, r2
  403810:	4619      	mov	r1, r3
  403812:	aa03      	add	r2, sp, #12
  403814:	461c      	mov	r4, r3
  403816:	f7ff ff99 	bl	40374c <critical_factorization>
  40381a:	ab03      	add	r3, sp, #12
  40381c:	4681      	mov	r9, r0
  40381e:	f20d 420c 	addw	r2, sp, #1036	; 0x40c
  403822:	f843 4f04 	str.w	r4, [r3, #4]!
  403826:	4293      	cmp	r3, r2
  403828:	d1fb      	bne.n	403822 <two_way_long_needle+0x22>
  40382a:	b14c      	cbz	r4, 403840 <two_way_long_needle+0x40>
  40382c:	1e63      	subs	r3, r4, #1
  40382e:	1e72      	subs	r2, r6, #1
  403830:	a804      	add	r0, sp, #16
  403832:	f812 1f01 	ldrb.w	r1, [r2, #1]!
  403836:	f840 3021 	str.w	r3, [r0, r1, lsl #2]
  40383a:	f113 33ff 	adds.w	r3, r3, #4294967295
  40383e:	d2f8      	bcs.n	403832 <two_way_long_needle+0x32>
  403840:	9903      	ldr	r1, [sp, #12]
  403842:	464a      	mov	r2, r9
  403844:	4431      	add	r1, r6
  403846:	4630      	mov	r0, r6
  403848:	f002 ff12 	bl	406670 <memcmp>
  40384c:	2800      	cmp	r0, #0
  40384e:	d16f      	bne.n	403930 <two_way_long_needle+0x130>
  403850:	f109 33ff 	add.w	r3, r9, #4294967295
  403854:	9300      	str	r3, [sp, #0]
  403856:	18f3      	adds	r3, r6, r3
  403858:	4682      	mov	sl, r0
  40385a:	9301      	str	r3, [sp, #4]
  40385c:	4623      	mov	r3, r4
  40385e:	4680      	mov	r8, r0
  403860:	4654      	mov	r4, sl
  403862:	4658      	mov	r0, fp
  403864:	469a      	mov	sl, r3
  403866:	eb08 070a 	add.w	r7, r8, sl
  40386a:	1a3a      	subs	r2, r7, r0
  40386c:	2100      	movs	r1, #0
  40386e:	4428      	add	r0, r5
  403870:	f002 feae 	bl	4065d0 <memchr>
  403874:	2800      	cmp	r0, #0
  403876:	d156      	bne.n	403926 <two_way_long_needle+0x126>
  403878:	2f00      	cmp	r7, #0
  40387a:	d054      	beq.n	403926 <two_way_long_needle+0x126>
  40387c:	19eb      	adds	r3, r5, r7
  40387e:	aa04      	add	r2, sp, #16
  403880:	f813 3c01 	ldrb.w	r3, [r3, #-1]
  403884:	f852 3023 	ldr.w	r3, [r2, r3, lsl #2]
  403888:	b14b      	cbz	r3, 40389e <two_way_long_needle+0x9e>
  40388a:	b124      	cbz	r4, 403896 <two_way_long_needle+0x96>
  40388c:	9a03      	ldr	r2, [sp, #12]
  40388e:	4293      	cmp	r3, r2
  403890:	d201      	bcs.n	403896 <two_way_long_needle+0x96>
  403892:	ebaa 0302 	sub.w	r3, sl, r2
  403896:	4498      	add	r8, r3
  403898:	2400      	movs	r4, #0
  40389a:	4638      	mov	r0, r7
  40389c:	e7e3      	b.n	403866 <two_way_long_needle+0x66>
  40389e:	454c      	cmp	r4, r9
  4038a0:	4623      	mov	r3, r4
  4038a2:	f10a 3eff 	add.w	lr, sl, #4294967295
  4038a6:	bf38      	it	cc
  4038a8:	464b      	movcc	r3, r9
  4038aa:	4573      	cmp	r3, lr
  4038ac:	d213      	bcs.n	4038d6 <two_way_long_needle+0xd6>
  4038ae:	eb08 0203 	add.w	r2, r8, r3
  4038b2:	f816 c003 	ldrb.w	ip, [r6, r3]
  4038b6:	5ca8      	ldrb	r0, [r5, r2]
  4038b8:	4584      	cmp	ip, r0
  4038ba:	442a      	add	r2, r5
  4038bc:	eb06 0103 	add.w	r1, r6, r3
  4038c0:	d006      	beq.n	4038d0 <two_way_long_needle+0xd0>
  4038c2:	e02c      	b.n	40391e <two_way_long_needle+0x11e>
  4038c4:	f811 cf01 	ldrb.w	ip, [r1, #1]!
  4038c8:	f812 0f01 	ldrb.w	r0, [r2, #1]!
  4038cc:	4584      	cmp	ip, r0
  4038ce:	d126      	bne.n	40391e <two_way_long_needle+0x11e>
  4038d0:	3301      	adds	r3, #1
  4038d2:	4573      	cmp	r3, lr
  4038d4:	d3f6      	bcc.n	4038c4 <two_way_long_needle+0xc4>
  4038d6:	454c      	cmp	r4, r9
  4038d8:	9900      	ldr	r1, [sp, #0]
  4038da:	f080 8089 	bcs.w	4039f0 <two_way_long_needle+0x1f0>
  4038de:	9b00      	ldr	r3, [sp, #0]
  4038e0:	eb08 0203 	add.w	r2, r8, r3
  4038e4:	9b01      	ldr	r3, [sp, #4]
  4038e6:	5ca8      	ldrb	r0, [r5, r2]
  4038e8:	781b      	ldrb	r3, [r3, #0]
  4038ea:	4298      	cmp	r0, r3
  4038ec:	442a      	add	r2, r5
  4038ee:	d17f      	bne.n	4039f0 <two_way_long_needle+0x1f0>
  4038f0:	9801      	ldr	r0, [sp, #4]
  4038f2:	f104 3bff 	add.w	fp, r4, #4294967295
  4038f6:	e006      	b.n	403906 <two_way_long_needle+0x106>
  4038f8:	f810 cd01 	ldrb.w	ip, [r0, #-1]!
  4038fc:	f812 ed01 	ldrb.w	lr, [r2, #-1]!
  403900:	45f4      	cmp	ip, lr
  403902:	d103      	bne.n	40390c <two_way_long_needle+0x10c>
  403904:	4619      	mov	r1, r3
  403906:	1e4b      	subs	r3, r1, #1
  403908:	459b      	cmp	fp, r3
  40390a:	d1f5      	bne.n	4038f8 <two_way_long_needle+0xf8>
  40390c:	3401      	adds	r4, #1
  40390e:	428c      	cmp	r4, r1
  403910:	d870      	bhi.n	4039f4 <two_way_long_needle+0x1f4>
  403912:	9c03      	ldr	r4, [sp, #12]
  403914:	4638      	mov	r0, r7
  403916:	44a0      	add	r8, r4
  403918:	ebaa 0404 	sub.w	r4, sl, r4
  40391c:	e7a3      	b.n	403866 <two_way_long_needle+0x66>
  40391e:	f1c9 0201 	rsb	r2, r9, #1
  403922:	4490      	add	r8, r2
  403924:	e7b7      	b.n	403896 <two_way_long_needle+0x96>
  403926:	2000      	movs	r0, #0
  403928:	f20d 4d14 	addw	sp, sp, #1044	; 0x414
  40392c:	e8bd 8ff0 	ldmia.w	sp!, {r4, r5, r6, r7, r8, r9, sl, fp, pc}
  403930:	eba4 0309 	sub.w	r3, r4, r9
  403934:	454b      	cmp	r3, r9
  403936:	bf38      	it	cc
  403938:	464b      	movcc	r3, r9
  40393a:	3301      	adds	r3, #1
  40393c:	f109 38ff 	add.w	r8, r9, #4294967295
  403940:	9303      	str	r3, [sp, #12]
  403942:	eb06 0308 	add.w	r3, r6, r8
  403946:	4658      	mov	r0, fp
  403948:	f04f 0a00 	mov.w	sl, #0
  40394c:	46cb      	mov	fp, r9
  40394e:	4699      	mov	r9, r3
  403950:	eb0a 0704 	add.w	r7, sl, r4
  403954:	1a3a      	subs	r2, r7, r0
  403956:	2100      	movs	r1, #0
  403958:	4428      	add	r0, r5
  40395a:	f002 fe39 	bl	4065d0 <memchr>
  40395e:	2800      	cmp	r0, #0
  403960:	d1e1      	bne.n	403926 <two_way_long_needle+0x126>
  403962:	2f00      	cmp	r7, #0
  403964:	d0df      	beq.n	403926 <two_way_long_needle+0x126>
  403966:	19eb      	adds	r3, r5, r7
  403968:	aa04      	add	r2, sp, #16
  40396a:	f813 3c01 	ldrb.w	r3, [r3, #-1]
  40396e:	f852 3023 	ldr.w	r3, [r2, r3, lsl #2]
  403972:	bba3      	cbnz	r3, 4039de <two_way_long_needle+0x1de>
  403974:	1e61      	subs	r1, r4, #1
  403976:	458b      	cmp	fp, r1
  403978:	d215      	bcs.n	4039a6 <two_way_long_needle+0x1a6>
  40397a:	eb0a 020b 	add.w	r2, sl, fp
  40397e:	f816 300b 	ldrb.w	r3, [r6, fp]
  403982:	f815 e002 	ldrb.w	lr, [r5, r2]
  403986:	459e      	cmp	lr, r3
  403988:	442a      	add	r2, r5
  40398a:	eb06 000b 	add.w	r0, r6, fp
  40398e:	465b      	mov	r3, fp
  403990:	d006      	beq.n	4039a0 <two_way_long_needle+0x1a0>
  403992:	e027      	b.n	4039e4 <two_way_long_needle+0x1e4>
  403994:	f810 cf01 	ldrb.w	ip, [r0, #1]!
  403998:	f812 ef01 	ldrb.w	lr, [r2, #1]!
  40399c:	45f4      	cmp	ip, lr
  40399e:	d121      	bne.n	4039e4 <two_way_long_needle+0x1e4>
  4039a0:	3301      	adds	r3, #1
  4039a2:	428b      	cmp	r3, r1
  4039a4:	d3f6      	bcc.n	403994 <two_way_long_needle+0x194>
  4039a6:	f1b8 3fff 	cmp.w	r8, #4294967295
  4039aa:	d011      	beq.n	4039d0 <two_way_long_needle+0x1d0>
  4039ac:	eb0a 0208 	add.w	r2, sl, r8
  4039b0:	f899 1000 	ldrb.w	r1, [r9]
  4039b4:	5cab      	ldrb	r3, [r5, r2]
  4039b6:	4299      	cmp	r1, r3
  4039b8:	442a      	add	r2, r5
  4039ba:	d10f      	bne.n	4039dc <two_way_long_needle+0x1dc>
  4039bc:	464b      	mov	r3, r9
  4039be:	e005      	b.n	4039cc <two_way_long_needle+0x1cc>
  4039c0:	f813 0d01 	ldrb.w	r0, [r3, #-1]!
  4039c4:	f812 1d01 	ldrb.w	r1, [r2, #-1]!
  4039c8:	4288      	cmp	r0, r1
  4039ca:	d107      	bne.n	4039dc <two_way_long_needle+0x1dc>
  4039cc:	42b3      	cmp	r3, r6
  4039ce:	d1f7      	bne.n	4039c0 <two_way_long_needle+0x1c0>
  4039d0:	eb05 000a 	add.w	r0, r5, sl
  4039d4:	f20d 4d14 	addw	sp, sp, #1044	; 0x414
  4039d8:	e8bd 8ff0 	ldmia.w	sp!, {r4, r5, r6, r7, r8, r9, sl, fp, pc}
  4039dc:	9b03      	ldr	r3, [sp, #12]
  4039de:	449a      	add	sl, r3
  4039e0:	4638      	mov	r0, r7
  4039e2:	e7b5      	b.n	403950 <two_way_long_needle+0x150>
  4039e4:	f1cb 0201 	rsb	r2, fp, #1
  4039e8:	4492      	add	sl, r2
  4039ea:	449a      	add	sl, r3
  4039ec:	4638      	mov	r0, r7
  4039ee:	e7af      	b.n	403950 <two_way_long_needle+0x150>
  4039f0:	4649      	mov	r1, r9
  4039f2:	e78b      	b.n	40390c <two_way_long_needle+0x10c>
  4039f4:	eb05 0008 	add.w	r0, r5, r8
  4039f8:	e796      	b.n	403928 <two_way_long_needle+0x128>
  4039fa:	bf00      	nop

004039fc <strstr>:
  4039fc:	7802      	ldrb	r2, [r0, #0]
  4039fe:	2a00      	cmp	r2, #0
  403a00:	f000 8101 	beq.w	403c06 <strstr+0x20a>
  403a04:	e92d 4ff0 	stmdb	sp!, {r4, r5, r6, r7, r8, r9, sl, fp, lr}
  403a08:	f891 8000 	ldrb.w	r8, [r1]
  403a0c:	b085      	sub	sp, #20
  403a0e:	4644      	mov	r4, r8
  403a10:	f1b8 0f00 	cmp.w	r8, #0
  403a14:	d016      	beq.n	403a44 <strstr+0x48>
  403a16:	4686      	mov	lr, r0
  403a18:	f101 0c01 	add.w	ip, r1, #1
  403a1c:	2701      	movs	r7, #1
  403a1e:	e003      	b.n	403a28 <strstr+0x2c>
  403a20:	f813 4b01 	ldrb.w	r4, [r3], #1
  403a24:	b16c      	cbz	r4, 403a42 <strstr+0x46>
  403a26:	469c      	mov	ip, r3
  403a28:	42a2      	cmp	r2, r4
  403a2a:	bf14      	ite	ne
  403a2c:	2700      	movne	r7, #0
  403a2e:	f007 0701 	andeq.w	r7, r7, #1
  403a32:	f81e 2f01 	ldrb.w	r2, [lr, #1]!
  403a36:	4663      	mov	r3, ip
  403a38:	2a00      	cmp	r2, #0
  403a3a:	d1f1      	bne.n	403a20 <strstr+0x24>
  403a3c:	f89c 3000 	ldrb.w	r3, [ip]
  403a40:	b9fb      	cbnz	r3, 403a82 <strstr+0x86>
  403a42:	b117      	cbz	r7, 403a4a <strstr+0x4e>
  403a44:	b005      	add	sp, #20
  403a46:	e8bd 8ff0 	ldmia.w	sp!, {r4, r5, r6, r7, r8, r9, sl, fp, pc}
  403a4a:	460e      	mov	r6, r1
  403a4c:	4605      	mov	r5, r0
  403a4e:	4641      	mov	r1, r8
  403a50:	3001      	adds	r0, #1
  403a52:	ebac 0406 	sub.w	r4, ip, r6
  403a56:	f003 f9ed 	bl	406e34 <strchr>
  403a5a:	4607      	mov	r7, r0
  403a5c:	b188      	cbz	r0, 403a82 <strstr+0x86>
  403a5e:	2c01      	cmp	r4, #1
  403a60:	d0f0      	beq.n	403a44 <strstr+0x48>
  403a62:	1928      	adds	r0, r5, r4
  403a64:	4287      	cmp	r7, r0
  403a66:	bf94      	ite	ls
  403a68:	1bc1      	subls	r1, r0, r7
  403a6a:	2101      	movhi	r1, #1
  403a6c:	2c1f      	cmp	r4, #31
  403a6e:	468b      	mov	fp, r1
  403a70:	d90b      	bls.n	403a8a <strstr+0x8e>
  403a72:	4623      	mov	r3, r4
  403a74:	4632      	mov	r2, r6
  403a76:	4638      	mov	r0, r7
  403a78:	f7ff fec2 	bl	403800 <two_way_long_needle>
  403a7c:	b005      	add	sp, #20
  403a7e:	e8bd 8ff0 	ldmia.w	sp!, {r4, r5, r6, r7, r8, r9, sl, fp, pc}
  403a82:	2000      	movs	r0, #0
  403a84:	b005      	add	sp, #20
  403a86:	e8bd 8ff0 	ldmia.w	sp!, {r4, r5, r6, r7, r8, r9, sl, fp, pc}
  403a8a:	aa03      	add	r2, sp, #12
  403a8c:	4621      	mov	r1, r4
  403a8e:	4630      	mov	r0, r6
  403a90:	f7ff fe5c 	bl	40374c <critical_factorization>
  403a94:	9903      	ldr	r1, [sp, #12]
  403a96:	4680      	mov	r8, r0
  403a98:	4602      	mov	r2, r0
  403a9a:	4431      	add	r1, r6
  403a9c:	4630      	mov	r0, r6
  403a9e:	f002 fde7 	bl	406670 <memcmp>
  403aa2:	2800      	cmp	r0, #0
  403aa4:	d157      	bne.n	403b56 <strstr+0x15a>
  403aa6:	f108 33ff 	add.w	r3, r8, #4294967295
  403aaa:	9300      	str	r3, [sp, #0]
  403aac:	18f3      	adds	r3, r6, r3
  403aae:	4681      	mov	r9, r0
  403ab0:	4605      	mov	r5, r0
  403ab2:	9301      	str	r3, [sp, #4]
  403ab4:	4658      	mov	r0, fp
  403ab6:	46b2      	mov	sl, r6
  403ab8:	1966      	adds	r6, r4, r5
  403aba:	1a32      	subs	r2, r6, r0
  403abc:	2100      	movs	r1, #0
  403abe:	4438      	add	r0, r7
  403ac0:	f002 fd86 	bl	4065d0 <memchr>
  403ac4:	2800      	cmp	r0, #0
  403ac6:	d1dc      	bne.n	403a82 <strstr+0x86>
  403ac8:	2e00      	cmp	r6, #0
  403aca:	d0da      	beq.n	403a82 <strstr+0x86>
  403acc:	45c8      	cmp	r8, r9
  403ace:	4643      	mov	r3, r8
  403ad0:	bf38      	it	cc
  403ad2:	464b      	movcc	r3, r9
  403ad4:	429c      	cmp	r4, r3
  403ad6:	d912      	bls.n	403afe <strstr+0x102>
  403ad8:	195a      	adds	r2, r3, r5
  403ada:	f81a 1003 	ldrb.w	r1, [sl, r3]
  403ade:	5cb8      	ldrb	r0, [r7, r2]
  403ae0:	4281      	cmp	r1, r0
  403ae2:	443a      	add	r2, r7
  403ae4:	eb0a 0e03 	add.w	lr, sl, r3
  403ae8:	d006      	beq.n	403af8 <strstr+0xfc>
  403aea:	e02c      	b.n	403b46 <strstr+0x14a>
  403aec:	f81e 0f01 	ldrb.w	r0, [lr, #1]!
  403af0:	f812 1f01 	ldrb.w	r1, [r2, #1]!
  403af4:	4288      	cmp	r0, r1
  403af6:	d126      	bne.n	403b46 <strstr+0x14a>
  403af8:	3301      	adds	r3, #1
  403afa:	429c      	cmp	r4, r3
  403afc:	d1f6      	bne.n	403aec <strstr+0xf0>
  403afe:	45c8      	cmp	r8, r9
  403b00:	9900      	ldr	r1, [sp, #0]
  403b02:	f240 8083 	bls.w	403c0c <strstr+0x210>
  403b06:	9b00      	ldr	r3, [sp, #0]
  403b08:	18ea      	adds	r2, r5, r3
  403b0a:	9b01      	ldr	r3, [sp, #4]
  403b0c:	5cb8      	ldrb	r0, [r7, r2]
  403b0e:	781b      	ldrb	r3, [r3, #0]
  403b10:	4298      	cmp	r0, r3
  403b12:	443a      	add	r2, r7
  403b14:	d17a      	bne.n	403c0c <strstr+0x210>
  403b16:	9801      	ldr	r0, [sp, #4]
  403b18:	f109 3bff 	add.w	fp, r9, #4294967295
  403b1c:	e006      	b.n	403b2c <strstr+0x130>
  403b1e:	f810 cd01 	ldrb.w	ip, [r0, #-1]!
  403b22:	f812 ed01 	ldrb.w	lr, [r2, #-1]!
  403b26:	45f4      	cmp	ip, lr
  403b28:	d103      	bne.n	403b32 <strstr+0x136>
  403b2a:	4619      	mov	r1, r3
  403b2c:	1e4b      	subs	r3, r1, #1
  403b2e:	455b      	cmp	r3, fp
  403b30:	d1f5      	bne.n	403b1e <strstr+0x122>
  403b32:	f109 0901 	add.w	r9, r9, #1
  403b36:	4589      	cmp	r9, r1
  403b38:	d857      	bhi.n	403bea <strstr+0x1ee>
  403b3a:	9b03      	ldr	r3, [sp, #12]
  403b3c:	4630      	mov	r0, r6
  403b3e:	441d      	add	r5, r3
  403b40:	eba4 0903 	sub.w	r9, r4, r3
  403b44:	e7b8      	b.n	403ab8 <strstr+0xbc>
  403b46:	f1c8 0201 	rsb	r2, r8, #1
  403b4a:	4415      	add	r5, r2
  403b4c:	441d      	add	r5, r3
  403b4e:	f04f 0900 	mov.w	r9, #0
  403b52:	4630      	mov	r0, r6
  403b54:	e7b0      	b.n	403ab8 <strstr+0xbc>
  403b56:	eba4 0308 	sub.w	r3, r4, r8
  403b5a:	4543      	cmp	r3, r8
  403b5c:	bf38      	it	cc
  403b5e:	4643      	movcc	r3, r8
  403b60:	3301      	adds	r3, #1
  403b62:	f108 39ff 	add.w	r9, r8, #4294967295
  403b66:	9303      	str	r3, [sp, #12]
  403b68:	eb06 0309 	add.w	r3, r6, r9
  403b6c:	4658      	mov	r0, fp
  403b6e:	2500      	movs	r5, #0
  403b70:	46bb      	mov	fp, r7
  403b72:	469a      	mov	sl, r3
  403b74:	1967      	adds	r7, r4, r5
  403b76:	1a3a      	subs	r2, r7, r0
  403b78:	2100      	movs	r1, #0
  403b7a:	4458      	add	r0, fp
  403b7c:	f002 fd28 	bl	4065d0 <memchr>
  403b80:	2800      	cmp	r0, #0
  403b82:	f47f af7e 	bne.w	403a82 <strstr+0x86>
  403b86:	2f00      	cmp	r7, #0
  403b88:	f43f af7b 	beq.w	403a82 <strstr+0x86>
  403b8c:	4544      	cmp	r4, r8
  403b8e:	d915      	bls.n	403bbc <strstr+0x1c0>
  403b90:	eb08 0205 	add.w	r2, r8, r5
  403b94:	f816 3008 	ldrb.w	r3, [r6, r8]
  403b98:	f81b 0002 	ldrb.w	r0, [fp, r2]
  403b9c:	4298      	cmp	r0, r3
  403b9e:	445a      	add	r2, fp
  403ba0:	eb06 0108 	add.w	r1, r6, r8
  403ba4:	4643      	mov	r3, r8
  403ba6:	d006      	beq.n	403bb6 <strstr+0x1ba>
  403ba8:	e023      	b.n	403bf2 <strstr+0x1f6>
  403baa:	f811 ef01 	ldrb.w	lr, [r1, #1]!
  403bae:	f812 0f01 	ldrb.w	r0, [r2, #1]!
  403bb2:	4586      	cmp	lr, r0
  403bb4:	d11d      	bne.n	403bf2 <strstr+0x1f6>
  403bb6:	3301      	adds	r3, #1
  403bb8:	429c      	cmp	r4, r3
  403bba:	d1f6      	bne.n	403baa <strstr+0x1ae>
  403bbc:	f1b9 3fff 	cmp.w	r9, #4294967295
  403bc0:	d012      	beq.n	403be8 <strstr+0x1ec>
  403bc2:	eb05 0209 	add.w	r2, r5, r9
  403bc6:	f89a 3000 	ldrb.w	r3, [sl]
  403bca:	f81b 1002 	ldrb.w	r1, [fp, r2]
  403bce:	4299      	cmp	r1, r3
  403bd0:	445a      	add	r2, fp
  403bd2:	d114      	bne.n	403bfe <strstr+0x202>
  403bd4:	4653      	mov	r3, sl
  403bd6:	e005      	b.n	403be4 <strstr+0x1e8>
  403bd8:	f813 0d01 	ldrb.w	r0, [r3, #-1]!
  403bdc:	f812 1d01 	ldrb.w	r1, [r2, #-1]!
  403be0:	4288      	cmp	r0, r1
  403be2:	d10c      	bne.n	403bfe <strstr+0x202>
  403be4:	42b3      	cmp	r3, r6
  403be6:	d1f7      	bne.n	403bd8 <strstr+0x1dc>
  403be8:	465f      	mov	r7, fp
  403bea:	1978      	adds	r0, r7, r5
  403bec:	b005      	add	sp, #20
  403bee:	e8bd 8ff0 	ldmia.w	sp!, {r4, r5, r6, r7, r8, r9, sl, fp, pc}
  403bf2:	f1c8 0201 	rsb	r2, r8, #1
  403bf6:	4415      	add	r5, r2
  403bf8:	441d      	add	r5, r3
  403bfa:	4638      	mov	r0, r7
  403bfc:	e7ba      	b.n	403b74 <strstr+0x178>
  403bfe:	9b03      	ldr	r3, [sp, #12]
  403c00:	4638      	mov	r0, r7
  403c02:	441d      	add	r5, r3
  403c04:	e7b6      	b.n	403b74 <strstr+0x178>
  403c06:	780b      	ldrb	r3, [r1, #0]
  403c08:	b913      	cbnz	r3, 403c10 <strstr+0x214>
  403c0a:	4770      	bx	lr
  403c0c:	4641      	mov	r1, r8
  403c0e:	e790      	b.n	403b32 <strstr+0x136>
  403c10:	2000      	movs	r0, #0
  403c12:	4770      	bx	lr

00403c14 <_svfprintf_r>:
  403c14:	e92d 4ff0 	stmdb	sp!, {r4, r5, r6, r7, r8, r9, sl, fp, lr}
  403c18:	b0c3      	sub	sp, #268	; 0x10c
  403c1a:	460c      	mov	r4, r1
  403c1c:	910b      	str	r1, [sp, #44]	; 0x2c
  403c1e:	4692      	mov	sl, r2
  403c20:	930f      	str	r3, [sp, #60]	; 0x3c
  403c22:	900c      	str	r0, [sp, #48]	; 0x30
  403c24:	f002 fa0c 	bl	406040 <_localeconv_r>
  403c28:	6803      	ldr	r3, [r0, #0]
  403c2a:	931a      	str	r3, [sp, #104]	; 0x68
  403c2c:	4618      	mov	r0, r3
  403c2e:	f003 f987 	bl	406f40 <strlen>
  403c32:	89a3      	ldrh	r3, [r4, #12]
  403c34:	9019      	str	r0, [sp, #100]	; 0x64
  403c36:	0619      	lsls	r1, r3, #24
  403c38:	d503      	bpl.n	403c42 <_svfprintf_r+0x2e>
  403c3a:	6923      	ldr	r3, [r4, #16]
  403c3c:	2b00      	cmp	r3, #0
  403c3e:	f001 8003 	beq.w	404c48 <_svfprintf_r+0x1034>
  403c42:	2300      	movs	r3, #0
  403c44:	f10d 09c8 	add.w	r9, sp, #200	; 0xc8
  403c48:	9313      	str	r3, [sp, #76]	; 0x4c
  403c4a:	9315      	str	r3, [sp, #84]	; 0x54
  403c4c:	9314      	str	r3, [sp, #80]	; 0x50
  403c4e:	9327      	str	r3, [sp, #156]	; 0x9c
  403c50:	9326      	str	r3, [sp, #152]	; 0x98
  403c52:	9318      	str	r3, [sp, #96]	; 0x60
  403c54:	931b      	str	r3, [sp, #108]	; 0x6c
  403c56:	9309      	str	r3, [sp, #36]	; 0x24
  403c58:	f8cd 9094 	str.w	r9, [sp, #148]	; 0x94
  403c5c:	46c8      	mov	r8, r9
  403c5e:	9316      	str	r3, [sp, #88]	; 0x58
  403c60:	9317      	str	r3, [sp, #92]	; 0x5c
  403c62:	f89a 3000 	ldrb.w	r3, [sl]
  403c66:	4654      	mov	r4, sl
  403c68:	b1e3      	cbz	r3, 403ca4 <_svfprintf_r+0x90>
  403c6a:	2b25      	cmp	r3, #37	; 0x25
  403c6c:	d102      	bne.n	403c74 <_svfprintf_r+0x60>
  403c6e:	e019      	b.n	403ca4 <_svfprintf_r+0x90>
  403c70:	2b25      	cmp	r3, #37	; 0x25
  403c72:	d003      	beq.n	403c7c <_svfprintf_r+0x68>
  403c74:	f814 3f01 	ldrb.w	r3, [r4, #1]!
  403c78:	2b00      	cmp	r3, #0
  403c7a:	d1f9      	bne.n	403c70 <_svfprintf_r+0x5c>
  403c7c:	eba4 050a 	sub.w	r5, r4, sl
  403c80:	b185      	cbz	r5, 403ca4 <_svfprintf_r+0x90>
  403c82:	9b26      	ldr	r3, [sp, #152]	; 0x98
  403c84:	9a27      	ldr	r2, [sp, #156]	; 0x9c
  403c86:	f8c8 a000 	str.w	sl, [r8]
  403c8a:	3301      	adds	r3, #1
  403c8c:	442a      	add	r2, r5
  403c8e:	2b07      	cmp	r3, #7
  403c90:	f8c8 5004 	str.w	r5, [r8, #4]
  403c94:	9227      	str	r2, [sp, #156]	; 0x9c
  403c96:	9326      	str	r3, [sp, #152]	; 0x98
  403c98:	dc7f      	bgt.n	403d9a <_svfprintf_r+0x186>
  403c9a:	f108 0808 	add.w	r8, r8, #8
  403c9e:	9b09      	ldr	r3, [sp, #36]	; 0x24
  403ca0:	442b      	add	r3, r5
  403ca2:	9309      	str	r3, [sp, #36]	; 0x24
  403ca4:	7823      	ldrb	r3, [r4, #0]
  403ca6:	2b00      	cmp	r3, #0
  403ca8:	d07f      	beq.n	403daa <_svfprintf_r+0x196>
  403caa:	2300      	movs	r3, #0
  403cac:	461a      	mov	r2, r3
  403cae:	f88d 3077 	strb.w	r3, [sp, #119]	; 0x77
  403cb2:	4619      	mov	r1, r3
  403cb4:	930d      	str	r3, [sp, #52]	; 0x34
  403cb6:	469b      	mov	fp, r3
  403cb8:	f04f 30ff 	mov.w	r0, #4294967295
  403cbc:	7863      	ldrb	r3, [r4, #1]
  403cbe:	900a      	str	r0, [sp, #40]	; 0x28
  403cc0:	f104 0a01 	add.w	sl, r4, #1
  403cc4:	f10a 0a01 	add.w	sl, sl, #1
  403cc8:	f1a3 0020 	sub.w	r0, r3, #32
  403ccc:	2858      	cmp	r0, #88	; 0x58
  403cce:	f200 83c1 	bhi.w	404454 <_svfprintf_r+0x840>
  403cd2:	e8df f010 	tbh	[pc, r0, lsl #1]
  403cd6:	0238      	.short	0x0238
  403cd8:	03bf03bf 	.word	0x03bf03bf
  403cdc:	03bf0240 	.word	0x03bf0240
  403ce0:	03bf03bf 	.word	0x03bf03bf
  403ce4:	03bf03bf 	.word	0x03bf03bf
  403ce8:	024503bf 	.word	0x024503bf
  403cec:	03bf0203 	.word	0x03bf0203
  403cf0:	026b005d 	.word	0x026b005d
  403cf4:	028603bf 	.word	0x028603bf
  403cf8:	039d039d 	.word	0x039d039d
  403cfc:	039d039d 	.word	0x039d039d
  403d00:	039d039d 	.word	0x039d039d
  403d04:	039d039d 	.word	0x039d039d
  403d08:	03bf039d 	.word	0x03bf039d
  403d0c:	03bf03bf 	.word	0x03bf03bf
  403d10:	03bf03bf 	.word	0x03bf03bf
  403d14:	03bf03bf 	.word	0x03bf03bf
  403d18:	03bf03bf 	.word	0x03bf03bf
  403d1c:	033703bf 	.word	0x033703bf
  403d20:	03bf0357 	.word	0x03bf0357
  403d24:	03bf0357 	.word	0x03bf0357
  403d28:	03bf03bf 	.word	0x03bf03bf
  403d2c:	039803bf 	.word	0x039803bf
  403d30:	03bf03bf 	.word	0x03bf03bf
  403d34:	03bf03ad 	.word	0x03bf03ad
  403d38:	03bf03bf 	.word	0x03bf03bf
  403d3c:	03bf03bf 	.word	0x03bf03bf
  403d40:	03bf0259 	.word	0x03bf0259
  403d44:	031e03bf 	.word	0x031e03bf
  403d48:	03bf03bf 	.word	0x03bf03bf
  403d4c:	03bf03bf 	.word	0x03bf03bf
  403d50:	03bf03bf 	.word	0x03bf03bf
  403d54:	03bf03bf 	.word	0x03bf03bf
  403d58:	03bf03bf 	.word	0x03bf03bf
  403d5c:	02db02c6 	.word	0x02db02c6
  403d60:	03570357 	.word	0x03570357
  403d64:	028b0357 	.word	0x028b0357
  403d68:	03bf02db 	.word	0x03bf02db
  403d6c:	029003bf 	.word	0x029003bf
  403d70:	029d03bf 	.word	0x029d03bf
  403d74:	02b401cc 	.word	0x02b401cc
  403d78:	03bf0208 	.word	0x03bf0208
  403d7c:	03bf01e1 	.word	0x03bf01e1
  403d80:	03bf007e 	.word	0x03bf007e
  403d84:	020d03bf 	.word	0x020d03bf
  403d88:	980d      	ldr	r0, [sp, #52]	; 0x34
  403d8a:	930f      	str	r3, [sp, #60]	; 0x3c
  403d8c:	4240      	negs	r0, r0
  403d8e:	900d      	str	r0, [sp, #52]	; 0x34
  403d90:	f04b 0b04 	orr.w	fp, fp, #4
  403d94:	f89a 3000 	ldrb.w	r3, [sl]
  403d98:	e794      	b.n	403cc4 <_svfprintf_r+0xb0>
  403d9a:	aa25      	add	r2, sp, #148	; 0x94
  403d9c:	990b      	ldr	r1, [sp, #44]	; 0x2c
  403d9e:	980c      	ldr	r0, [sp, #48]	; 0x30
  403da0:	f003 f93c 	bl	40701c <__ssprint_r>
  403da4:	b940      	cbnz	r0, 403db8 <_svfprintf_r+0x1a4>
  403da6:	46c8      	mov	r8, r9
  403da8:	e779      	b.n	403c9e <_svfprintf_r+0x8a>
  403daa:	9b27      	ldr	r3, [sp, #156]	; 0x9c
  403dac:	b123      	cbz	r3, 403db8 <_svfprintf_r+0x1a4>
  403dae:	980c      	ldr	r0, [sp, #48]	; 0x30
  403db0:	990b      	ldr	r1, [sp, #44]	; 0x2c
  403db2:	aa25      	add	r2, sp, #148	; 0x94
  403db4:	f003 f932 	bl	40701c <__ssprint_r>
  403db8:	9b0b      	ldr	r3, [sp, #44]	; 0x2c
  403dba:	899b      	ldrh	r3, [r3, #12]
  403dbc:	f013 0f40 	tst.w	r3, #64	; 0x40
  403dc0:	9b09      	ldr	r3, [sp, #36]	; 0x24
  403dc2:	bf18      	it	ne
  403dc4:	f04f 33ff 	movne.w	r3, #4294967295
  403dc8:	9309      	str	r3, [sp, #36]	; 0x24
  403dca:	9809      	ldr	r0, [sp, #36]	; 0x24
  403dcc:	b043      	add	sp, #268	; 0x10c
  403dce:	e8bd 8ff0 	ldmia.w	sp!, {r4, r5, r6, r7, r8, r9, sl, fp, pc}
  403dd2:	f01b 0f20 	tst.w	fp, #32
  403dd6:	9311      	str	r3, [sp, #68]	; 0x44
  403dd8:	f040 81dd 	bne.w	404196 <_svfprintf_r+0x582>
  403ddc:	9a0f      	ldr	r2, [sp, #60]	; 0x3c
  403dde:	f01b 0f10 	tst.w	fp, #16
  403de2:	4613      	mov	r3, r2
  403de4:	f040 856e 	bne.w	4048c4 <_svfprintf_r+0xcb0>
  403de8:	f01b 0f40 	tst.w	fp, #64	; 0x40
  403dec:	f000 856a 	beq.w	4048c4 <_svfprintf_r+0xcb0>
  403df0:	8814      	ldrh	r4, [r2, #0]
  403df2:	3204      	adds	r2, #4
  403df4:	2500      	movs	r5, #0
  403df6:	2301      	movs	r3, #1
  403df8:	920f      	str	r2, [sp, #60]	; 0x3c
  403dfa:	2700      	movs	r7, #0
  403dfc:	f88d 7077 	strb.w	r7, [sp, #119]	; 0x77
  403e00:	990a      	ldr	r1, [sp, #40]	; 0x28
  403e02:	1c4a      	adds	r2, r1, #1
  403e04:	f000 8265 	beq.w	4042d2 <_svfprintf_r+0x6be>
  403e08:	f02b 0280 	bic.w	r2, fp, #128	; 0x80
  403e0c:	9207      	str	r2, [sp, #28]
  403e0e:	ea54 0205 	orrs.w	r2, r4, r5
  403e12:	f040 8264 	bne.w	4042de <_svfprintf_r+0x6ca>
  403e16:	2900      	cmp	r1, #0
  403e18:	f040 843c 	bne.w	404694 <_svfprintf_r+0xa80>
  403e1c:	2b00      	cmp	r3, #0
  403e1e:	f040 84d7 	bne.w	4047d0 <_svfprintf_r+0xbbc>
  403e22:	f01b 0301 	ands.w	r3, fp, #1
  403e26:	930e      	str	r3, [sp, #56]	; 0x38
  403e28:	f000 8604 	beq.w	404a34 <_svfprintf_r+0xe20>
  403e2c:	ae42      	add	r6, sp, #264	; 0x108
  403e2e:	2330      	movs	r3, #48	; 0x30
  403e30:	f806 3d41 	strb.w	r3, [r6, #-65]!
  403e34:	9b0a      	ldr	r3, [sp, #40]	; 0x28
  403e36:	9a0e      	ldr	r2, [sp, #56]	; 0x38
  403e38:	4293      	cmp	r3, r2
  403e3a:	bfb8      	it	lt
  403e3c:	4613      	movlt	r3, r2
  403e3e:	9308      	str	r3, [sp, #32]
  403e40:	2300      	movs	r3, #0
  403e42:	9312      	str	r3, [sp, #72]	; 0x48
  403e44:	b117      	cbz	r7, 403e4c <_svfprintf_r+0x238>
  403e46:	9b08      	ldr	r3, [sp, #32]
  403e48:	3301      	adds	r3, #1
  403e4a:	9308      	str	r3, [sp, #32]
  403e4c:	9b07      	ldr	r3, [sp, #28]
  403e4e:	f013 0302 	ands.w	r3, r3, #2
  403e52:	9310      	str	r3, [sp, #64]	; 0x40
  403e54:	d002      	beq.n	403e5c <_svfprintf_r+0x248>
  403e56:	9b08      	ldr	r3, [sp, #32]
  403e58:	3302      	adds	r3, #2
  403e5a:	9308      	str	r3, [sp, #32]
  403e5c:	9b07      	ldr	r3, [sp, #28]
  403e5e:	f013 0584 	ands.w	r5, r3, #132	; 0x84
  403e62:	f040 830e 	bne.w	404482 <_svfprintf_r+0x86e>
  403e66:	9b0d      	ldr	r3, [sp, #52]	; 0x34
  403e68:	9a08      	ldr	r2, [sp, #32]
  403e6a:	eba3 0b02 	sub.w	fp, r3, r2
  403e6e:	f1bb 0f00 	cmp.w	fp, #0
  403e72:	f340 8306 	ble.w	404482 <_svfprintf_r+0x86e>
  403e76:	f1bb 0f10 	cmp.w	fp, #16
  403e7a:	9c27      	ldr	r4, [sp, #156]	; 0x9c
  403e7c:	9a26      	ldr	r2, [sp, #152]	; 0x98
  403e7e:	dd29      	ble.n	403ed4 <_svfprintf_r+0x2c0>
  403e80:	4643      	mov	r3, r8
  403e82:	4621      	mov	r1, r4
  403e84:	46a8      	mov	r8, r5
  403e86:	2710      	movs	r7, #16
  403e88:	9c0c      	ldr	r4, [sp, #48]	; 0x30
  403e8a:	9d0b      	ldr	r5, [sp, #44]	; 0x2c
  403e8c:	e006      	b.n	403e9c <_svfprintf_r+0x288>
  403e8e:	f1ab 0b10 	sub.w	fp, fp, #16
  403e92:	f1bb 0f10 	cmp.w	fp, #16
  403e96:	f103 0308 	add.w	r3, r3, #8
  403e9a:	dd18      	ble.n	403ece <_svfprintf_r+0x2ba>
  403e9c:	3201      	adds	r2, #1
  403e9e:	48b7      	ldr	r0, [pc, #732]	; (40417c <_svfprintf_r+0x568>)
  403ea0:	9226      	str	r2, [sp, #152]	; 0x98
  403ea2:	3110      	adds	r1, #16
  403ea4:	2a07      	cmp	r2, #7
  403ea6:	9127      	str	r1, [sp, #156]	; 0x9c
  403ea8:	e883 0081 	stmia.w	r3, {r0, r7}
  403eac:	ddef      	ble.n	403e8e <_svfprintf_r+0x27a>
  403eae:	aa25      	add	r2, sp, #148	; 0x94
  403eb0:	4629      	mov	r1, r5
  403eb2:	4620      	mov	r0, r4
  403eb4:	f003 f8b2 	bl	40701c <__ssprint_r>
  403eb8:	2800      	cmp	r0, #0
  403eba:	f47f af7d 	bne.w	403db8 <_svfprintf_r+0x1a4>
  403ebe:	f1ab 0b10 	sub.w	fp, fp, #16
  403ec2:	f1bb 0f10 	cmp.w	fp, #16
  403ec6:	9927      	ldr	r1, [sp, #156]	; 0x9c
  403ec8:	9a26      	ldr	r2, [sp, #152]	; 0x98
  403eca:	464b      	mov	r3, r9
  403ecc:	dce6      	bgt.n	403e9c <_svfprintf_r+0x288>
  403ece:	4645      	mov	r5, r8
  403ed0:	460c      	mov	r4, r1
  403ed2:	4698      	mov	r8, r3
  403ed4:	3201      	adds	r2, #1
  403ed6:	4ba9      	ldr	r3, [pc, #676]	; (40417c <_svfprintf_r+0x568>)
  403ed8:	9226      	str	r2, [sp, #152]	; 0x98
  403eda:	445c      	add	r4, fp
  403edc:	2a07      	cmp	r2, #7
  403ede:	9427      	str	r4, [sp, #156]	; 0x9c
  403ee0:	e888 0808 	stmia.w	r8, {r3, fp}
  403ee4:	f300 8498 	bgt.w	404818 <_svfprintf_r+0xc04>
  403ee8:	f89d 7077 	ldrb.w	r7, [sp, #119]	; 0x77
  403eec:	f108 0808 	add.w	r8, r8, #8
  403ef0:	b177      	cbz	r7, 403f10 <_svfprintf_r+0x2fc>
  403ef2:	9b26      	ldr	r3, [sp, #152]	; 0x98
  403ef4:	3301      	adds	r3, #1
  403ef6:	3401      	adds	r4, #1
  403ef8:	f10d 0177 	add.w	r1, sp, #119	; 0x77
  403efc:	2201      	movs	r2, #1
  403efe:	2b07      	cmp	r3, #7
  403f00:	9427      	str	r4, [sp, #156]	; 0x9c
  403f02:	9326      	str	r3, [sp, #152]	; 0x98
  403f04:	e888 0006 	stmia.w	r8, {r1, r2}
  403f08:	f300 83db 	bgt.w	4046c2 <_svfprintf_r+0xaae>
  403f0c:	f108 0808 	add.w	r8, r8, #8
  403f10:	9b10      	ldr	r3, [sp, #64]	; 0x40
  403f12:	b16b      	cbz	r3, 403f30 <_svfprintf_r+0x31c>
  403f14:	9b26      	ldr	r3, [sp, #152]	; 0x98
  403f16:	3301      	adds	r3, #1
  403f18:	3402      	adds	r4, #2
  403f1a:	a91e      	add	r1, sp, #120	; 0x78
  403f1c:	2202      	movs	r2, #2
  403f1e:	2b07      	cmp	r3, #7
  403f20:	9427      	str	r4, [sp, #156]	; 0x9c
  403f22:	9326      	str	r3, [sp, #152]	; 0x98
  403f24:	e888 0006 	stmia.w	r8, {r1, r2}
  403f28:	f300 83d6 	bgt.w	4046d8 <_svfprintf_r+0xac4>
  403f2c:	f108 0808 	add.w	r8, r8, #8
  403f30:	2d80      	cmp	r5, #128	; 0x80
  403f32:	f000 8315 	beq.w	404560 <_svfprintf_r+0x94c>
  403f36:	9b0a      	ldr	r3, [sp, #40]	; 0x28
  403f38:	9a0e      	ldr	r2, [sp, #56]	; 0x38
  403f3a:	1a9f      	subs	r7, r3, r2
  403f3c:	2f00      	cmp	r7, #0
  403f3e:	dd36      	ble.n	403fae <_svfprintf_r+0x39a>
  403f40:	2f10      	cmp	r7, #16
  403f42:	9b26      	ldr	r3, [sp, #152]	; 0x98
  403f44:	4d8e      	ldr	r5, [pc, #568]	; (404180 <_svfprintf_r+0x56c>)
  403f46:	dd27      	ble.n	403f98 <_svfprintf_r+0x384>
  403f48:	4642      	mov	r2, r8
  403f4a:	4621      	mov	r1, r4
  403f4c:	46b0      	mov	r8, r6
  403f4e:	f04f 0b10 	mov.w	fp, #16
  403f52:	462e      	mov	r6, r5
  403f54:	9c0c      	ldr	r4, [sp, #48]	; 0x30
  403f56:	9d0b      	ldr	r5, [sp, #44]	; 0x2c
  403f58:	e004      	b.n	403f64 <_svfprintf_r+0x350>
  403f5a:	3f10      	subs	r7, #16
  403f5c:	2f10      	cmp	r7, #16
  403f5e:	f102 0208 	add.w	r2, r2, #8
  403f62:	dd15      	ble.n	403f90 <_svfprintf_r+0x37c>
  403f64:	3301      	adds	r3, #1
  403f66:	3110      	adds	r1, #16
  403f68:	2b07      	cmp	r3, #7
  403f6a:	9127      	str	r1, [sp, #156]	; 0x9c
  403f6c:	9326      	str	r3, [sp, #152]	; 0x98
  403f6e:	e882 0840 	stmia.w	r2, {r6, fp}
  403f72:	ddf2      	ble.n	403f5a <_svfprintf_r+0x346>
  403f74:	aa25      	add	r2, sp, #148	; 0x94
  403f76:	4629      	mov	r1, r5
  403f78:	4620      	mov	r0, r4
  403f7a:	f003 f84f 	bl	40701c <__ssprint_r>
  403f7e:	2800      	cmp	r0, #0
  403f80:	f47f af1a 	bne.w	403db8 <_svfprintf_r+0x1a4>
  403f84:	3f10      	subs	r7, #16
  403f86:	2f10      	cmp	r7, #16
  403f88:	9927      	ldr	r1, [sp, #156]	; 0x9c
  403f8a:	9b26      	ldr	r3, [sp, #152]	; 0x98
  403f8c:	464a      	mov	r2, r9
  403f8e:	dce9      	bgt.n	403f64 <_svfprintf_r+0x350>
  403f90:	4635      	mov	r5, r6
  403f92:	460c      	mov	r4, r1
  403f94:	4646      	mov	r6, r8
  403f96:	4690      	mov	r8, r2
  403f98:	3301      	adds	r3, #1
  403f9a:	443c      	add	r4, r7
  403f9c:	2b07      	cmp	r3, #7
  403f9e:	9427      	str	r4, [sp, #156]	; 0x9c
  403fa0:	9326      	str	r3, [sp, #152]	; 0x98
  403fa2:	e888 00a0 	stmia.w	r8, {r5, r7}
  403fa6:	f300 8381 	bgt.w	4046ac <_svfprintf_r+0xa98>
  403faa:	f108 0808 	add.w	r8, r8, #8
  403fae:	9b07      	ldr	r3, [sp, #28]
  403fb0:	05df      	lsls	r7, r3, #23
  403fb2:	f100 8268 	bmi.w	404486 <_svfprintf_r+0x872>
  403fb6:	9b26      	ldr	r3, [sp, #152]	; 0x98
  403fb8:	990e      	ldr	r1, [sp, #56]	; 0x38
  403fba:	f8c8 6000 	str.w	r6, [r8]
  403fbe:	3301      	adds	r3, #1
  403fc0:	440c      	add	r4, r1
  403fc2:	2b07      	cmp	r3, #7
  403fc4:	9427      	str	r4, [sp, #156]	; 0x9c
  403fc6:	f8c8 1004 	str.w	r1, [r8, #4]
  403fca:	9326      	str	r3, [sp, #152]	; 0x98
  403fcc:	f300 834d 	bgt.w	40466a <_svfprintf_r+0xa56>
  403fd0:	f108 0808 	add.w	r8, r8, #8
  403fd4:	9b07      	ldr	r3, [sp, #28]
  403fd6:	075b      	lsls	r3, r3, #29
  403fd8:	d53a      	bpl.n	404050 <_svfprintf_r+0x43c>
  403fda:	9b0d      	ldr	r3, [sp, #52]	; 0x34
  403fdc:	9a08      	ldr	r2, [sp, #32]
  403fde:	1a9d      	subs	r5, r3, r2
  403fe0:	2d00      	cmp	r5, #0
  403fe2:	dd35      	ble.n	404050 <_svfprintf_r+0x43c>
  403fe4:	2d10      	cmp	r5, #16
  403fe6:	9b26      	ldr	r3, [sp, #152]	; 0x98
  403fe8:	dd20      	ble.n	40402c <_svfprintf_r+0x418>
  403fea:	2610      	movs	r6, #16
  403fec:	9f0c      	ldr	r7, [sp, #48]	; 0x30
  403fee:	f8dd b02c 	ldr.w	fp, [sp, #44]	; 0x2c
  403ff2:	e004      	b.n	403ffe <_svfprintf_r+0x3ea>
  403ff4:	3d10      	subs	r5, #16
  403ff6:	2d10      	cmp	r5, #16
  403ff8:	f108 0808 	add.w	r8, r8, #8
  403ffc:	dd16      	ble.n	40402c <_svfprintf_r+0x418>
  403ffe:	3301      	adds	r3, #1
  404000:	4a5e      	ldr	r2, [pc, #376]	; (40417c <_svfprintf_r+0x568>)
  404002:	9326      	str	r3, [sp, #152]	; 0x98
  404004:	3410      	adds	r4, #16
  404006:	2b07      	cmp	r3, #7
  404008:	9427      	str	r4, [sp, #156]	; 0x9c
  40400a:	e888 0044 	stmia.w	r8, {r2, r6}
  40400e:	ddf1      	ble.n	403ff4 <_svfprintf_r+0x3e0>
  404010:	aa25      	add	r2, sp, #148	; 0x94
  404012:	4659      	mov	r1, fp
  404014:	4638      	mov	r0, r7
  404016:	f003 f801 	bl	40701c <__ssprint_r>
  40401a:	2800      	cmp	r0, #0
  40401c:	f47f aecc 	bne.w	403db8 <_svfprintf_r+0x1a4>
  404020:	3d10      	subs	r5, #16
  404022:	2d10      	cmp	r5, #16
  404024:	9c27      	ldr	r4, [sp, #156]	; 0x9c
  404026:	9b26      	ldr	r3, [sp, #152]	; 0x98
  404028:	46c8      	mov	r8, r9
  40402a:	dce8      	bgt.n	403ffe <_svfprintf_r+0x3ea>
  40402c:	3301      	adds	r3, #1
  40402e:	4a53      	ldr	r2, [pc, #332]	; (40417c <_svfprintf_r+0x568>)
  404030:	9326      	str	r3, [sp, #152]	; 0x98
  404032:	442c      	add	r4, r5
  404034:	2b07      	cmp	r3, #7
  404036:	9427      	str	r4, [sp, #156]	; 0x9c
  404038:	e888 0024 	stmia.w	r8, {r2, r5}
  40403c:	dd08      	ble.n	404050 <_svfprintf_r+0x43c>
  40403e:	aa25      	add	r2, sp, #148	; 0x94
  404040:	990b      	ldr	r1, [sp, #44]	; 0x2c
  404042:	980c      	ldr	r0, [sp, #48]	; 0x30
  404044:	f002 ffea 	bl	40701c <__ssprint_r>
  404048:	2800      	cmp	r0, #0
  40404a:	f47f aeb5 	bne.w	403db8 <_svfprintf_r+0x1a4>
  40404e:	9c27      	ldr	r4, [sp, #156]	; 0x9c
  404050:	9b09      	ldr	r3, [sp, #36]	; 0x24
  404052:	9a0d      	ldr	r2, [sp, #52]	; 0x34
  404054:	9908      	ldr	r1, [sp, #32]
  404056:	428a      	cmp	r2, r1
  404058:	bfac      	ite	ge
  40405a:	189b      	addge	r3, r3, r2
  40405c:	185b      	addlt	r3, r3, r1
  40405e:	9309      	str	r3, [sp, #36]	; 0x24
  404060:	2c00      	cmp	r4, #0
  404062:	f040 830d 	bne.w	404680 <_svfprintf_r+0xa6c>
  404066:	2300      	movs	r3, #0
  404068:	9326      	str	r3, [sp, #152]	; 0x98
  40406a:	46c8      	mov	r8, r9
  40406c:	e5f9      	b.n	403c62 <_svfprintf_r+0x4e>
  40406e:	9311      	str	r3, [sp, #68]	; 0x44
  404070:	f01b 0320 	ands.w	r3, fp, #32
  404074:	f040 81e3 	bne.w	40443e <_svfprintf_r+0x82a>
  404078:	f01b 0210 	ands.w	r2, fp, #16
  40407c:	f040 842e 	bne.w	4048dc <_svfprintf_r+0xcc8>
  404080:	f01b 0340 	ands.w	r3, fp, #64	; 0x40
  404084:	f000 842a 	beq.w	4048dc <_svfprintf_r+0xcc8>
  404088:	990f      	ldr	r1, [sp, #60]	; 0x3c
  40408a:	4613      	mov	r3, r2
  40408c:	460a      	mov	r2, r1
  40408e:	3204      	adds	r2, #4
  404090:	880c      	ldrh	r4, [r1, #0]
  404092:	920f      	str	r2, [sp, #60]	; 0x3c
  404094:	2500      	movs	r5, #0
  404096:	e6b0      	b.n	403dfa <_svfprintf_r+0x1e6>
  404098:	9a0f      	ldr	r2, [sp, #60]	; 0x3c
  40409a:	9311      	str	r3, [sp, #68]	; 0x44
  40409c:	6816      	ldr	r6, [r2, #0]
  40409e:	2400      	movs	r4, #0
  4040a0:	f88d 4077 	strb.w	r4, [sp, #119]	; 0x77
  4040a4:	1d15      	adds	r5, r2, #4
  4040a6:	2e00      	cmp	r6, #0
  4040a8:	f000 86a7 	beq.w	404dfa <_svfprintf_r+0x11e6>
  4040ac:	9a0a      	ldr	r2, [sp, #40]	; 0x28
  4040ae:	1c53      	adds	r3, r2, #1
  4040b0:	f000 8609 	beq.w	404cc6 <_svfprintf_r+0x10b2>
  4040b4:	4621      	mov	r1, r4
  4040b6:	4630      	mov	r0, r6
  4040b8:	f002 fa8a 	bl	4065d0 <memchr>
  4040bc:	2800      	cmp	r0, #0
  4040be:	f000 86e1 	beq.w	404e84 <_svfprintf_r+0x1270>
  4040c2:	1b83      	subs	r3, r0, r6
  4040c4:	930e      	str	r3, [sp, #56]	; 0x38
  4040c6:	940a      	str	r4, [sp, #40]	; 0x28
  4040c8:	950f      	str	r5, [sp, #60]	; 0x3c
  4040ca:	f8cd b01c 	str.w	fp, [sp, #28]
  4040ce:	ea23 73e3 	bic.w	r3, r3, r3, asr #31
  4040d2:	9308      	str	r3, [sp, #32]
  4040d4:	9412      	str	r4, [sp, #72]	; 0x48
  4040d6:	f89d 7077 	ldrb.w	r7, [sp, #119]	; 0x77
  4040da:	e6b3      	b.n	403e44 <_svfprintf_r+0x230>
  4040dc:	f89a 3000 	ldrb.w	r3, [sl]
  4040e0:	2201      	movs	r2, #1
  4040e2:	212b      	movs	r1, #43	; 0x2b
  4040e4:	e5ee      	b.n	403cc4 <_svfprintf_r+0xb0>
  4040e6:	f04b 0b20 	orr.w	fp, fp, #32
  4040ea:	f89a 3000 	ldrb.w	r3, [sl]
  4040ee:	e5e9      	b.n	403cc4 <_svfprintf_r+0xb0>
  4040f0:	9311      	str	r3, [sp, #68]	; 0x44
  4040f2:	2a00      	cmp	r2, #0
  4040f4:	f040 8795 	bne.w	405022 <_svfprintf_r+0x140e>
  4040f8:	4b22      	ldr	r3, [pc, #136]	; (404184 <_svfprintf_r+0x570>)
  4040fa:	9318      	str	r3, [sp, #96]	; 0x60
  4040fc:	f01b 0f20 	tst.w	fp, #32
  404100:	f040 8111 	bne.w	404326 <_svfprintf_r+0x712>
  404104:	9a0f      	ldr	r2, [sp, #60]	; 0x3c
  404106:	f01b 0f10 	tst.w	fp, #16
  40410a:	4613      	mov	r3, r2
  40410c:	f040 83e1 	bne.w	4048d2 <_svfprintf_r+0xcbe>
  404110:	f01b 0f40 	tst.w	fp, #64	; 0x40
  404114:	f000 83dd 	beq.w	4048d2 <_svfprintf_r+0xcbe>
  404118:	3304      	adds	r3, #4
  40411a:	8814      	ldrh	r4, [r2, #0]
  40411c:	930f      	str	r3, [sp, #60]	; 0x3c
  40411e:	2500      	movs	r5, #0
  404120:	f01b 0f01 	tst.w	fp, #1
  404124:	f000 810c 	beq.w	404340 <_svfprintf_r+0x72c>
  404128:	ea54 0305 	orrs.w	r3, r4, r5
  40412c:	f000 8108 	beq.w	404340 <_svfprintf_r+0x72c>
  404130:	2330      	movs	r3, #48	; 0x30
  404132:	f89d 2044 	ldrb.w	r2, [sp, #68]	; 0x44
  404136:	f88d 3078 	strb.w	r3, [sp, #120]	; 0x78
  40413a:	f88d 2079 	strb.w	r2, [sp, #121]	; 0x79
  40413e:	f04b 0b02 	orr.w	fp, fp, #2
  404142:	2302      	movs	r3, #2
  404144:	e659      	b.n	403dfa <_svfprintf_r+0x1e6>
  404146:	f89a 3000 	ldrb.w	r3, [sl]
  40414a:	2900      	cmp	r1, #0
  40414c:	f47f adba 	bne.w	403cc4 <_svfprintf_r+0xb0>
  404150:	2201      	movs	r2, #1
  404152:	2120      	movs	r1, #32
  404154:	e5b6      	b.n	403cc4 <_svfprintf_r+0xb0>
  404156:	f04b 0b01 	orr.w	fp, fp, #1
  40415a:	f89a 3000 	ldrb.w	r3, [sl]
  40415e:	e5b1      	b.n	403cc4 <_svfprintf_r+0xb0>
  404160:	9c0f      	ldr	r4, [sp, #60]	; 0x3c
  404162:	6823      	ldr	r3, [r4, #0]
  404164:	930d      	str	r3, [sp, #52]	; 0x34
  404166:	4618      	mov	r0, r3
  404168:	2800      	cmp	r0, #0
  40416a:	4623      	mov	r3, r4
  40416c:	f103 0304 	add.w	r3, r3, #4
  404170:	f6ff ae0a 	blt.w	403d88 <_svfprintf_r+0x174>
  404174:	930f      	str	r3, [sp, #60]	; 0x3c
  404176:	f89a 3000 	ldrb.w	r3, [sl]
  40417a:	e5a3      	b.n	403cc4 <_svfprintf_r+0xb0>
  40417c:	00408f04 	.word	0x00408f04
  404180:	00408f14 	.word	0x00408f14
  404184:	00408ee4 	.word	0x00408ee4
  404188:	f04b 0b10 	orr.w	fp, fp, #16
  40418c:	f01b 0f20 	tst.w	fp, #32
  404190:	9311      	str	r3, [sp, #68]	; 0x44
  404192:	f43f ae23 	beq.w	403ddc <_svfprintf_r+0x1c8>
  404196:	9d0f      	ldr	r5, [sp, #60]	; 0x3c
  404198:	3507      	adds	r5, #7
  40419a:	f025 0307 	bic.w	r3, r5, #7
  40419e:	f103 0208 	add.w	r2, r3, #8
  4041a2:	e9d3 4500 	ldrd	r4, r5, [r3]
  4041a6:	920f      	str	r2, [sp, #60]	; 0x3c
  4041a8:	2301      	movs	r3, #1
  4041aa:	e626      	b.n	403dfa <_svfprintf_r+0x1e6>
  4041ac:	f89a 3000 	ldrb.w	r3, [sl]
  4041b0:	2b2a      	cmp	r3, #42	; 0x2a
  4041b2:	f10a 0401 	add.w	r4, sl, #1
  4041b6:	f000 8727 	beq.w	405008 <_svfprintf_r+0x13f4>
  4041ba:	f1a3 0030 	sub.w	r0, r3, #48	; 0x30
  4041be:	2809      	cmp	r0, #9
  4041c0:	46a2      	mov	sl, r4
  4041c2:	f200 86ad 	bhi.w	404f20 <_svfprintf_r+0x130c>
  4041c6:	2300      	movs	r3, #0
  4041c8:	461c      	mov	r4, r3
  4041ca:	f81a 3b01 	ldrb.w	r3, [sl], #1
  4041ce:	eb04 0484 	add.w	r4, r4, r4, lsl #2
  4041d2:	eb00 0444 	add.w	r4, r0, r4, lsl #1
  4041d6:	f1a3 0030 	sub.w	r0, r3, #48	; 0x30
  4041da:	2809      	cmp	r0, #9
  4041dc:	d9f5      	bls.n	4041ca <_svfprintf_r+0x5b6>
  4041de:	940a      	str	r4, [sp, #40]	; 0x28
  4041e0:	e572      	b.n	403cc8 <_svfprintf_r+0xb4>
  4041e2:	f04b 0b80 	orr.w	fp, fp, #128	; 0x80
  4041e6:	f89a 3000 	ldrb.w	r3, [sl]
  4041ea:	e56b      	b.n	403cc4 <_svfprintf_r+0xb0>
  4041ec:	f04b 0b40 	orr.w	fp, fp, #64	; 0x40
  4041f0:	f89a 3000 	ldrb.w	r3, [sl]
  4041f4:	e566      	b.n	403cc4 <_svfprintf_r+0xb0>
  4041f6:	f89a 3000 	ldrb.w	r3, [sl]
  4041fa:	2b6c      	cmp	r3, #108	; 0x6c
  4041fc:	bf03      	ittte	eq
  4041fe:	f89a 3001 	ldrbeq.w	r3, [sl, #1]
  404202:	f04b 0b20 	orreq.w	fp, fp, #32
  404206:	f10a 0a01 	addeq.w	sl, sl, #1
  40420a:	f04b 0b10 	orrne.w	fp, fp, #16
  40420e:	e559      	b.n	403cc4 <_svfprintf_r+0xb0>
  404210:	2a00      	cmp	r2, #0
  404212:	f040 8711 	bne.w	405038 <_svfprintf_r+0x1424>
  404216:	f01b 0f20 	tst.w	fp, #32
  40421a:	f040 84f9 	bne.w	404c10 <_svfprintf_r+0xffc>
  40421e:	f01b 0f10 	tst.w	fp, #16
  404222:	f040 84ac 	bne.w	404b7e <_svfprintf_r+0xf6a>
  404226:	f01b 0f40 	tst.w	fp, #64	; 0x40
  40422a:	f000 84a8 	beq.w	404b7e <_svfprintf_r+0xf6a>
  40422e:	9a0f      	ldr	r2, [sp, #60]	; 0x3c
  404230:	6813      	ldr	r3, [r2, #0]
  404232:	3204      	adds	r2, #4
  404234:	920f      	str	r2, [sp, #60]	; 0x3c
  404236:	f8bd 2024 	ldrh.w	r2, [sp, #36]	; 0x24
  40423a:	801a      	strh	r2, [r3, #0]
  40423c:	e511      	b.n	403c62 <_svfprintf_r+0x4e>
  40423e:	990f      	ldr	r1, [sp, #60]	; 0x3c
  404240:	4bb3      	ldr	r3, [pc, #716]	; (404510 <_svfprintf_r+0x8fc>)
  404242:	680c      	ldr	r4, [r1, #0]
  404244:	9318      	str	r3, [sp, #96]	; 0x60
  404246:	2230      	movs	r2, #48	; 0x30
  404248:	2378      	movs	r3, #120	; 0x78
  40424a:	3104      	adds	r1, #4
  40424c:	f88d 3079 	strb.w	r3, [sp, #121]	; 0x79
  404250:	9311      	str	r3, [sp, #68]	; 0x44
  404252:	f04b 0b02 	orr.w	fp, fp, #2
  404256:	910f      	str	r1, [sp, #60]	; 0x3c
  404258:	2500      	movs	r5, #0
  40425a:	f88d 2078 	strb.w	r2, [sp, #120]	; 0x78
  40425e:	2302      	movs	r3, #2
  404260:	e5cb      	b.n	403dfa <_svfprintf_r+0x1e6>
  404262:	990f      	ldr	r1, [sp, #60]	; 0x3c
  404264:	9311      	str	r3, [sp, #68]	; 0x44
  404266:	680a      	ldr	r2, [r1, #0]
  404268:	f88d 20a0 	strb.w	r2, [sp, #160]	; 0xa0
  40426c:	2300      	movs	r3, #0
  40426e:	460a      	mov	r2, r1
  404270:	461f      	mov	r7, r3
  404272:	f88d 3077 	strb.w	r3, [sp, #119]	; 0x77
  404276:	3204      	adds	r2, #4
  404278:	2301      	movs	r3, #1
  40427a:	9308      	str	r3, [sp, #32]
  40427c:	f8cd b01c 	str.w	fp, [sp, #28]
  404280:	970a      	str	r7, [sp, #40]	; 0x28
  404282:	9712      	str	r7, [sp, #72]	; 0x48
  404284:	920f      	str	r2, [sp, #60]	; 0x3c
  404286:	930e      	str	r3, [sp, #56]	; 0x38
  404288:	ae28      	add	r6, sp, #160	; 0xa0
  40428a:	e5df      	b.n	403e4c <_svfprintf_r+0x238>
  40428c:	9311      	str	r3, [sp, #68]	; 0x44
  40428e:	2a00      	cmp	r2, #0
  404290:	f040 86ea 	bne.w	405068 <_svfprintf_r+0x1454>
  404294:	f01b 0f20 	tst.w	fp, #32
  404298:	d15d      	bne.n	404356 <_svfprintf_r+0x742>
  40429a:	f01b 0f10 	tst.w	fp, #16
  40429e:	f040 8308 	bne.w	4048b2 <_svfprintf_r+0xc9e>
  4042a2:	f01b 0f40 	tst.w	fp, #64	; 0x40
  4042a6:	f000 8304 	beq.w	4048b2 <_svfprintf_r+0xc9e>
  4042aa:	990f      	ldr	r1, [sp, #60]	; 0x3c
  4042ac:	f9b1 4000 	ldrsh.w	r4, [r1]
  4042b0:	3104      	adds	r1, #4
  4042b2:	17e5      	asrs	r5, r4, #31
  4042b4:	4622      	mov	r2, r4
  4042b6:	462b      	mov	r3, r5
  4042b8:	910f      	str	r1, [sp, #60]	; 0x3c
  4042ba:	2a00      	cmp	r2, #0
  4042bc:	f173 0300 	sbcs.w	r3, r3, #0
  4042c0:	db58      	blt.n	404374 <_svfprintf_r+0x760>
  4042c2:	990a      	ldr	r1, [sp, #40]	; 0x28
  4042c4:	f89d 7077 	ldrb.w	r7, [sp, #119]	; 0x77
  4042c8:	1c4a      	adds	r2, r1, #1
  4042ca:	f04f 0301 	mov.w	r3, #1
  4042ce:	f47f ad9b 	bne.w	403e08 <_svfprintf_r+0x1f4>
  4042d2:	ea54 0205 	orrs.w	r2, r4, r5
  4042d6:	f000 81df 	beq.w	404698 <_svfprintf_r+0xa84>
  4042da:	f8cd b01c 	str.w	fp, [sp, #28]
  4042de:	2b01      	cmp	r3, #1
  4042e0:	f000 827b 	beq.w	4047da <_svfprintf_r+0xbc6>
  4042e4:	2b02      	cmp	r3, #2
  4042e6:	f040 8206 	bne.w	4046f6 <_svfprintf_r+0xae2>
  4042ea:	9818      	ldr	r0, [sp, #96]	; 0x60
  4042ec:	464e      	mov	r6, r9
  4042ee:	0923      	lsrs	r3, r4, #4
  4042f0:	f004 010f 	and.w	r1, r4, #15
  4042f4:	ea43 7305 	orr.w	r3, r3, r5, lsl #28
  4042f8:	092a      	lsrs	r2, r5, #4
  4042fa:	461c      	mov	r4, r3
  4042fc:	4615      	mov	r5, r2
  4042fe:	5c43      	ldrb	r3, [r0, r1]
  404300:	f806 3d01 	strb.w	r3, [r6, #-1]!
  404304:	ea54 0305 	orrs.w	r3, r4, r5
  404308:	d1f1      	bne.n	4042ee <_svfprintf_r+0x6da>
  40430a:	eba9 0306 	sub.w	r3, r9, r6
  40430e:	930e      	str	r3, [sp, #56]	; 0x38
  404310:	e590      	b.n	403e34 <_svfprintf_r+0x220>
  404312:	9311      	str	r3, [sp, #68]	; 0x44
  404314:	2a00      	cmp	r2, #0
  404316:	f040 86a3 	bne.w	405060 <_svfprintf_r+0x144c>
  40431a:	4b7e      	ldr	r3, [pc, #504]	; (404514 <_svfprintf_r+0x900>)
  40431c:	9318      	str	r3, [sp, #96]	; 0x60
  40431e:	f01b 0f20 	tst.w	fp, #32
  404322:	f43f aeef 	beq.w	404104 <_svfprintf_r+0x4f0>
  404326:	9d0f      	ldr	r5, [sp, #60]	; 0x3c
  404328:	3507      	adds	r5, #7
  40432a:	f025 0307 	bic.w	r3, r5, #7
  40432e:	f103 0208 	add.w	r2, r3, #8
  404332:	f01b 0f01 	tst.w	fp, #1
  404336:	920f      	str	r2, [sp, #60]	; 0x3c
  404338:	e9d3 4500 	ldrd	r4, r5, [r3]
  40433c:	f47f aef4 	bne.w	404128 <_svfprintf_r+0x514>
  404340:	2302      	movs	r3, #2
  404342:	e55a      	b.n	403dfa <_svfprintf_r+0x1e6>
  404344:	9311      	str	r3, [sp, #68]	; 0x44
  404346:	2a00      	cmp	r2, #0
  404348:	f040 8686 	bne.w	405058 <_svfprintf_r+0x1444>
  40434c:	f04b 0b10 	orr.w	fp, fp, #16
  404350:	f01b 0f20 	tst.w	fp, #32
  404354:	d0a1      	beq.n	40429a <_svfprintf_r+0x686>
  404356:	9d0f      	ldr	r5, [sp, #60]	; 0x3c
  404358:	3507      	adds	r5, #7
  40435a:	f025 0507 	bic.w	r5, r5, #7
  40435e:	e9d5 2300 	ldrd	r2, r3, [r5]
  404362:	2a00      	cmp	r2, #0
  404364:	f105 0108 	add.w	r1, r5, #8
  404368:	461d      	mov	r5, r3
  40436a:	f173 0300 	sbcs.w	r3, r3, #0
  40436e:	910f      	str	r1, [sp, #60]	; 0x3c
  404370:	4614      	mov	r4, r2
  404372:	daa6      	bge.n	4042c2 <_svfprintf_r+0x6ae>
  404374:	272d      	movs	r7, #45	; 0x2d
  404376:	4264      	negs	r4, r4
  404378:	eb65 0545 	sbc.w	r5, r5, r5, lsl #1
  40437c:	f88d 7077 	strb.w	r7, [sp, #119]	; 0x77
  404380:	2301      	movs	r3, #1
  404382:	e53d      	b.n	403e00 <_svfprintf_r+0x1ec>
  404384:	9311      	str	r3, [sp, #68]	; 0x44
  404386:	2a00      	cmp	r2, #0
  404388:	f040 8662 	bne.w	405050 <_svfprintf_r+0x143c>
  40438c:	9d0f      	ldr	r5, [sp, #60]	; 0x3c
  40438e:	3507      	adds	r5, #7
  404390:	f025 0307 	bic.w	r3, r5, #7
  404394:	f103 0208 	add.w	r2, r3, #8
  404398:	920f      	str	r2, [sp, #60]	; 0x3c
  40439a:	681a      	ldr	r2, [r3, #0]
  40439c:	9215      	str	r2, [sp, #84]	; 0x54
  40439e:	685b      	ldr	r3, [r3, #4]
  4043a0:	9314      	str	r3, [sp, #80]	; 0x50
  4043a2:	9b14      	ldr	r3, [sp, #80]	; 0x50
  4043a4:	9d15      	ldr	r5, [sp, #84]	; 0x54
  4043a6:	f023 4400 	bic.w	r4, r3, #2147483648	; 0x80000000
  4043aa:	4628      	mov	r0, r5
  4043ac:	4621      	mov	r1, r4
  4043ae:	f04f 32ff 	mov.w	r2, #4294967295
  4043b2:	4b59      	ldr	r3, [pc, #356]	; (404518 <_svfprintf_r+0x904>)
  4043b4:	f003 fef8 	bl	4081a8 <__aeabi_dcmpun>
  4043b8:	2800      	cmp	r0, #0
  4043ba:	f040 834a 	bne.w	404a52 <_svfprintf_r+0xe3e>
  4043be:	4628      	mov	r0, r5
  4043c0:	4621      	mov	r1, r4
  4043c2:	f04f 32ff 	mov.w	r2, #4294967295
  4043c6:	4b54      	ldr	r3, [pc, #336]	; (404518 <_svfprintf_r+0x904>)
  4043c8:	f003 fed0 	bl	40816c <__aeabi_dcmple>
  4043cc:	2800      	cmp	r0, #0
  4043ce:	f040 8340 	bne.w	404a52 <_svfprintf_r+0xe3e>
  4043d2:	a815      	add	r0, sp, #84	; 0x54
  4043d4:	c80d      	ldmia	r0, {r0, r2, r3}
  4043d6:	9914      	ldr	r1, [sp, #80]	; 0x50
  4043d8:	f003 febe 	bl	408158 <__aeabi_dcmplt>
  4043dc:	2800      	cmp	r0, #0
  4043de:	f040 8530 	bne.w	404e42 <_svfprintf_r+0x122e>
  4043e2:	f89d 7077 	ldrb.w	r7, [sp, #119]	; 0x77
  4043e6:	4e4d      	ldr	r6, [pc, #308]	; (40451c <_svfprintf_r+0x908>)
  4043e8:	4b4d      	ldr	r3, [pc, #308]	; (404520 <_svfprintf_r+0x90c>)
  4043ea:	f02b 0080 	bic.w	r0, fp, #128	; 0x80
  4043ee:	9007      	str	r0, [sp, #28]
  4043f0:	9811      	ldr	r0, [sp, #68]	; 0x44
  4043f2:	2203      	movs	r2, #3
  4043f4:	2100      	movs	r1, #0
  4043f6:	9208      	str	r2, [sp, #32]
  4043f8:	910a      	str	r1, [sp, #40]	; 0x28
  4043fa:	2847      	cmp	r0, #71	; 0x47
  4043fc:	bfd8      	it	le
  4043fe:	461e      	movle	r6, r3
  404400:	920e      	str	r2, [sp, #56]	; 0x38
  404402:	9112      	str	r1, [sp, #72]	; 0x48
  404404:	e51e      	b.n	403e44 <_svfprintf_r+0x230>
  404406:	f04b 0b08 	orr.w	fp, fp, #8
  40440a:	f89a 3000 	ldrb.w	r3, [sl]
  40440e:	e459      	b.n	403cc4 <_svfprintf_r+0xb0>
  404410:	f1a3 0030 	sub.w	r0, r3, #48	; 0x30
  404414:	2300      	movs	r3, #0
  404416:	461c      	mov	r4, r3
  404418:	f81a 3b01 	ldrb.w	r3, [sl], #1
  40441c:	eb04 0484 	add.w	r4, r4, r4, lsl #2
  404420:	eb00 0444 	add.w	r4, r0, r4, lsl #1
  404424:	f1a3 0030 	sub.w	r0, r3, #48	; 0x30
  404428:	2809      	cmp	r0, #9
  40442a:	d9f5      	bls.n	404418 <_svfprintf_r+0x804>
  40442c:	940d      	str	r4, [sp, #52]	; 0x34
  40442e:	e44b      	b.n	403cc8 <_svfprintf_r+0xb4>
  404430:	f04b 0b10 	orr.w	fp, fp, #16
  404434:	9311      	str	r3, [sp, #68]	; 0x44
  404436:	f01b 0320 	ands.w	r3, fp, #32
  40443a:	f43f ae1d 	beq.w	404078 <_svfprintf_r+0x464>
  40443e:	9d0f      	ldr	r5, [sp, #60]	; 0x3c
  404440:	3507      	adds	r5, #7
  404442:	f025 0307 	bic.w	r3, r5, #7
  404446:	f103 0208 	add.w	r2, r3, #8
  40444a:	e9d3 4500 	ldrd	r4, r5, [r3]
  40444e:	920f      	str	r2, [sp, #60]	; 0x3c
  404450:	2300      	movs	r3, #0
  404452:	e4d2      	b.n	403dfa <_svfprintf_r+0x1e6>
  404454:	9311      	str	r3, [sp, #68]	; 0x44
  404456:	2a00      	cmp	r2, #0
  404458:	f040 85e7 	bne.w	40502a <_svfprintf_r+0x1416>
  40445c:	9a11      	ldr	r2, [sp, #68]	; 0x44
  40445e:	2a00      	cmp	r2, #0
  404460:	f43f aca3 	beq.w	403daa <_svfprintf_r+0x196>
  404464:	2300      	movs	r3, #0
  404466:	2101      	movs	r1, #1
  404468:	461f      	mov	r7, r3
  40446a:	9108      	str	r1, [sp, #32]
  40446c:	f88d 20a0 	strb.w	r2, [sp, #160]	; 0xa0
  404470:	f8cd b01c 	str.w	fp, [sp, #28]
  404474:	f88d 3077 	strb.w	r3, [sp, #119]	; 0x77
  404478:	930a      	str	r3, [sp, #40]	; 0x28
  40447a:	9312      	str	r3, [sp, #72]	; 0x48
  40447c:	910e      	str	r1, [sp, #56]	; 0x38
  40447e:	ae28      	add	r6, sp, #160	; 0xa0
  404480:	e4e4      	b.n	403e4c <_svfprintf_r+0x238>
  404482:	9c27      	ldr	r4, [sp, #156]	; 0x9c
  404484:	e534      	b.n	403ef0 <_svfprintf_r+0x2dc>
  404486:	9b11      	ldr	r3, [sp, #68]	; 0x44
  404488:	2b65      	cmp	r3, #101	; 0x65
  40448a:	f340 80a7 	ble.w	4045dc <_svfprintf_r+0x9c8>
  40448e:	a815      	add	r0, sp, #84	; 0x54
  404490:	c80d      	ldmia	r0, {r0, r2, r3}
  404492:	9914      	ldr	r1, [sp, #80]	; 0x50
  404494:	f003 fe56 	bl	408144 <__aeabi_dcmpeq>
  404498:	2800      	cmp	r0, #0
  40449a:	f000 8150 	beq.w	40473e <_svfprintf_r+0xb2a>
  40449e:	9b26      	ldr	r3, [sp, #152]	; 0x98
  4044a0:	4a20      	ldr	r2, [pc, #128]	; (404524 <_svfprintf_r+0x910>)
  4044a2:	f8c8 2000 	str.w	r2, [r8]
  4044a6:	3301      	adds	r3, #1
  4044a8:	3401      	adds	r4, #1
  4044aa:	2201      	movs	r2, #1
  4044ac:	2b07      	cmp	r3, #7
  4044ae:	9427      	str	r4, [sp, #156]	; 0x9c
  4044b0:	9326      	str	r3, [sp, #152]	; 0x98
  4044b2:	f8c8 2004 	str.w	r2, [r8, #4]
  4044b6:	f300 836a 	bgt.w	404b8e <_svfprintf_r+0xf7a>
  4044ba:	f108 0808 	add.w	r8, r8, #8
  4044be:	9b1f      	ldr	r3, [sp, #124]	; 0x7c
  4044c0:	9a13      	ldr	r2, [sp, #76]	; 0x4c
  4044c2:	9c27      	ldr	r4, [sp, #156]	; 0x9c
  4044c4:	4293      	cmp	r3, r2
  4044c6:	db03      	blt.n	4044d0 <_svfprintf_r+0x8bc>
  4044c8:	9b07      	ldr	r3, [sp, #28]
  4044ca:	07dd      	lsls	r5, r3, #31
  4044cc:	f57f ad82 	bpl.w	403fd4 <_svfprintf_r+0x3c0>
  4044d0:	9b26      	ldr	r3, [sp, #152]	; 0x98
  4044d2:	9919      	ldr	r1, [sp, #100]	; 0x64
  4044d4:	9a1a      	ldr	r2, [sp, #104]	; 0x68
  4044d6:	f8c8 2000 	str.w	r2, [r8]
  4044da:	3301      	adds	r3, #1
  4044dc:	440c      	add	r4, r1
  4044de:	2b07      	cmp	r3, #7
  4044e0:	f8c8 1004 	str.w	r1, [r8, #4]
  4044e4:	9427      	str	r4, [sp, #156]	; 0x9c
  4044e6:	9326      	str	r3, [sp, #152]	; 0x98
  4044e8:	f300 839e 	bgt.w	404c28 <_svfprintf_r+0x1014>
  4044ec:	f108 0808 	add.w	r8, r8, #8
  4044f0:	9b13      	ldr	r3, [sp, #76]	; 0x4c
  4044f2:	1e5e      	subs	r6, r3, #1
  4044f4:	2e00      	cmp	r6, #0
  4044f6:	f77f ad6d 	ble.w	403fd4 <_svfprintf_r+0x3c0>
  4044fa:	2e10      	cmp	r6, #16
  4044fc:	9b26      	ldr	r3, [sp, #152]	; 0x98
  4044fe:	4d0a      	ldr	r5, [pc, #40]	; (404528 <_svfprintf_r+0x914>)
  404500:	f340 81f5 	ble.w	4048ee <_svfprintf_r+0xcda>
  404504:	4622      	mov	r2, r4
  404506:	2710      	movs	r7, #16
  404508:	f8dd b030 	ldr.w	fp, [sp, #48]	; 0x30
  40450c:	9c0b      	ldr	r4, [sp, #44]	; 0x2c
  40450e:	e013      	b.n	404538 <_svfprintf_r+0x924>
  404510:	00408ee4 	.word	0x00408ee4
  404514:	00408ed0 	.word	0x00408ed0
  404518:	7fefffff 	.word	0x7fefffff
  40451c:	00408ec4 	.word	0x00408ec4
  404520:	00408ec0 	.word	0x00408ec0
  404524:	00408f00 	.word	0x00408f00
  404528:	00408f14 	.word	0x00408f14
  40452c:	f108 0808 	add.w	r8, r8, #8
  404530:	3e10      	subs	r6, #16
  404532:	2e10      	cmp	r6, #16
  404534:	f340 81da 	ble.w	4048ec <_svfprintf_r+0xcd8>
  404538:	3301      	adds	r3, #1
  40453a:	3210      	adds	r2, #16
  40453c:	2b07      	cmp	r3, #7
  40453e:	9227      	str	r2, [sp, #156]	; 0x9c
  404540:	9326      	str	r3, [sp, #152]	; 0x98
  404542:	e888 00a0 	stmia.w	r8, {r5, r7}
  404546:	ddf1      	ble.n	40452c <_svfprintf_r+0x918>
  404548:	aa25      	add	r2, sp, #148	; 0x94
  40454a:	4621      	mov	r1, r4
  40454c:	4658      	mov	r0, fp
  40454e:	f002 fd65 	bl	40701c <__ssprint_r>
  404552:	2800      	cmp	r0, #0
  404554:	f47f ac30 	bne.w	403db8 <_svfprintf_r+0x1a4>
  404558:	9a27      	ldr	r2, [sp, #156]	; 0x9c
  40455a:	9b26      	ldr	r3, [sp, #152]	; 0x98
  40455c:	46c8      	mov	r8, r9
  40455e:	e7e7      	b.n	404530 <_svfprintf_r+0x91c>
  404560:	9b0d      	ldr	r3, [sp, #52]	; 0x34
  404562:	9a08      	ldr	r2, [sp, #32]
  404564:	1a9f      	subs	r7, r3, r2
  404566:	2f00      	cmp	r7, #0
  404568:	f77f ace5 	ble.w	403f36 <_svfprintf_r+0x322>
  40456c:	2f10      	cmp	r7, #16
  40456e:	9b26      	ldr	r3, [sp, #152]	; 0x98
  404570:	4db6      	ldr	r5, [pc, #728]	; (40484c <_svfprintf_r+0xc38>)
  404572:	dd27      	ble.n	4045c4 <_svfprintf_r+0x9b0>
  404574:	4642      	mov	r2, r8
  404576:	4621      	mov	r1, r4
  404578:	46b0      	mov	r8, r6
  40457a:	f04f 0b10 	mov.w	fp, #16
  40457e:	462e      	mov	r6, r5
  404580:	9c0c      	ldr	r4, [sp, #48]	; 0x30
  404582:	9d0b      	ldr	r5, [sp, #44]	; 0x2c
  404584:	e004      	b.n	404590 <_svfprintf_r+0x97c>
  404586:	3f10      	subs	r7, #16
  404588:	2f10      	cmp	r7, #16
  40458a:	f102 0208 	add.w	r2, r2, #8
  40458e:	dd15      	ble.n	4045bc <_svfprintf_r+0x9a8>
  404590:	3301      	adds	r3, #1
  404592:	3110      	adds	r1, #16
  404594:	2b07      	cmp	r3, #7
  404596:	9127      	str	r1, [sp, #156]	; 0x9c
  404598:	9326      	str	r3, [sp, #152]	; 0x98
  40459a:	e882 0840 	stmia.w	r2, {r6, fp}
  40459e:	ddf2      	ble.n	404586 <_svfprintf_r+0x972>
  4045a0:	aa25      	add	r2, sp, #148	; 0x94
  4045a2:	4629      	mov	r1, r5
  4045a4:	4620      	mov	r0, r4
  4045a6:	f002 fd39 	bl	40701c <__ssprint_r>
  4045aa:	2800      	cmp	r0, #0
  4045ac:	f47f ac04 	bne.w	403db8 <_svfprintf_r+0x1a4>
  4045b0:	3f10      	subs	r7, #16
  4045b2:	2f10      	cmp	r7, #16
  4045b4:	9927      	ldr	r1, [sp, #156]	; 0x9c
  4045b6:	9b26      	ldr	r3, [sp, #152]	; 0x98
  4045b8:	464a      	mov	r2, r9
  4045ba:	dce9      	bgt.n	404590 <_svfprintf_r+0x97c>
  4045bc:	4635      	mov	r5, r6
  4045be:	460c      	mov	r4, r1
  4045c0:	4646      	mov	r6, r8
  4045c2:	4690      	mov	r8, r2
  4045c4:	3301      	adds	r3, #1
  4045c6:	443c      	add	r4, r7
  4045c8:	2b07      	cmp	r3, #7
  4045ca:	9427      	str	r4, [sp, #156]	; 0x9c
  4045cc:	9326      	str	r3, [sp, #152]	; 0x98
  4045ce:	e888 00a0 	stmia.w	r8, {r5, r7}
  4045d2:	f300 8232 	bgt.w	404a3a <_svfprintf_r+0xe26>
  4045d6:	f108 0808 	add.w	r8, r8, #8
  4045da:	e4ac      	b.n	403f36 <_svfprintf_r+0x322>
  4045dc:	9b13      	ldr	r3, [sp, #76]	; 0x4c
  4045de:	9f26      	ldr	r7, [sp, #152]	; 0x98
  4045e0:	2b01      	cmp	r3, #1
  4045e2:	f340 81fe 	ble.w	4049e2 <_svfprintf_r+0xdce>
  4045e6:	3701      	adds	r7, #1
  4045e8:	3401      	adds	r4, #1
  4045ea:	2301      	movs	r3, #1
  4045ec:	2f07      	cmp	r7, #7
  4045ee:	9427      	str	r4, [sp, #156]	; 0x9c
  4045f0:	9726      	str	r7, [sp, #152]	; 0x98
  4045f2:	f8c8 6000 	str.w	r6, [r8]
  4045f6:	f8c8 3004 	str.w	r3, [r8, #4]
  4045fa:	f300 8203 	bgt.w	404a04 <_svfprintf_r+0xdf0>
  4045fe:	f108 0808 	add.w	r8, r8, #8
  404602:	9a19      	ldr	r2, [sp, #100]	; 0x64
  404604:	9b1a      	ldr	r3, [sp, #104]	; 0x68
  404606:	f8c8 3000 	str.w	r3, [r8]
  40460a:	3701      	adds	r7, #1
  40460c:	4414      	add	r4, r2
  40460e:	2f07      	cmp	r7, #7
  404610:	9427      	str	r4, [sp, #156]	; 0x9c
  404612:	9726      	str	r7, [sp, #152]	; 0x98
  404614:	f8c8 2004 	str.w	r2, [r8, #4]
  404618:	f300 8200 	bgt.w	404a1c <_svfprintf_r+0xe08>
  40461c:	f108 0808 	add.w	r8, r8, #8
  404620:	a815      	add	r0, sp, #84	; 0x54
  404622:	c80d      	ldmia	r0, {r0, r2, r3}
  404624:	9914      	ldr	r1, [sp, #80]	; 0x50
  404626:	f003 fd8d 	bl	408144 <__aeabi_dcmpeq>
  40462a:	9b13      	ldr	r3, [sp, #76]	; 0x4c
  40462c:	2800      	cmp	r0, #0
  40462e:	f040 8101 	bne.w	404834 <_svfprintf_r+0xc20>
  404632:	3b01      	subs	r3, #1
  404634:	3701      	adds	r7, #1
  404636:	3601      	adds	r6, #1
  404638:	441c      	add	r4, r3
  40463a:	2f07      	cmp	r7, #7
  40463c:	9726      	str	r7, [sp, #152]	; 0x98
  40463e:	9427      	str	r4, [sp, #156]	; 0x9c
  404640:	f8c8 6000 	str.w	r6, [r8]
  404644:	f8c8 3004 	str.w	r3, [r8, #4]
  404648:	f300 8127 	bgt.w	40489a <_svfprintf_r+0xc86>
  40464c:	f108 0808 	add.w	r8, r8, #8
  404650:	9a1b      	ldr	r2, [sp, #108]	; 0x6c
  404652:	f8c8 2004 	str.w	r2, [r8, #4]
  404656:	3701      	adds	r7, #1
  404658:	4414      	add	r4, r2
  40465a:	ab21      	add	r3, sp, #132	; 0x84
  40465c:	2f07      	cmp	r7, #7
  40465e:	9427      	str	r4, [sp, #156]	; 0x9c
  404660:	9726      	str	r7, [sp, #152]	; 0x98
  404662:	f8c8 3000 	str.w	r3, [r8]
  404666:	f77f acb3 	ble.w	403fd0 <_svfprintf_r+0x3bc>
  40466a:	aa25      	add	r2, sp, #148	; 0x94
  40466c:	990b      	ldr	r1, [sp, #44]	; 0x2c
  40466e:	980c      	ldr	r0, [sp, #48]	; 0x30
  404670:	f002 fcd4 	bl	40701c <__ssprint_r>
  404674:	2800      	cmp	r0, #0
  404676:	f47f ab9f 	bne.w	403db8 <_svfprintf_r+0x1a4>
  40467a:	9c27      	ldr	r4, [sp, #156]	; 0x9c
  40467c:	46c8      	mov	r8, r9
  40467e:	e4a9      	b.n	403fd4 <_svfprintf_r+0x3c0>
  404680:	aa25      	add	r2, sp, #148	; 0x94
  404682:	990b      	ldr	r1, [sp, #44]	; 0x2c
  404684:	980c      	ldr	r0, [sp, #48]	; 0x30
  404686:	f002 fcc9 	bl	40701c <__ssprint_r>
  40468a:	2800      	cmp	r0, #0
  40468c:	f43f aceb 	beq.w	404066 <_svfprintf_r+0x452>
  404690:	f7ff bb92 	b.w	403db8 <_svfprintf_r+0x1a4>
  404694:	f8dd b01c 	ldr.w	fp, [sp, #28]
  404698:	2b01      	cmp	r3, #1
  40469a:	f000 8134 	beq.w	404906 <_svfprintf_r+0xcf2>
  40469e:	2b02      	cmp	r3, #2
  4046a0:	d125      	bne.n	4046ee <_svfprintf_r+0xada>
  4046a2:	f8cd b01c 	str.w	fp, [sp, #28]
  4046a6:	2400      	movs	r4, #0
  4046a8:	2500      	movs	r5, #0
  4046aa:	e61e      	b.n	4042ea <_svfprintf_r+0x6d6>
  4046ac:	aa25      	add	r2, sp, #148	; 0x94
  4046ae:	990b      	ldr	r1, [sp, #44]	; 0x2c
  4046b0:	980c      	ldr	r0, [sp, #48]	; 0x30
  4046b2:	f002 fcb3 	bl	40701c <__ssprint_r>
  4046b6:	2800      	cmp	r0, #0
  4046b8:	f47f ab7e 	bne.w	403db8 <_svfprintf_r+0x1a4>
  4046bc:	9c27      	ldr	r4, [sp, #156]	; 0x9c
  4046be:	46c8      	mov	r8, r9
  4046c0:	e475      	b.n	403fae <_svfprintf_r+0x39a>
  4046c2:	aa25      	add	r2, sp, #148	; 0x94
  4046c4:	990b      	ldr	r1, [sp, #44]	; 0x2c
  4046c6:	980c      	ldr	r0, [sp, #48]	; 0x30
  4046c8:	f002 fca8 	bl	40701c <__ssprint_r>
  4046cc:	2800      	cmp	r0, #0
  4046ce:	f47f ab73 	bne.w	403db8 <_svfprintf_r+0x1a4>
  4046d2:	9c27      	ldr	r4, [sp, #156]	; 0x9c
  4046d4:	46c8      	mov	r8, r9
  4046d6:	e41b      	b.n	403f10 <_svfprintf_r+0x2fc>
  4046d8:	aa25      	add	r2, sp, #148	; 0x94
  4046da:	990b      	ldr	r1, [sp, #44]	; 0x2c
  4046dc:	980c      	ldr	r0, [sp, #48]	; 0x30
  4046de:	f002 fc9d 	bl	40701c <__ssprint_r>
  4046e2:	2800      	cmp	r0, #0
  4046e4:	f47f ab68 	bne.w	403db8 <_svfprintf_r+0x1a4>
  4046e8:	9c27      	ldr	r4, [sp, #156]	; 0x9c
  4046ea:	46c8      	mov	r8, r9
  4046ec:	e420      	b.n	403f30 <_svfprintf_r+0x31c>
  4046ee:	f8cd b01c 	str.w	fp, [sp, #28]
  4046f2:	2400      	movs	r4, #0
  4046f4:	2500      	movs	r5, #0
  4046f6:	4649      	mov	r1, r9
  4046f8:	e000      	b.n	4046fc <_svfprintf_r+0xae8>
  4046fa:	4631      	mov	r1, r6
  4046fc:	08e2      	lsrs	r2, r4, #3
  4046fe:	ea42 7245 	orr.w	r2, r2, r5, lsl #29
  404702:	08e8      	lsrs	r0, r5, #3
  404704:	f004 0307 	and.w	r3, r4, #7
  404708:	4605      	mov	r5, r0
  40470a:	4614      	mov	r4, r2
  40470c:	3330      	adds	r3, #48	; 0x30
  40470e:	ea54 0205 	orrs.w	r2, r4, r5
  404712:	f801 3c01 	strb.w	r3, [r1, #-1]
  404716:	f101 36ff 	add.w	r6, r1, #4294967295
  40471a:	d1ee      	bne.n	4046fa <_svfprintf_r+0xae6>
  40471c:	9a07      	ldr	r2, [sp, #28]
  40471e:	07d2      	lsls	r2, r2, #31
  404720:	f57f adf3 	bpl.w	40430a <_svfprintf_r+0x6f6>
  404724:	2b30      	cmp	r3, #48	; 0x30
  404726:	f43f adf0 	beq.w	40430a <_svfprintf_r+0x6f6>
  40472a:	3902      	subs	r1, #2
  40472c:	2330      	movs	r3, #48	; 0x30
  40472e:	f806 3c01 	strb.w	r3, [r6, #-1]
  404732:	eba9 0301 	sub.w	r3, r9, r1
  404736:	930e      	str	r3, [sp, #56]	; 0x38
  404738:	460e      	mov	r6, r1
  40473a:	f7ff bb7b 	b.w	403e34 <_svfprintf_r+0x220>
  40473e:	991f      	ldr	r1, [sp, #124]	; 0x7c
  404740:	2900      	cmp	r1, #0
  404742:	f340 822e 	ble.w	404ba2 <_svfprintf_r+0xf8e>
  404746:	9b12      	ldr	r3, [sp, #72]	; 0x48
  404748:	9a13      	ldr	r2, [sp, #76]	; 0x4c
  40474a:	4293      	cmp	r3, r2
  40474c:	bfa8      	it	ge
  40474e:	4613      	movge	r3, r2
  404750:	2b00      	cmp	r3, #0
  404752:	461f      	mov	r7, r3
  404754:	dd0d      	ble.n	404772 <_svfprintf_r+0xb5e>
  404756:	9b26      	ldr	r3, [sp, #152]	; 0x98
  404758:	f8c8 6000 	str.w	r6, [r8]
  40475c:	3301      	adds	r3, #1
  40475e:	443c      	add	r4, r7
  404760:	2b07      	cmp	r3, #7
  404762:	9427      	str	r4, [sp, #156]	; 0x9c
  404764:	f8c8 7004 	str.w	r7, [r8, #4]
  404768:	9326      	str	r3, [sp, #152]	; 0x98
  40476a:	f300 831f 	bgt.w	404dac <_svfprintf_r+0x1198>
  40476e:	f108 0808 	add.w	r8, r8, #8
  404772:	9b12      	ldr	r3, [sp, #72]	; 0x48
  404774:	2f00      	cmp	r7, #0
  404776:	bfa8      	it	ge
  404778:	1bdb      	subge	r3, r3, r7
  40477a:	2b00      	cmp	r3, #0
  40477c:	461f      	mov	r7, r3
  40477e:	f340 80d6 	ble.w	40492e <_svfprintf_r+0xd1a>
  404782:	2f10      	cmp	r7, #16
  404784:	9b26      	ldr	r3, [sp, #152]	; 0x98
  404786:	4d31      	ldr	r5, [pc, #196]	; (40484c <_svfprintf_r+0xc38>)
  404788:	f340 81ed 	ble.w	404b66 <_svfprintf_r+0xf52>
  40478c:	4642      	mov	r2, r8
  40478e:	4621      	mov	r1, r4
  404790:	46b0      	mov	r8, r6
  404792:	f04f 0b10 	mov.w	fp, #16
  404796:	462e      	mov	r6, r5
  404798:	9c0c      	ldr	r4, [sp, #48]	; 0x30
  40479a:	9d0b      	ldr	r5, [sp, #44]	; 0x2c
  40479c:	e004      	b.n	4047a8 <_svfprintf_r+0xb94>
  40479e:	3208      	adds	r2, #8
  4047a0:	3f10      	subs	r7, #16
  4047a2:	2f10      	cmp	r7, #16
  4047a4:	f340 81db 	ble.w	404b5e <_svfprintf_r+0xf4a>
  4047a8:	3301      	adds	r3, #1
  4047aa:	3110      	adds	r1, #16
  4047ac:	2b07      	cmp	r3, #7
  4047ae:	9127      	str	r1, [sp, #156]	; 0x9c
  4047b0:	9326      	str	r3, [sp, #152]	; 0x98
  4047b2:	e882 0840 	stmia.w	r2, {r6, fp}
  4047b6:	ddf2      	ble.n	40479e <_svfprintf_r+0xb8a>
  4047b8:	aa25      	add	r2, sp, #148	; 0x94
  4047ba:	4629      	mov	r1, r5
  4047bc:	4620      	mov	r0, r4
  4047be:	f002 fc2d 	bl	40701c <__ssprint_r>
  4047c2:	2800      	cmp	r0, #0
  4047c4:	f47f aaf8 	bne.w	403db8 <_svfprintf_r+0x1a4>
  4047c8:	9927      	ldr	r1, [sp, #156]	; 0x9c
  4047ca:	9b26      	ldr	r3, [sp, #152]	; 0x98
  4047cc:	464a      	mov	r2, r9
  4047ce:	e7e7      	b.n	4047a0 <_svfprintf_r+0xb8c>
  4047d0:	9b0a      	ldr	r3, [sp, #40]	; 0x28
  4047d2:	930e      	str	r3, [sp, #56]	; 0x38
  4047d4:	464e      	mov	r6, r9
  4047d6:	f7ff bb2d 	b.w	403e34 <_svfprintf_r+0x220>
  4047da:	2d00      	cmp	r5, #0
  4047dc:	bf08      	it	eq
  4047de:	2c0a      	cmpeq	r4, #10
  4047e0:	f0c0 808f 	bcc.w	404902 <_svfprintf_r+0xcee>
  4047e4:	464e      	mov	r6, r9
  4047e6:	4620      	mov	r0, r4
  4047e8:	4629      	mov	r1, r5
  4047ea:	220a      	movs	r2, #10
  4047ec:	2300      	movs	r3, #0
  4047ee:	f7fe fd89 	bl	403304 <__aeabi_uldivmod>
  4047f2:	3230      	adds	r2, #48	; 0x30
  4047f4:	f806 2d01 	strb.w	r2, [r6, #-1]!
  4047f8:	4620      	mov	r0, r4
  4047fa:	4629      	mov	r1, r5
  4047fc:	2300      	movs	r3, #0
  4047fe:	220a      	movs	r2, #10
  404800:	f7fe fd80 	bl	403304 <__aeabi_uldivmod>
  404804:	4604      	mov	r4, r0
  404806:	460d      	mov	r5, r1
  404808:	ea54 0305 	orrs.w	r3, r4, r5
  40480c:	d1eb      	bne.n	4047e6 <_svfprintf_r+0xbd2>
  40480e:	eba9 0306 	sub.w	r3, r9, r6
  404812:	930e      	str	r3, [sp, #56]	; 0x38
  404814:	f7ff bb0e 	b.w	403e34 <_svfprintf_r+0x220>
  404818:	aa25      	add	r2, sp, #148	; 0x94
  40481a:	990b      	ldr	r1, [sp, #44]	; 0x2c
  40481c:	980c      	ldr	r0, [sp, #48]	; 0x30
  40481e:	f002 fbfd 	bl	40701c <__ssprint_r>
  404822:	2800      	cmp	r0, #0
  404824:	f47f aac8 	bne.w	403db8 <_svfprintf_r+0x1a4>
  404828:	f89d 7077 	ldrb.w	r7, [sp, #119]	; 0x77
  40482c:	9c27      	ldr	r4, [sp, #156]	; 0x9c
  40482e:	46c8      	mov	r8, r9
  404830:	f7ff bb5e 	b.w	403ef0 <_svfprintf_r+0x2dc>
  404834:	1e5e      	subs	r6, r3, #1
  404836:	2e00      	cmp	r6, #0
  404838:	f77f af0a 	ble.w	404650 <_svfprintf_r+0xa3c>
  40483c:	2e10      	cmp	r6, #16
  40483e:	4d03      	ldr	r5, [pc, #12]	; (40484c <_svfprintf_r+0xc38>)
  404840:	dd22      	ble.n	404888 <_svfprintf_r+0xc74>
  404842:	4622      	mov	r2, r4
  404844:	f04f 0b10 	mov.w	fp, #16
  404848:	9c0c      	ldr	r4, [sp, #48]	; 0x30
  40484a:	e006      	b.n	40485a <_svfprintf_r+0xc46>
  40484c:	00408f14 	.word	0x00408f14
  404850:	3e10      	subs	r6, #16
  404852:	2e10      	cmp	r6, #16
  404854:	f108 0808 	add.w	r8, r8, #8
  404858:	dd15      	ble.n	404886 <_svfprintf_r+0xc72>
  40485a:	3701      	adds	r7, #1
  40485c:	3210      	adds	r2, #16
  40485e:	2f07      	cmp	r7, #7
  404860:	9227      	str	r2, [sp, #156]	; 0x9c
  404862:	9726      	str	r7, [sp, #152]	; 0x98
  404864:	e888 0820 	stmia.w	r8, {r5, fp}
  404868:	ddf2      	ble.n	404850 <_svfprintf_r+0xc3c>
  40486a:	aa25      	add	r2, sp, #148	; 0x94
  40486c:	990b      	ldr	r1, [sp, #44]	; 0x2c
  40486e:	4620      	mov	r0, r4
  404870:	f002 fbd4 	bl	40701c <__ssprint_r>
  404874:	2800      	cmp	r0, #0
  404876:	f47f aa9f 	bne.w	403db8 <_svfprintf_r+0x1a4>
  40487a:	3e10      	subs	r6, #16
  40487c:	2e10      	cmp	r6, #16
  40487e:	9a27      	ldr	r2, [sp, #156]	; 0x9c
  404880:	9f26      	ldr	r7, [sp, #152]	; 0x98
  404882:	46c8      	mov	r8, r9
  404884:	dce9      	bgt.n	40485a <_svfprintf_r+0xc46>
  404886:	4614      	mov	r4, r2
  404888:	3701      	adds	r7, #1
  40488a:	4434      	add	r4, r6
  40488c:	2f07      	cmp	r7, #7
  40488e:	9427      	str	r4, [sp, #156]	; 0x9c
  404890:	9726      	str	r7, [sp, #152]	; 0x98
  404892:	e888 0060 	stmia.w	r8, {r5, r6}
  404896:	f77f aed9 	ble.w	40464c <_svfprintf_r+0xa38>
  40489a:	aa25      	add	r2, sp, #148	; 0x94
  40489c:	990b      	ldr	r1, [sp, #44]	; 0x2c
  40489e:	980c      	ldr	r0, [sp, #48]	; 0x30
  4048a0:	f002 fbbc 	bl	40701c <__ssprint_r>
  4048a4:	2800      	cmp	r0, #0
  4048a6:	f47f aa87 	bne.w	403db8 <_svfprintf_r+0x1a4>
  4048aa:	9c27      	ldr	r4, [sp, #156]	; 0x9c
  4048ac:	9f26      	ldr	r7, [sp, #152]	; 0x98
  4048ae:	46c8      	mov	r8, r9
  4048b0:	e6ce      	b.n	404650 <_svfprintf_r+0xa3c>
  4048b2:	9a0f      	ldr	r2, [sp, #60]	; 0x3c
  4048b4:	6814      	ldr	r4, [r2, #0]
  4048b6:	4613      	mov	r3, r2
  4048b8:	3304      	adds	r3, #4
  4048ba:	17e5      	asrs	r5, r4, #31
  4048bc:	930f      	str	r3, [sp, #60]	; 0x3c
  4048be:	4622      	mov	r2, r4
  4048c0:	462b      	mov	r3, r5
  4048c2:	e4fa      	b.n	4042ba <_svfprintf_r+0x6a6>
  4048c4:	3204      	adds	r2, #4
  4048c6:	681c      	ldr	r4, [r3, #0]
  4048c8:	920f      	str	r2, [sp, #60]	; 0x3c
  4048ca:	2301      	movs	r3, #1
  4048cc:	2500      	movs	r5, #0
  4048ce:	f7ff ba94 	b.w	403dfa <_svfprintf_r+0x1e6>
  4048d2:	681c      	ldr	r4, [r3, #0]
  4048d4:	3304      	adds	r3, #4
  4048d6:	930f      	str	r3, [sp, #60]	; 0x3c
  4048d8:	2500      	movs	r5, #0
  4048da:	e421      	b.n	404120 <_svfprintf_r+0x50c>
  4048dc:	990f      	ldr	r1, [sp, #60]	; 0x3c
  4048de:	460a      	mov	r2, r1
  4048e0:	3204      	adds	r2, #4
  4048e2:	680c      	ldr	r4, [r1, #0]
  4048e4:	920f      	str	r2, [sp, #60]	; 0x3c
  4048e6:	2500      	movs	r5, #0
  4048e8:	f7ff ba87 	b.w	403dfa <_svfprintf_r+0x1e6>
  4048ec:	4614      	mov	r4, r2
  4048ee:	3301      	adds	r3, #1
  4048f0:	4434      	add	r4, r6
  4048f2:	2b07      	cmp	r3, #7
  4048f4:	9427      	str	r4, [sp, #156]	; 0x9c
  4048f6:	9326      	str	r3, [sp, #152]	; 0x98
  4048f8:	e888 0060 	stmia.w	r8, {r5, r6}
  4048fc:	f77f ab68 	ble.w	403fd0 <_svfprintf_r+0x3bc>
  404900:	e6b3      	b.n	40466a <_svfprintf_r+0xa56>
  404902:	f8dd b01c 	ldr.w	fp, [sp, #28]
  404906:	f8cd b01c 	str.w	fp, [sp, #28]
  40490a:	ae42      	add	r6, sp, #264	; 0x108
  40490c:	3430      	adds	r4, #48	; 0x30
  40490e:	2301      	movs	r3, #1
  404910:	f806 4d41 	strb.w	r4, [r6, #-65]!
  404914:	930e      	str	r3, [sp, #56]	; 0x38
  404916:	f7ff ba8d 	b.w	403e34 <_svfprintf_r+0x220>
  40491a:	aa25      	add	r2, sp, #148	; 0x94
  40491c:	990b      	ldr	r1, [sp, #44]	; 0x2c
  40491e:	980c      	ldr	r0, [sp, #48]	; 0x30
  404920:	f002 fb7c 	bl	40701c <__ssprint_r>
  404924:	2800      	cmp	r0, #0
  404926:	f47f aa47 	bne.w	403db8 <_svfprintf_r+0x1a4>
  40492a:	9c27      	ldr	r4, [sp, #156]	; 0x9c
  40492c:	46c8      	mov	r8, r9
  40492e:	9a1f      	ldr	r2, [sp, #124]	; 0x7c
  404930:	9b13      	ldr	r3, [sp, #76]	; 0x4c
  404932:	429a      	cmp	r2, r3
  404934:	db44      	blt.n	4049c0 <_svfprintf_r+0xdac>
  404936:	9b07      	ldr	r3, [sp, #28]
  404938:	07d9      	lsls	r1, r3, #31
  40493a:	d441      	bmi.n	4049c0 <_svfprintf_r+0xdac>
  40493c:	9b13      	ldr	r3, [sp, #76]	; 0x4c
  40493e:	9812      	ldr	r0, [sp, #72]	; 0x48
  404940:	1a9a      	subs	r2, r3, r2
  404942:	1a1d      	subs	r5, r3, r0
  404944:	4295      	cmp	r5, r2
  404946:	bfa8      	it	ge
  404948:	4615      	movge	r5, r2
  40494a:	2d00      	cmp	r5, #0
  40494c:	dd0e      	ble.n	40496c <_svfprintf_r+0xd58>
  40494e:	9926      	ldr	r1, [sp, #152]	; 0x98
  404950:	f8c8 5004 	str.w	r5, [r8, #4]
  404954:	3101      	adds	r1, #1
  404956:	4406      	add	r6, r0
  404958:	442c      	add	r4, r5
  40495a:	2907      	cmp	r1, #7
  40495c:	f8c8 6000 	str.w	r6, [r8]
  404960:	9427      	str	r4, [sp, #156]	; 0x9c
  404962:	9126      	str	r1, [sp, #152]	; 0x98
  404964:	f300 823b 	bgt.w	404dde <_svfprintf_r+0x11ca>
  404968:	f108 0808 	add.w	r8, r8, #8
  40496c:	2d00      	cmp	r5, #0
  40496e:	bfac      	ite	ge
  404970:	1b56      	subge	r6, r2, r5
  404972:	4616      	movlt	r6, r2
  404974:	2e00      	cmp	r6, #0
  404976:	f77f ab2d 	ble.w	403fd4 <_svfprintf_r+0x3c0>
  40497a:	2e10      	cmp	r6, #16
  40497c:	9b26      	ldr	r3, [sp, #152]	; 0x98
  40497e:	4db0      	ldr	r5, [pc, #704]	; (404c40 <_svfprintf_r+0x102c>)
  404980:	ddb5      	ble.n	4048ee <_svfprintf_r+0xcda>
  404982:	4622      	mov	r2, r4
  404984:	2710      	movs	r7, #16
  404986:	f8dd b030 	ldr.w	fp, [sp, #48]	; 0x30
  40498a:	9c0b      	ldr	r4, [sp, #44]	; 0x2c
  40498c:	e004      	b.n	404998 <_svfprintf_r+0xd84>
  40498e:	f108 0808 	add.w	r8, r8, #8
  404992:	3e10      	subs	r6, #16
  404994:	2e10      	cmp	r6, #16
  404996:	dda9      	ble.n	4048ec <_svfprintf_r+0xcd8>
  404998:	3301      	adds	r3, #1
  40499a:	3210      	adds	r2, #16
  40499c:	2b07      	cmp	r3, #7
  40499e:	9227      	str	r2, [sp, #156]	; 0x9c
  4049a0:	9326      	str	r3, [sp, #152]	; 0x98
  4049a2:	e888 00a0 	stmia.w	r8, {r5, r7}
  4049a6:	ddf2      	ble.n	40498e <_svfprintf_r+0xd7a>
  4049a8:	aa25      	add	r2, sp, #148	; 0x94
  4049aa:	4621      	mov	r1, r4
  4049ac:	4658      	mov	r0, fp
  4049ae:	f002 fb35 	bl	40701c <__ssprint_r>
  4049b2:	2800      	cmp	r0, #0
  4049b4:	f47f aa00 	bne.w	403db8 <_svfprintf_r+0x1a4>
  4049b8:	9a27      	ldr	r2, [sp, #156]	; 0x9c
  4049ba:	9b26      	ldr	r3, [sp, #152]	; 0x98
  4049bc:	46c8      	mov	r8, r9
  4049be:	e7e8      	b.n	404992 <_svfprintf_r+0xd7e>
  4049c0:	9b26      	ldr	r3, [sp, #152]	; 0x98
  4049c2:	9819      	ldr	r0, [sp, #100]	; 0x64
  4049c4:	991a      	ldr	r1, [sp, #104]	; 0x68
  4049c6:	f8c8 1000 	str.w	r1, [r8]
  4049ca:	3301      	adds	r3, #1
  4049cc:	4404      	add	r4, r0
  4049ce:	2b07      	cmp	r3, #7
  4049d0:	9427      	str	r4, [sp, #156]	; 0x9c
  4049d2:	f8c8 0004 	str.w	r0, [r8, #4]
  4049d6:	9326      	str	r3, [sp, #152]	; 0x98
  4049d8:	f300 81f5 	bgt.w	404dc6 <_svfprintf_r+0x11b2>
  4049dc:	f108 0808 	add.w	r8, r8, #8
  4049e0:	e7ac      	b.n	40493c <_svfprintf_r+0xd28>
  4049e2:	9b07      	ldr	r3, [sp, #28]
  4049e4:	07da      	lsls	r2, r3, #31
  4049e6:	f53f adfe 	bmi.w	4045e6 <_svfprintf_r+0x9d2>
  4049ea:	3701      	adds	r7, #1
  4049ec:	3401      	adds	r4, #1
  4049ee:	2301      	movs	r3, #1
  4049f0:	2f07      	cmp	r7, #7
  4049f2:	9427      	str	r4, [sp, #156]	; 0x9c
  4049f4:	9726      	str	r7, [sp, #152]	; 0x98
  4049f6:	f8c8 6000 	str.w	r6, [r8]
  4049fa:	f8c8 3004 	str.w	r3, [r8, #4]
  4049fe:	f77f ae25 	ble.w	40464c <_svfprintf_r+0xa38>
  404a02:	e74a      	b.n	40489a <_svfprintf_r+0xc86>
  404a04:	aa25      	add	r2, sp, #148	; 0x94
  404a06:	990b      	ldr	r1, [sp, #44]	; 0x2c
  404a08:	980c      	ldr	r0, [sp, #48]	; 0x30
  404a0a:	f002 fb07 	bl	40701c <__ssprint_r>
  404a0e:	2800      	cmp	r0, #0
  404a10:	f47f a9d2 	bne.w	403db8 <_svfprintf_r+0x1a4>
  404a14:	9c27      	ldr	r4, [sp, #156]	; 0x9c
  404a16:	9f26      	ldr	r7, [sp, #152]	; 0x98
  404a18:	46c8      	mov	r8, r9
  404a1a:	e5f2      	b.n	404602 <_svfprintf_r+0x9ee>
  404a1c:	aa25      	add	r2, sp, #148	; 0x94
  404a1e:	990b      	ldr	r1, [sp, #44]	; 0x2c
  404a20:	980c      	ldr	r0, [sp, #48]	; 0x30
  404a22:	f002 fafb 	bl	40701c <__ssprint_r>
  404a26:	2800      	cmp	r0, #0
  404a28:	f47f a9c6 	bne.w	403db8 <_svfprintf_r+0x1a4>
  404a2c:	9c27      	ldr	r4, [sp, #156]	; 0x9c
  404a2e:	9f26      	ldr	r7, [sp, #152]	; 0x98
  404a30:	46c8      	mov	r8, r9
  404a32:	e5f5      	b.n	404620 <_svfprintf_r+0xa0c>
  404a34:	464e      	mov	r6, r9
  404a36:	f7ff b9fd 	b.w	403e34 <_svfprintf_r+0x220>
  404a3a:	aa25      	add	r2, sp, #148	; 0x94
  404a3c:	990b      	ldr	r1, [sp, #44]	; 0x2c
  404a3e:	980c      	ldr	r0, [sp, #48]	; 0x30
  404a40:	f002 faec 	bl	40701c <__ssprint_r>
  404a44:	2800      	cmp	r0, #0
  404a46:	f47f a9b7 	bne.w	403db8 <_svfprintf_r+0x1a4>
  404a4a:	9c27      	ldr	r4, [sp, #156]	; 0x9c
  404a4c:	46c8      	mov	r8, r9
  404a4e:	f7ff ba72 	b.w	403f36 <_svfprintf_r+0x322>
  404a52:	9c15      	ldr	r4, [sp, #84]	; 0x54
  404a54:	4622      	mov	r2, r4
  404a56:	4620      	mov	r0, r4
  404a58:	9c14      	ldr	r4, [sp, #80]	; 0x50
  404a5a:	4623      	mov	r3, r4
  404a5c:	4621      	mov	r1, r4
  404a5e:	f003 fba3 	bl	4081a8 <__aeabi_dcmpun>
  404a62:	2800      	cmp	r0, #0
  404a64:	f040 8286 	bne.w	404f74 <_svfprintf_r+0x1360>
  404a68:	9b0a      	ldr	r3, [sp, #40]	; 0x28
  404a6a:	3301      	adds	r3, #1
  404a6c:	9b11      	ldr	r3, [sp, #68]	; 0x44
  404a6e:	f023 0320 	bic.w	r3, r3, #32
  404a72:	930e      	str	r3, [sp, #56]	; 0x38
  404a74:	f000 81e2 	beq.w	404e3c <_svfprintf_r+0x1228>
  404a78:	2b47      	cmp	r3, #71	; 0x47
  404a7a:	f000 811e 	beq.w	404cba <_svfprintf_r+0x10a6>
  404a7e:	f44b 7380 	orr.w	r3, fp, #256	; 0x100
  404a82:	9307      	str	r3, [sp, #28]
  404a84:	9b14      	ldr	r3, [sp, #80]	; 0x50
  404a86:	1e1f      	subs	r7, r3, #0
  404a88:	9b15      	ldr	r3, [sp, #84]	; 0x54
  404a8a:	9308      	str	r3, [sp, #32]
  404a8c:	bfbb      	ittet	lt
  404a8e:	463b      	movlt	r3, r7
  404a90:	f103 4700 	addlt.w	r7, r3, #2147483648	; 0x80000000
  404a94:	2300      	movge	r3, #0
  404a96:	232d      	movlt	r3, #45	; 0x2d
  404a98:	9310      	str	r3, [sp, #64]	; 0x40
  404a9a:	9b11      	ldr	r3, [sp, #68]	; 0x44
  404a9c:	2b66      	cmp	r3, #102	; 0x66
  404a9e:	f000 81bb 	beq.w	404e18 <_svfprintf_r+0x1204>
  404aa2:	2b46      	cmp	r3, #70	; 0x46
  404aa4:	f000 80df 	beq.w	404c66 <_svfprintf_r+0x1052>
  404aa8:	9b0e      	ldr	r3, [sp, #56]	; 0x38
  404aaa:	9a08      	ldr	r2, [sp, #32]
  404aac:	2b45      	cmp	r3, #69	; 0x45
  404aae:	bf0c      	ite	eq
  404ab0:	9b0a      	ldreq	r3, [sp, #40]	; 0x28
  404ab2:	9d0a      	ldrne	r5, [sp, #40]	; 0x28
  404ab4:	a823      	add	r0, sp, #140	; 0x8c
  404ab6:	a920      	add	r1, sp, #128	; 0x80
  404ab8:	bf08      	it	eq
  404aba:	1c5d      	addeq	r5, r3, #1
  404abc:	9004      	str	r0, [sp, #16]
  404abe:	9103      	str	r1, [sp, #12]
  404ac0:	a81f      	add	r0, sp, #124	; 0x7c
  404ac2:	2102      	movs	r1, #2
  404ac4:	463b      	mov	r3, r7
  404ac6:	9002      	str	r0, [sp, #8]
  404ac8:	9501      	str	r5, [sp, #4]
  404aca:	9100      	str	r1, [sp, #0]
  404acc:	980c      	ldr	r0, [sp, #48]	; 0x30
  404ace:	f000 fb73 	bl	4051b8 <_dtoa_r>
  404ad2:	9b11      	ldr	r3, [sp, #68]	; 0x44
  404ad4:	2b67      	cmp	r3, #103	; 0x67
  404ad6:	4606      	mov	r6, r0
  404ad8:	f040 81e0 	bne.w	404e9c <_svfprintf_r+0x1288>
  404adc:	f01b 0f01 	tst.w	fp, #1
  404ae0:	f000 8246 	beq.w	404f70 <_svfprintf_r+0x135c>
  404ae4:	1974      	adds	r4, r6, r5
  404ae6:	9a16      	ldr	r2, [sp, #88]	; 0x58
  404ae8:	9808      	ldr	r0, [sp, #32]
  404aea:	9b17      	ldr	r3, [sp, #92]	; 0x5c
  404aec:	4639      	mov	r1, r7
  404aee:	f003 fb29 	bl	408144 <__aeabi_dcmpeq>
  404af2:	2800      	cmp	r0, #0
  404af4:	f040 8165 	bne.w	404dc2 <_svfprintf_r+0x11ae>
  404af8:	9b23      	ldr	r3, [sp, #140]	; 0x8c
  404afa:	42a3      	cmp	r3, r4
  404afc:	d206      	bcs.n	404b0c <_svfprintf_r+0xef8>
  404afe:	2130      	movs	r1, #48	; 0x30
  404b00:	1c5a      	adds	r2, r3, #1
  404b02:	9223      	str	r2, [sp, #140]	; 0x8c
  404b04:	7019      	strb	r1, [r3, #0]
  404b06:	9b23      	ldr	r3, [sp, #140]	; 0x8c
  404b08:	429c      	cmp	r4, r3
  404b0a:	d8f9      	bhi.n	404b00 <_svfprintf_r+0xeec>
  404b0c:	1b9b      	subs	r3, r3, r6
  404b0e:	9313      	str	r3, [sp, #76]	; 0x4c
  404b10:	9b0e      	ldr	r3, [sp, #56]	; 0x38
  404b12:	2b47      	cmp	r3, #71	; 0x47
  404b14:	f000 80e9 	beq.w	404cea <_svfprintf_r+0x10d6>
  404b18:	9b11      	ldr	r3, [sp, #68]	; 0x44
  404b1a:	2b65      	cmp	r3, #101	; 0x65
  404b1c:	f340 81cd 	ble.w	404eba <_svfprintf_r+0x12a6>
  404b20:	9b11      	ldr	r3, [sp, #68]	; 0x44
  404b22:	2b66      	cmp	r3, #102	; 0x66
  404b24:	9b1f      	ldr	r3, [sp, #124]	; 0x7c
  404b26:	9312      	str	r3, [sp, #72]	; 0x48
  404b28:	f000 819e 	beq.w	404e68 <_svfprintf_r+0x1254>
  404b2c:	9b13      	ldr	r3, [sp, #76]	; 0x4c
  404b2e:	9a12      	ldr	r2, [sp, #72]	; 0x48
  404b30:	4619      	mov	r1, r3
  404b32:	4291      	cmp	r1, r2
  404b34:	f300 818a 	bgt.w	404e4c <_svfprintf_r+0x1238>
  404b38:	f01b 0f01 	tst.w	fp, #1
  404b3c:	f040 8213 	bne.w	404f66 <_svfprintf_r+0x1352>
  404b40:	ea22 73e2 	bic.w	r3, r2, r2, asr #31
  404b44:	9308      	str	r3, [sp, #32]
  404b46:	2367      	movs	r3, #103	; 0x67
  404b48:	920e      	str	r2, [sp, #56]	; 0x38
  404b4a:	9311      	str	r3, [sp, #68]	; 0x44
  404b4c:	9b10      	ldr	r3, [sp, #64]	; 0x40
  404b4e:	2b00      	cmp	r3, #0
  404b50:	f040 80c4 	bne.w	404cdc <_svfprintf_r+0x10c8>
  404b54:	930a      	str	r3, [sp, #40]	; 0x28
  404b56:	f89d 7077 	ldrb.w	r7, [sp, #119]	; 0x77
  404b5a:	f7ff b973 	b.w	403e44 <_svfprintf_r+0x230>
  404b5e:	4635      	mov	r5, r6
  404b60:	460c      	mov	r4, r1
  404b62:	4646      	mov	r6, r8
  404b64:	4690      	mov	r8, r2
  404b66:	3301      	adds	r3, #1
  404b68:	443c      	add	r4, r7
  404b6a:	2b07      	cmp	r3, #7
  404b6c:	9427      	str	r4, [sp, #156]	; 0x9c
  404b6e:	9326      	str	r3, [sp, #152]	; 0x98
  404b70:	e888 00a0 	stmia.w	r8, {r5, r7}
  404b74:	f73f aed1 	bgt.w	40491a <_svfprintf_r+0xd06>
  404b78:	f108 0808 	add.w	r8, r8, #8
  404b7c:	e6d7      	b.n	40492e <_svfprintf_r+0xd1a>
  404b7e:	9a0f      	ldr	r2, [sp, #60]	; 0x3c
  404b80:	6813      	ldr	r3, [r2, #0]
  404b82:	3204      	adds	r2, #4
  404b84:	920f      	str	r2, [sp, #60]	; 0x3c
  404b86:	9a09      	ldr	r2, [sp, #36]	; 0x24
  404b88:	601a      	str	r2, [r3, #0]
  404b8a:	f7ff b86a 	b.w	403c62 <_svfprintf_r+0x4e>
  404b8e:	aa25      	add	r2, sp, #148	; 0x94
  404b90:	990b      	ldr	r1, [sp, #44]	; 0x2c
  404b92:	980c      	ldr	r0, [sp, #48]	; 0x30
  404b94:	f002 fa42 	bl	40701c <__ssprint_r>
  404b98:	2800      	cmp	r0, #0
  404b9a:	f47f a90d 	bne.w	403db8 <_svfprintf_r+0x1a4>
  404b9e:	46c8      	mov	r8, r9
  404ba0:	e48d      	b.n	4044be <_svfprintf_r+0x8aa>
  404ba2:	9b26      	ldr	r3, [sp, #152]	; 0x98
  404ba4:	4a27      	ldr	r2, [pc, #156]	; (404c44 <_svfprintf_r+0x1030>)
  404ba6:	f8c8 2000 	str.w	r2, [r8]
  404baa:	3301      	adds	r3, #1
  404bac:	3401      	adds	r4, #1
  404bae:	2201      	movs	r2, #1
  404bb0:	2b07      	cmp	r3, #7
  404bb2:	9427      	str	r4, [sp, #156]	; 0x9c
  404bb4:	9326      	str	r3, [sp, #152]	; 0x98
  404bb6:	f8c8 2004 	str.w	r2, [r8, #4]
  404bba:	dc72      	bgt.n	404ca2 <_svfprintf_r+0x108e>
  404bbc:	f108 0808 	add.w	r8, r8, #8
  404bc0:	b929      	cbnz	r1, 404bce <_svfprintf_r+0xfba>
  404bc2:	9b13      	ldr	r3, [sp, #76]	; 0x4c
  404bc4:	b91b      	cbnz	r3, 404bce <_svfprintf_r+0xfba>
  404bc6:	9b07      	ldr	r3, [sp, #28]
  404bc8:	07d8      	lsls	r0, r3, #31
  404bca:	f57f aa03 	bpl.w	403fd4 <_svfprintf_r+0x3c0>
  404bce:	9b26      	ldr	r3, [sp, #152]	; 0x98
  404bd0:	9819      	ldr	r0, [sp, #100]	; 0x64
  404bd2:	9a1a      	ldr	r2, [sp, #104]	; 0x68
  404bd4:	f8c8 2000 	str.w	r2, [r8]
  404bd8:	3301      	adds	r3, #1
  404bda:	4602      	mov	r2, r0
  404bdc:	4422      	add	r2, r4
  404bde:	2b07      	cmp	r3, #7
  404be0:	9227      	str	r2, [sp, #156]	; 0x9c
  404be2:	f8c8 0004 	str.w	r0, [r8, #4]
  404be6:	9326      	str	r3, [sp, #152]	; 0x98
  404be8:	f300 818d 	bgt.w	404f06 <_svfprintf_r+0x12f2>
  404bec:	f108 0808 	add.w	r8, r8, #8
  404bf0:	2900      	cmp	r1, #0
  404bf2:	f2c0 8165 	blt.w	404ec0 <_svfprintf_r+0x12ac>
  404bf6:	9913      	ldr	r1, [sp, #76]	; 0x4c
  404bf8:	f8c8 6000 	str.w	r6, [r8]
  404bfc:	3301      	adds	r3, #1
  404bfe:	188c      	adds	r4, r1, r2
  404c00:	2b07      	cmp	r3, #7
  404c02:	9427      	str	r4, [sp, #156]	; 0x9c
  404c04:	9326      	str	r3, [sp, #152]	; 0x98
  404c06:	f8c8 1004 	str.w	r1, [r8, #4]
  404c0a:	f77f a9e1 	ble.w	403fd0 <_svfprintf_r+0x3bc>
  404c0e:	e52c      	b.n	40466a <_svfprintf_r+0xa56>
  404c10:	9a0f      	ldr	r2, [sp, #60]	; 0x3c
  404c12:	9909      	ldr	r1, [sp, #36]	; 0x24
  404c14:	6813      	ldr	r3, [r2, #0]
  404c16:	17cd      	asrs	r5, r1, #31
  404c18:	4608      	mov	r0, r1
  404c1a:	3204      	adds	r2, #4
  404c1c:	4629      	mov	r1, r5
  404c1e:	920f      	str	r2, [sp, #60]	; 0x3c
  404c20:	e9c3 0100 	strd	r0, r1, [r3]
  404c24:	f7ff b81d 	b.w	403c62 <_svfprintf_r+0x4e>
  404c28:	aa25      	add	r2, sp, #148	; 0x94
  404c2a:	990b      	ldr	r1, [sp, #44]	; 0x2c
  404c2c:	980c      	ldr	r0, [sp, #48]	; 0x30
  404c2e:	f002 f9f5 	bl	40701c <__ssprint_r>
  404c32:	2800      	cmp	r0, #0
  404c34:	f47f a8c0 	bne.w	403db8 <_svfprintf_r+0x1a4>
  404c38:	9c27      	ldr	r4, [sp, #156]	; 0x9c
  404c3a:	46c8      	mov	r8, r9
  404c3c:	e458      	b.n	4044f0 <_svfprintf_r+0x8dc>
  404c3e:	bf00      	nop
  404c40:	00408f14 	.word	0x00408f14
  404c44:	00408f00 	.word	0x00408f00
  404c48:	2140      	movs	r1, #64	; 0x40
  404c4a:	980c      	ldr	r0, [sp, #48]	; 0x30
  404c4c:	f001 fa0a 	bl	406064 <_malloc_r>
  404c50:	9a0b      	ldr	r2, [sp, #44]	; 0x2c
  404c52:	6010      	str	r0, [r2, #0]
  404c54:	6110      	str	r0, [r2, #16]
  404c56:	2800      	cmp	r0, #0
  404c58:	f000 81f2 	beq.w	405040 <_svfprintf_r+0x142c>
  404c5c:	9a0b      	ldr	r2, [sp, #44]	; 0x2c
  404c5e:	2340      	movs	r3, #64	; 0x40
  404c60:	6153      	str	r3, [r2, #20]
  404c62:	f7fe bfee 	b.w	403c42 <_svfprintf_r+0x2e>
  404c66:	a823      	add	r0, sp, #140	; 0x8c
  404c68:	a920      	add	r1, sp, #128	; 0x80
  404c6a:	9c0a      	ldr	r4, [sp, #40]	; 0x28
  404c6c:	9004      	str	r0, [sp, #16]
  404c6e:	9103      	str	r1, [sp, #12]
  404c70:	a81f      	add	r0, sp, #124	; 0x7c
  404c72:	2103      	movs	r1, #3
  404c74:	9002      	str	r0, [sp, #8]
  404c76:	9a08      	ldr	r2, [sp, #32]
  404c78:	9401      	str	r4, [sp, #4]
  404c7a:	463b      	mov	r3, r7
  404c7c:	9100      	str	r1, [sp, #0]
  404c7e:	980c      	ldr	r0, [sp, #48]	; 0x30
  404c80:	f000 fa9a 	bl	4051b8 <_dtoa_r>
  404c84:	4625      	mov	r5, r4
  404c86:	4606      	mov	r6, r0
  404c88:	9b11      	ldr	r3, [sp, #68]	; 0x44
  404c8a:	2b46      	cmp	r3, #70	; 0x46
  404c8c:	eb06 0405 	add.w	r4, r6, r5
  404c90:	f47f af29 	bne.w	404ae6 <_svfprintf_r+0xed2>
  404c94:	7833      	ldrb	r3, [r6, #0]
  404c96:	2b30      	cmp	r3, #48	; 0x30
  404c98:	f000 8178 	beq.w	404f8c <_svfprintf_r+0x1378>
  404c9c:	9d1f      	ldr	r5, [sp, #124]	; 0x7c
  404c9e:	442c      	add	r4, r5
  404ca0:	e721      	b.n	404ae6 <_svfprintf_r+0xed2>
  404ca2:	aa25      	add	r2, sp, #148	; 0x94
  404ca4:	990b      	ldr	r1, [sp, #44]	; 0x2c
  404ca6:	980c      	ldr	r0, [sp, #48]	; 0x30
  404ca8:	f002 f9b8 	bl	40701c <__ssprint_r>
  404cac:	2800      	cmp	r0, #0
  404cae:	f47f a883 	bne.w	403db8 <_svfprintf_r+0x1a4>
  404cb2:	991f      	ldr	r1, [sp, #124]	; 0x7c
  404cb4:	9c27      	ldr	r4, [sp, #156]	; 0x9c
  404cb6:	46c8      	mov	r8, r9
  404cb8:	e782      	b.n	404bc0 <_svfprintf_r+0xfac>
  404cba:	9b0a      	ldr	r3, [sp, #40]	; 0x28
  404cbc:	2b00      	cmp	r3, #0
  404cbe:	bf08      	it	eq
  404cc0:	2301      	moveq	r3, #1
  404cc2:	930a      	str	r3, [sp, #40]	; 0x28
  404cc4:	e6db      	b.n	404a7e <_svfprintf_r+0xe6a>
  404cc6:	4630      	mov	r0, r6
  404cc8:	940a      	str	r4, [sp, #40]	; 0x28
  404cca:	f002 f939 	bl	406f40 <strlen>
  404cce:	950f      	str	r5, [sp, #60]	; 0x3c
  404cd0:	900e      	str	r0, [sp, #56]	; 0x38
  404cd2:	f8cd b01c 	str.w	fp, [sp, #28]
  404cd6:	4603      	mov	r3, r0
  404cd8:	f7ff b9f9 	b.w	4040ce <_svfprintf_r+0x4ba>
  404cdc:	272d      	movs	r7, #45	; 0x2d
  404cde:	2300      	movs	r3, #0
  404ce0:	f88d 7077 	strb.w	r7, [sp, #119]	; 0x77
  404ce4:	930a      	str	r3, [sp, #40]	; 0x28
  404ce6:	f7ff b8ae 	b.w	403e46 <_svfprintf_r+0x232>
  404cea:	9b1f      	ldr	r3, [sp, #124]	; 0x7c
  404cec:	9312      	str	r3, [sp, #72]	; 0x48
  404cee:	461a      	mov	r2, r3
  404cf0:	3303      	adds	r3, #3
  404cf2:	db04      	blt.n	404cfe <_svfprintf_r+0x10ea>
  404cf4:	9b0a      	ldr	r3, [sp, #40]	; 0x28
  404cf6:	4619      	mov	r1, r3
  404cf8:	4291      	cmp	r1, r2
  404cfa:	f6bf af17 	bge.w	404b2c <_svfprintf_r+0xf18>
  404cfe:	9b11      	ldr	r3, [sp, #68]	; 0x44
  404d00:	3b02      	subs	r3, #2
  404d02:	9311      	str	r3, [sp, #68]	; 0x44
  404d04:	f89d 3044 	ldrb.w	r3, [sp, #68]	; 0x44
  404d08:	f88d 3084 	strb.w	r3, [sp, #132]	; 0x84
  404d0c:	9b12      	ldr	r3, [sp, #72]	; 0x48
  404d0e:	3b01      	subs	r3, #1
  404d10:	2b00      	cmp	r3, #0
  404d12:	931f      	str	r3, [sp, #124]	; 0x7c
  404d14:	bfbd      	ittte	lt
  404d16:	9b12      	ldrlt	r3, [sp, #72]	; 0x48
  404d18:	f1c3 0301 	rsblt	r3, r3, #1
  404d1c:	222d      	movlt	r2, #45	; 0x2d
  404d1e:	222b      	movge	r2, #43	; 0x2b
  404d20:	2b09      	cmp	r3, #9
  404d22:	f88d 2085 	strb.w	r2, [sp, #133]	; 0x85
  404d26:	f340 8116 	ble.w	404f56 <_svfprintf_r+0x1342>
  404d2a:	f10d 0493 	add.w	r4, sp, #147	; 0x93
  404d2e:	4620      	mov	r0, r4
  404d30:	4dab      	ldr	r5, [pc, #684]	; (404fe0 <_svfprintf_r+0x13cc>)
  404d32:	e000      	b.n	404d36 <_svfprintf_r+0x1122>
  404d34:	4610      	mov	r0, r2
  404d36:	fb85 1203 	smull	r1, r2, r5, r3
  404d3a:	17d9      	asrs	r1, r3, #31
  404d3c:	ebc1 01a2 	rsb	r1, r1, r2, asr #2
  404d40:	eb01 0281 	add.w	r2, r1, r1, lsl #2
  404d44:	eba3 0242 	sub.w	r2, r3, r2, lsl #1
  404d48:	3230      	adds	r2, #48	; 0x30
  404d4a:	2909      	cmp	r1, #9
  404d4c:	f800 2c01 	strb.w	r2, [r0, #-1]
  404d50:	460b      	mov	r3, r1
  404d52:	f100 32ff 	add.w	r2, r0, #4294967295
  404d56:	dced      	bgt.n	404d34 <_svfprintf_r+0x1120>
  404d58:	3330      	adds	r3, #48	; 0x30
  404d5a:	3802      	subs	r0, #2
  404d5c:	b2d9      	uxtb	r1, r3
  404d5e:	4284      	cmp	r4, r0
  404d60:	f802 1c01 	strb.w	r1, [r2, #-1]
  404d64:	f240 8165 	bls.w	405032 <_svfprintf_r+0x141e>
  404d68:	f10d 0086 	add.w	r0, sp, #134	; 0x86
  404d6c:	4613      	mov	r3, r2
  404d6e:	e001      	b.n	404d74 <_svfprintf_r+0x1160>
  404d70:	f813 1b01 	ldrb.w	r1, [r3], #1
  404d74:	f800 1b01 	strb.w	r1, [r0], #1
  404d78:	42a3      	cmp	r3, r4
  404d7a:	d1f9      	bne.n	404d70 <_svfprintf_r+0x115c>
  404d7c:	3301      	adds	r3, #1
  404d7e:	1a9b      	subs	r3, r3, r2
  404d80:	f10d 0286 	add.w	r2, sp, #134	; 0x86
  404d84:	4413      	add	r3, r2
  404d86:	aa21      	add	r2, sp, #132	; 0x84
  404d88:	1a9b      	subs	r3, r3, r2
  404d8a:	9a13      	ldr	r2, [sp, #76]	; 0x4c
  404d8c:	931b      	str	r3, [sp, #108]	; 0x6c
  404d8e:	2a01      	cmp	r2, #1
  404d90:	4413      	add	r3, r2
  404d92:	930e      	str	r3, [sp, #56]	; 0x38
  404d94:	f340 8119 	ble.w	404fca <_svfprintf_r+0x13b6>
  404d98:	9b0e      	ldr	r3, [sp, #56]	; 0x38
  404d9a:	9a19      	ldr	r2, [sp, #100]	; 0x64
  404d9c:	4413      	add	r3, r2
  404d9e:	930e      	str	r3, [sp, #56]	; 0x38
  404da0:	ea23 73e3 	bic.w	r3, r3, r3, asr #31
  404da4:	9308      	str	r3, [sp, #32]
  404da6:	2300      	movs	r3, #0
  404da8:	9312      	str	r3, [sp, #72]	; 0x48
  404daa:	e6cf      	b.n	404b4c <_svfprintf_r+0xf38>
  404dac:	aa25      	add	r2, sp, #148	; 0x94
  404dae:	990b      	ldr	r1, [sp, #44]	; 0x2c
  404db0:	980c      	ldr	r0, [sp, #48]	; 0x30
  404db2:	f002 f933 	bl	40701c <__ssprint_r>
  404db6:	2800      	cmp	r0, #0
  404db8:	f47e affe 	bne.w	403db8 <_svfprintf_r+0x1a4>
  404dbc:	9c27      	ldr	r4, [sp, #156]	; 0x9c
  404dbe:	46c8      	mov	r8, r9
  404dc0:	e4d7      	b.n	404772 <_svfprintf_r+0xb5e>
  404dc2:	4623      	mov	r3, r4
  404dc4:	e6a2      	b.n	404b0c <_svfprintf_r+0xef8>
  404dc6:	aa25      	add	r2, sp, #148	; 0x94
  404dc8:	990b      	ldr	r1, [sp, #44]	; 0x2c
  404dca:	980c      	ldr	r0, [sp, #48]	; 0x30
  404dcc:	f002 f926 	bl	40701c <__ssprint_r>
  404dd0:	2800      	cmp	r0, #0
  404dd2:	f47e aff1 	bne.w	403db8 <_svfprintf_r+0x1a4>
  404dd6:	9a1f      	ldr	r2, [sp, #124]	; 0x7c
  404dd8:	9c27      	ldr	r4, [sp, #156]	; 0x9c
  404dda:	46c8      	mov	r8, r9
  404ddc:	e5ae      	b.n	40493c <_svfprintf_r+0xd28>
  404dde:	aa25      	add	r2, sp, #148	; 0x94
  404de0:	990b      	ldr	r1, [sp, #44]	; 0x2c
  404de2:	980c      	ldr	r0, [sp, #48]	; 0x30
  404de4:	f002 f91a 	bl	40701c <__ssprint_r>
  404de8:	2800      	cmp	r0, #0
  404dea:	f47e afe5 	bne.w	403db8 <_svfprintf_r+0x1a4>
  404dee:	9a1f      	ldr	r2, [sp, #124]	; 0x7c
  404df0:	9b13      	ldr	r3, [sp, #76]	; 0x4c
  404df2:	9c27      	ldr	r4, [sp, #156]	; 0x9c
  404df4:	1a9a      	subs	r2, r3, r2
  404df6:	46c8      	mov	r8, r9
  404df8:	e5b8      	b.n	40496c <_svfprintf_r+0xd58>
  404dfa:	9b0a      	ldr	r3, [sp, #40]	; 0x28
  404dfc:	9612      	str	r6, [sp, #72]	; 0x48
  404dfe:	2b06      	cmp	r3, #6
  404e00:	bf28      	it	cs
  404e02:	2306      	movcs	r3, #6
  404e04:	960a      	str	r6, [sp, #40]	; 0x28
  404e06:	4637      	mov	r7, r6
  404e08:	9308      	str	r3, [sp, #32]
  404e0a:	950f      	str	r5, [sp, #60]	; 0x3c
  404e0c:	f8cd b01c 	str.w	fp, [sp, #28]
  404e10:	930e      	str	r3, [sp, #56]	; 0x38
  404e12:	4e74      	ldr	r6, [pc, #464]	; (404fe4 <_svfprintf_r+0x13d0>)
  404e14:	f7ff b816 	b.w	403e44 <_svfprintf_r+0x230>
  404e18:	a823      	add	r0, sp, #140	; 0x8c
  404e1a:	a920      	add	r1, sp, #128	; 0x80
  404e1c:	9d0a      	ldr	r5, [sp, #40]	; 0x28
  404e1e:	9004      	str	r0, [sp, #16]
  404e20:	9103      	str	r1, [sp, #12]
  404e22:	a81f      	add	r0, sp, #124	; 0x7c
  404e24:	2103      	movs	r1, #3
  404e26:	9002      	str	r0, [sp, #8]
  404e28:	9a08      	ldr	r2, [sp, #32]
  404e2a:	9501      	str	r5, [sp, #4]
  404e2c:	463b      	mov	r3, r7
  404e2e:	9100      	str	r1, [sp, #0]
  404e30:	980c      	ldr	r0, [sp, #48]	; 0x30
  404e32:	f000 f9c1 	bl	4051b8 <_dtoa_r>
  404e36:	4606      	mov	r6, r0
  404e38:	1944      	adds	r4, r0, r5
  404e3a:	e72b      	b.n	404c94 <_svfprintf_r+0x1080>
  404e3c:	2306      	movs	r3, #6
  404e3e:	930a      	str	r3, [sp, #40]	; 0x28
  404e40:	e61d      	b.n	404a7e <_svfprintf_r+0xe6a>
  404e42:	272d      	movs	r7, #45	; 0x2d
  404e44:	f88d 7077 	strb.w	r7, [sp, #119]	; 0x77
  404e48:	f7ff bacd 	b.w	4043e6 <_svfprintf_r+0x7d2>
  404e4c:	9a19      	ldr	r2, [sp, #100]	; 0x64
  404e4e:	9b13      	ldr	r3, [sp, #76]	; 0x4c
  404e50:	4413      	add	r3, r2
  404e52:	9a12      	ldr	r2, [sp, #72]	; 0x48
  404e54:	930e      	str	r3, [sp, #56]	; 0x38
  404e56:	2a00      	cmp	r2, #0
  404e58:	f340 80b0 	ble.w	404fbc <_svfprintf_r+0x13a8>
  404e5c:	ea23 73e3 	bic.w	r3, r3, r3, asr #31
  404e60:	9308      	str	r3, [sp, #32]
  404e62:	2367      	movs	r3, #103	; 0x67
  404e64:	9311      	str	r3, [sp, #68]	; 0x44
  404e66:	e671      	b.n	404b4c <_svfprintf_r+0xf38>
  404e68:	2b00      	cmp	r3, #0
  404e6a:	f340 80c3 	ble.w	404ff4 <_svfprintf_r+0x13e0>
  404e6e:	9a0a      	ldr	r2, [sp, #40]	; 0x28
  404e70:	2a00      	cmp	r2, #0
  404e72:	f040 8099 	bne.w	404fa8 <_svfprintf_r+0x1394>
  404e76:	f01b 0f01 	tst.w	fp, #1
  404e7a:	f040 8095 	bne.w	404fa8 <_svfprintf_r+0x1394>
  404e7e:	9308      	str	r3, [sp, #32]
  404e80:	930e      	str	r3, [sp, #56]	; 0x38
  404e82:	e663      	b.n	404b4c <_svfprintf_r+0xf38>
  404e84:	9b0a      	ldr	r3, [sp, #40]	; 0x28
  404e86:	9308      	str	r3, [sp, #32]
  404e88:	930e      	str	r3, [sp, #56]	; 0x38
  404e8a:	900a      	str	r0, [sp, #40]	; 0x28
  404e8c:	950f      	str	r5, [sp, #60]	; 0x3c
  404e8e:	f8cd b01c 	str.w	fp, [sp, #28]
  404e92:	9012      	str	r0, [sp, #72]	; 0x48
  404e94:	f89d 7077 	ldrb.w	r7, [sp, #119]	; 0x77
  404e98:	f7fe bfd4 	b.w	403e44 <_svfprintf_r+0x230>
  404e9c:	9b11      	ldr	r3, [sp, #68]	; 0x44
  404e9e:	2b47      	cmp	r3, #71	; 0x47
  404ea0:	f47f ae20 	bne.w	404ae4 <_svfprintf_r+0xed0>
  404ea4:	f01b 0f01 	tst.w	fp, #1
  404ea8:	f47f aeee 	bne.w	404c88 <_svfprintf_r+0x1074>
  404eac:	9b23      	ldr	r3, [sp, #140]	; 0x8c
  404eae:	1b9b      	subs	r3, r3, r6
  404eb0:	9313      	str	r3, [sp, #76]	; 0x4c
  404eb2:	9b0e      	ldr	r3, [sp, #56]	; 0x38
  404eb4:	2b47      	cmp	r3, #71	; 0x47
  404eb6:	f43f af18 	beq.w	404cea <_svfprintf_r+0x10d6>
  404eba:	9b1f      	ldr	r3, [sp, #124]	; 0x7c
  404ebc:	9312      	str	r3, [sp, #72]	; 0x48
  404ebe:	e721      	b.n	404d04 <_svfprintf_r+0x10f0>
  404ec0:	424f      	negs	r7, r1
  404ec2:	3110      	adds	r1, #16
  404ec4:	4d48      	ldr	r5, [pc, #288]	; (404fe8 <_svfprintf_r+0x13d4>)
  404ec6:	da2f      	bge.n	404f28 <_svfprintf_r+0x1314>
  404ec8:	2410      	movs	r4, #16
  404eca:	f8dd b030 	ldr.w	fp, [sp, #48]	; 0x30
  404ece:	e004      	b.n	404eda <_svfprintf_r+0x12c6>
  404ed0:	f108 0808 	add.w	r8, r8, #8
  404ed4:	3f10      	subs	r7, #16
  404ed6:	2f10      	cmp	r7, #16
  404ed8:	dd26      	ble.n	404f28 <_svfprintf_r+0x1314>
  404eda:	3301      	adds	r3, #1
  404edc:	3210      	adds	r2, #16
  404ede:	2b07      	cmp	r3, #7
  404ee0:	9227      	str	r2, [sp, #156]	; 0x9c
  404ee2:	9326      	str	r3, [sp, #152]	; 0x98
  404ee4:	f8c8 5000 	str.w	r5, [r8]
  404ee8:	f8c8 4004 	str.w	r4, [r8, #4]
  404eec:	ddf0      	ble.n	404ed0 <_svfprintf_r+0x12bc>
  404eee:	aa25      	add	r2, sp, #148	; 0x94
  404ef0:	990b      	ldr	r1, [sp, #44]	; 0x2c
  404ef2:	4658      	mov	r0, fp
  404ef4:	f002 f892 	bl	40701c <__ssprint_r>
  404ef8:	2800      	cmp	r0, #0
  404efa:	f47e af5d 	bne.w	403db8 <_svfprintf_r+0x1a4>
  404efe:	9a27      	ldr	r2, [sp, #156]	; 0x9c
  404f00:	9b26      	ldr	r3, [sp, #152]	; 0x98
  404f02:	46c8      	mov	r8, r9
  404f04:	e7e6      	b.n	404ed4 <_svfprintf_r+0x12c0>
  404f06:	aa25      	add	r2, sp, #148	; 0x94
  404f08:	990b      	ldr	r1, [sp, #44]	; 0x2c
  404f0a:	980c      	ldr	r0, [sp, #48]	; 0x30
  404f0c:	f002 f886 	bl	40701c <__ssprint_r>
  404f10:	2800      	cmp	r0, #0
  404f12:	f47e af51 	bne.w	403db8 <_svfprintf_r+0x1a4>
  404f16:	991f      	ldr	r1, [sp, #124]	; 0x7c
  404f18:	9a27      	ldr	r2, [sp, #156]	; 0x9c
  404f1a:	9b26      	ldr	r3, [sp, #152]	; 0x98
  404f1c:	46c8      	mov	r8, r9
  404f1e:	e667      	b.n	404bf0 <_svfprintf_r+0xfdc>
  404f20:	2000      	movs	r0, #0
  404f22:	900a      	str	r0, [sp, #40]	; 0x28
  404f24:	f7fe bed0 	b.w	403cc8 <_svfprintf_r+0xb4>
  404f28:	3301      	adds	r3, #1
  404f2a:	443a      	add	r2, r7
  404f2c:	2b07      	cmp	r3, #7
  404f2e:	e888 00a0 	stmia.w	r8, {r5, r7}
  404f32:	9227      	str	r2, [sp, #156]	; 0x9c
  404f34:	9326      	str	r3, [sp, #152]	; 0x98
  404f36:	f108 0808 	add.w	r8, r8, #8
  404f3a:	f77f ae5c 	ble.w	404bf6 <_svfprintf_r+0xfe2>
  404f3e:	aa25      	add	r2, sp, #148	; 0x94
  404f40:	990b      	ldr	r1, [sp, #44]	; 0x2c
  404f42:	980c      	ldr	r0, [sp, #48]	; 0x30
  404f44:	f002 f86a 	bl	40701c <__ssprint_r>
  404f48:	2800      	cmp	r0, #0
  404f4a:	f47e af35 	bne.w	403db8 <_svfprintf_r+0x1a4>
  404f4e:	9a27      	ldr	r2, [sp, #156]	; 0x9c
  404f50:	9b26      	ldr	r3, [sp, #152]	; 0x98
  404f52:	46c8      	mov	r8, r9
  404f54:	e64f      	b.n	404bf6 <_svfprintf_r+0xfe2>
  404f56:	3330      	adds	r3, #48	; 0x30
  404f58:	2230      	movs	r2, #48	; 0x30
  404f5a:	f88d 3087 	strb.w	r3, [sp, #135]	; 0x87
  404f5e:	f88d 2086 	strb.w	r2, [sp, #134]	; 0x86
  404f62:	ab22      	add	r3, sp, #136	; 0x88
  404f64:	e70f      	b.n	404d86 <_svfprintf_r+0x1172>
  404f66:	9b12      	ldr	r3, [sp, #72]	; 0x48
  404f68:	9a19      	ldr	r2, [sp, #100]	; 0x64
  404f6a:	4413      	add	r3, r2
  404f6c:	930e      	str	r3, [sp, #56]	; 0x38
  404f6e:	e775      	b.n	404e5c <_svfprintf_r+0x1248>
  404f70:	9b23      	ldr	r3, [sp, #140]	; 0x8c
  404f72:	e5cb      	b.n	404b0c <_svfprintf_r+0xef8>
  404f74:	9b14      	ldr	r3, [sp, #80]	; 0x50
  404f76:	4e1d      	ldr	r6, [pc, #116]	; (404fec <_svfprintf_r+0x13d8>)
  404f78:	2b00      	cmp	r3, #0
  404f7a:	bfb6      	itet	lt
  404f7c:	272d      	movlt	r7, #45	; 0x2d
  404f7e:	f89d 7077 	ldrbge.w	r7, [sp, #119]	; 0x77
  404f82:	f88d 7077 	strblt.w	r7, [sp, #119]	; 0x77
  404f86:	4b1a      	ldr	r3, [pc, #104]	; (404ff0 <_svfprintf_r+0x13dc>)
  404f88:	f7ff ba2f 	b.w	4043ea <_svfprintf_r+0x7d6>
  404f8c:	9a16      	ldr	r2, [sp, #88]	; 0x58
  404f8e:	9808      	ldr	r0, [sp, #32]
  404f90:	9b17      	ldr	r3, [sp, #92]	; 0x5c
  404f92:	4639      	mov	r1, r7
  404f94:	f003 f8d6 	bl	408144 <__aeabi_dcmpeq>
  404f98:	2800      	cmp	r0, #0
  404f9a:	f47f ae7f 	bne.w	404c9c <_svfprintf_r+0x1088>
  404f9e:	f1c5 0501 	rsb	r5, r5, #1
  404fa2:	951f      	str	r5, [sp, #124]	; 0x7c
  404fa4:	442c      	add	r4, r5
  404fa6:	e59e      	b.n	404ae6 <_svfprintf_r+0xed2>
  404fa8:	9b12      	ldr	r3, [sp, #72]	; 0x48
  404faa:	9a19      	ldr	r2, [sp, #100]	; 0x64
  404fac:	4413      	add	r3, r2
  404fae:	9a0a      	ldr	r2, [sp, #40]	; 0x28
  404fb0:	441a      	add	r2, r3
  404fb2:	ea22 73e2 	bic.w	r3, r2, r2, asr #31
  404fb6:	920e      	str	r2, [sp, #56]	; 0x38
  404fb8:	9308      	str	r3, [sp, #32]
  404fba:	e5c7      	b.n	404b4c <_svfprintf_r+0xf38>
  404fbc:	9b12      	ldr	r3, [sp, #72]	; 0x48
  404fbe:	9a0e      	ldr	r2, [sp, #56]	; 0x38
  404fc0:	f1c3 0301 	rsb	r3, r3, #1
  404fc4:	441a      	add	r2, r3
  404fc6:	4613      	mov	r3, r2
  404fc8:	e7d0      	b.n	404f6c <_svfprintf_r+0x1358>
  404fca:	f01b 0301 	ands.w	r3, fp, #1
  404fce:	9312      	str	r3, [sp, #72]	; 0x48
  404fd0:	f47f aee2 	bne.w	404d98 <_svfprintf_r+0x1184>
  404fd4:	9b0e      	ldr	r3, [sp, #56]	; 0x38
  404fd6:	ea23 73e3 	bic.w	r3, r3, r3, asr #31
  404fda:	9308      	str	r3, [sp, #32]
  404fdc:	e5b6      	b.n	404b4c <_svfprintf_r+0xf38>
  404fde:	bf00      	nop
  404fe0:	66666667 	.word	0x66666667
  404fe4:	00408ef8 	.word	0x00408ef8
  404fe8:	00408f14 	.word	0x00408f14
  404fec:	00408ecc 	.word	0x00408ecc
  404ff0:	00408ec8 	.word	0x00408ec8
  404ff4:	9b0a      	ldr	r3, [sp, #40]	; 0x28
  404ff6:	b913      	cbnz	r3, 404ffe <_svfprintf_r+0x13ea>
  404ff8:	f01b 0f01 	tst.w	fp, #1
  404ffc:	d002      	beq.n	405004 <_svfprintf_r+0x13f0>
  404ffe:	9b19      	ldr	r3, [sp, #100]	; 0x64
  405000:	3301      	adds	r3, #1
  405002:	e7d4      	b.n	404fae <_svfprintf_r+0x139a>
  405004:	2301      	movs	r3, #1
  405006:	e73a      	b.n	404e7e <_svfprintf_r+0x126a>
  405008:	9d0f      	ldr	r5, [sp, #60]	; 0x3c
  40500a:	f89a 3001 	ldrb.w	r3, [sl, #1]
  40500e:	6828      	ldr	r0, [r5, #0]
  405010:	ea40 70e0 	orr.w	r0, r0, r0, asr #31
  405014:	900a      	str	r0, [sp, #40]	; 0x28
  405016:	4628      	mov	r0, r5
  405018:	3004      	adds	r0, #4
  40501a:	46a2      	mov	sl, r4
  40501c:	900f      	str	r0, [sp, #60]	; 0x3c
  40501e:	f7fe be51 	b.w	403cc4 <_svfprintf_r+0xb0>
  405022:	f88d 1077 	strb.w	r1, [sp, #119]	; 0x77
  405026:	f7ff b867 	b.w	4040f8 <_svfprintf_r+0x4e4>
  40502a:	f88d 1077 	strb.w	r1, [sp, #119]	; 0x77
  40502e:	f7ff ba15 	b.w	40445c <_svfprintf_r+0x848>
  405032:	f10d 0386 	add.w	r3, sp, #134	; 0x86
  405036:	e6a6      	b.n	404d86 <_svfprintf_r+0x1172>
  405038:	f88d 1077 	strb.w	r1, [sp, #119]	; 0x77
  40503c:	f7ff b8eb 	b.w	404216 <_svfprintf_r+0x602>
  405040:	9a0c      	ldr	r2, [sp, #48]	; 0x30
  405042:	230c      	movs	r3, #12
  405044:	6013      	str	r3, [r2, #0]
  405046:	f04f 33ff 	mov.w	r3, #4294967295
  40504a:	9309      	str	r3, [sp, #36]	; 0x24
  40504c:	f7fe bebd 	b.w	403dca <_svfprintf_r+0x1b6>
  405050:	f88d 1077 	strb.w	r1, [sp, #119]	; 0x77
  405054:	f7ff b99a 	b.w	40438c <_svfprintf_r+0x778>
  405058:	f88d 1077 	strb.w	r1, [sp, #119]	; 0x77
  40505c:	f7ff b976 	b.w	40434c <_svfprintf_r+0x738>
  405060:	f88d 1077 	strb.w	r1, [sp, #119]	; 0x77
  405064:	f7ff b959 	b.w	40431a <_svfprintf_r+0x706>
  405068:	f88d 1077 	strb.w	r1, [sp, #119]	; 0x77
  40506c:	f7ff b912 	b.w	404294 <_svfprintf_r+0x680>

00405070 <register_fini>:
  405070:	4b02      	ldr	r3, [pc, #8]	; (40507c <register_fini+0xc>)
  405072:	b113      	cbz	r3, 40507a <register_fini+0xa>
  405074:	4802      	ldr	r0, [pc, #8]	; (405080 <register_fini+0x10>)
  405076:	f000 b805 	b.w	405084 <atexit>
  40507a:	4770      	bx	lr
  40507c:	00000000 	.word	0x00000000
  405080:	0040600d 	.word	0x0040600d

00405084 <atexit>:
  405084:	2300      	movs	r3, #0
  405086:	4601      	mov	r1, r0
  405088:	461a      	mov	r2, r3
  40508a:	4618      	mov	r0, r3
  40508c:	f002 b844 	b.w	407118 <__register_exitproc>

00405090 <quorem>:
  405090:	6902      	ldr	r2, [r0, #16]
  405092:	690b      	ldr	r3, [r1, #16]
  405094:	4293      	cmp	r3, r2
  405096:	f300 808d 	bgt.w	4051b4 <quorem+0x124>
  40509a:	e92d 4ff0 	stmdb	sp!, {r4, r5, r6, r7, r8, r9, sl, fp, lr}
  40509e:	f103 38ff 	add.w	r8, r3, #4294967295
  4050a2:	f101 0714 	add.w	r7, r1, #20
  4050a6:	f100 0b14 	add.w	fp, r0, #20
  4050aa:	f857 2028 	ldr.w	r2, [r7, r8, lsl #2]
  4050ae:	f85b 3028 	ldr.w	r3, [fp, r8, lsl #2]
  4050b2:	ea4f 0488 	mov.w	r4, r8, lsl #2
  4050b6:	b083      	sub	sp, #12
  4050b8:	3201      	adds	r2, #1
  4050ba:	fbb3 f9f2 	udiv	r9, r3, r2
  4050be:	eb0b 0304 	add.w	r3, fp, r4
  4050c2:	9400      	str	r4, [sp, #0]
  4050c4:	eb07 0a04 	add.w	sl, r7, r4
  4050c8:	9301      	str	r3, [sp, #4]
  4050ca:	f1b9 0f00 	cmp.w	r9, #0
  4050ce:	d039      	beq.n	405144 <quorem+0xb4>
  4050d0:	2500      	movs	r5, #0
  4050d2:	462e      	mov	r6, r5
  4050d4:	46bc      	mov	ip, r7
  4050d6:	46de      	mov	lr, fp
  4050d8:	f85c 4b04 	ldr.w	r4, [ip], #4
  4050dc:	f8de 3000 	ldr.w	r3, [lr]
  4050e0:	b2a2      	uxth	r2, r4
  4050e2:	fb09 5502 	mla	r5, r9, r2, r5
  4050e6:	0c22      	lsrs	r2, r4, #16
  4050e8:	0c2c      	lsrs	r4, r5, #16
  4050ea:	fb09 4202 	mla	r2, r9, r2, r4
  4050ee:	b2ad      	uxth	r5, r5
  4050f0:	1b75      	subs	r5, r6, r5
  4050f2:	b296      	uxth	r6, r2
  4050f4:	ebc6 4613 	rsb	r6, r6, r3, lsr #16
  4050f8:	fa15 f383 	uxtah	r3, r5, r3
  4050fc:	eb06 4623 	add.w	r6, r6, r3, asr #16
  405100:	b29b      	uxth	r3, r3
  405102:	ea43 4306 	orr.w	r3, r3, r6, lsl #16
  405106:	45e2      	cmp	sl, ip
  405108:	ea4f 4512 	mov.w	r5, r2, lsr #16
  40510c:	f84e 3b04 	str.w	r3, [lr], #4
  405110:	ea4f 4626 	mov.w	r6, r6, asr #16
  405114:	d2e0      	bcs.n	4050d8 <quorem+0x48>
  405116:	9b00      	ldr	r3, [sp, #0]
  405118:	f85b 3003 	ldr.w	r3, [fp, r3]
  40511c:	b993      	cbnz	r3, 405144 <quorem+0xb4>
  40511e:	9c01      	ldr	r4, [sp, #4]
  405120:	1f23      	subs	r3, r4, #4
  405122:	459b      	cmp	fp, r3
  405124:	d20c      	bcs.n	405140 <quorem+0xb0>
  405126:	f854 3c04 	ldr.w	r3, [r4, #-4]
  40512a:	b94b      	cbnz	r3, 405140 <quorem+0xb0>
  40512c:	f1a4 0308 	sub.w	r3, r4, #8
  405130:	e002      	b.n	405138 <quorem+0xa8>
  405132:	681a      	ldr	r2, [r3, #0]
  405134:	3b04      	subs	r3, #4
  405136:	b91a      	cbnz	r2, 405140 <quorem+0xb0>
  405138:	459b      	cmp	fp, r3
  40513a:	f108 38ff 	add.w	r8, r8, #4294967295
  40513e:	d3f8      	bcc.n	405132 <quorem+0xa2>
  405140:	f8c0 8010 	str.w	r8, [r0, #16]
  405144:	4604      	mov	r4, r0
  405146:	f001 fd67 	bl	406c18 <__mcmp>
  40514a:	2800      	cmp	r0, #0
  40514c:	db2e      	blt.n	4051ac <quorem+0x11c>
  40514e:	f109 0901 	add.w	r9, r9, #1
  405152:	465d      	mov	r5, fp
  405154:	2300      	movs	r3, #0
  405156:	f857 1b04 	ldr.w	r1, [r7], #4
  40515a:	6828      	ldr	r0, [r5, #0]
  40515c:	b28a      	uxth	r2, r1
  40515e:	1a9a      	subs	r2, r3, r2
  405160:	0c0b      	lsrs	r3, r1, #16
  405162:	fa12 f280 	uxtah	r2, r2, r0
  405166:	ebc3 4310 	rsb	r3, r3, r0, lsr #16
  40516a:	eb03 4322 	add.w	r3, r3, r2, asr #16
  40516e:	b292      	uxth	r2, r2
  405170:	ea42 4203 	orr.w	r2, r2, r3, lsl #16
  405174:	45ba      	cmp	sl, r7
  405176:	f845 2b04 	str.w	r2, [r5], #4
  40517a:	ea4f 4323 	mov.w	r3, r3, asr #16
  40517e:	d2ea      	bcs.n	405156 <quorem+0xc6>
  405180:	f85b 2028 	ldr.w	r2, [fp, r8, lsl #2]
  405184:	eb0b 0388 	add.w	r3, fp, r8, lsl #2
  405188:	b982      	cbnz	r2, 4051ac <quorem+0x11c>
  40518a:	1f1a      	subs	r2, r3, #4
  40518c:	4593      	cmp	fp, r2
  40518e:	d20b      	bcs.n	4051a8 <quorem+0x118>
  405190:	f853 2c04 	ldr.w	r2, [r3, #-4]
  405194:	b942      	cbnz	r2, 4051a8 <quorem+0x118>
  405196:	3b08      	subs	r3, #8
  405198:	e002      	b.n	4051a0 <quorem+0x110>
  40519a:	681a      	ldr	r2, [r3, #0]
  40519c:	3b04      	subs	r3, #4
  40519e:	b91a      	cbnz	r2, 4051a8 <quorem+0x118>
  4051a0:	459b      	cmp	fp, r3
  4051a2:	f108 38ff 	add.w	r8, r8, #4294967295
  4051a6:	d3f8      	bcc.n	40519a <quorem+0x10a>
  4051a8:	f8c4 8010 	str.w	r8, [r4, #16]
  4051ac:	4648      	mov	r0, r9
  4051ae:	b003      	add	sp, #12
  4051b0:	e8bd 8ff0 	ldmia.w	sp!, {r4, r5, r6, r7, r8, r9, sl, fp, pc}
  4051b4:	2000      	movs	r0, #0
  4051b6:	4770      	bx	lr

004051b8 <_dtoa_r>:
  4051b8:	e92d 4ff0 	stmdb	sp!, {r4, r5, r6, r7, r8, r9, sl, fp, lr}
  4051bc:	6c01      	ldr	r1, [r0, #64]	; 0x40
  4051be:	b09b      	sub	sp, #108	; 0x6c
  4051c0:	4604      	mov	r4, r0
  4051c2:	9e27      	ldr	r6, [sp, #156]	; 0x9c
  4051c4:	4692      	mov	sl, r2
  4051c6:	469b      	mov	fp, r3
  4051c8:	b141      	cbz	r1, 4051dc <_dtoa_r+0x24>
  4051ca:	6c42      	ldr	r2, [r0, #68]	; 0x44
  4051cc:	604a      	str	r2, [r1, #4]
  4051ce:	2301      	movs	r3, #1
  4051d0:	4093      	lsls	r3, r2
  4051d2:	608b      	str	r3, [r1, #8]
  4051d4:	f001 fb48 	bl	406868 <_Bfree>
  4051d8:	2300      	movs	r3, #0
  4051da:	6423      	str	r3, [r4, #64]	; 0x40
  4051dc:	f1bb 0f00 	cmp.w	fp, #0
  4051e0:	465d      	mov	r5, fp
  4051e2:	db35      	blt.n	405250 <_dtoa_r+0x98>
  4051e4:	2300      	movs	r3, #0
  4051e6:	6033      	str	r3, [r6, #0]
  4051e8:	4b9d      	ldr	r3, [pc, #628]	; (405460 <_dtoa_r+0x2a8>)
  4051ea:	43ab      	bics	r3, r5
  4051ec:	d015      	beq.n	40521a <_dtoa_r+0x62>
  4051ee:	4650      	mov	r0, sl
  4051f0:	4659      	mov	r1, fp
  4051f2:	2200      	movs	r2, #0
  4051f4:	2300      	movs	r3, #0
  4051f6:	f002 ffa5 	bl	408144 <__aeabi_dcmpeq>
  4051fa:	4680      	mov	r8, r0
  4051fc:	2800      	cmp	r0, #0
  4051fe:	d02d      	beq.n	40525c <_dtoa_r+0xa4>
  405200:	9a26      	ldr	r2, [sp, #152]	; 0x98
  405202:	2301      	movs	r3, #1
  405204:	6013      	str	r3, [r2, #0]
  405206:	9b28      	ldr	r3, [sp, #160]	; 0xa0
  405208:	2b00      	cmp	r3, #0
  40520a:	f000 80bd 	beq.w	405388 <_dtoa_r+0x1d0>
  40520e:	4895      	ldr	r0, [pc, #596]	; (405464 <_dtoa_r+0x2ac>)
  405210:	6018      	str	r0, [r3, #0]
  405212:	3801      	subs	r0, #1
  405214:	b01b      	add	sp, #108	; 0x6c
  405216:	e8bd 8ff0 	ldmia.w	sp!, {r4, r5, r6, r7, r8, r9, sl, fp, pc}
  40521a:	9a26      	ldr	r2, [sp, #152]	; 0x98
  40521c:	f242 730f 	movw	r3, #9999	; 0x270f
  405220:	6013      	str	r3, [r2, #0]
  405222:	f1ba 0f00 	cmp.w	sl, #0
  405226:	d10d      	bne.n	405244 <_dtoa_r+0x8c>
  405228:	f3c5 0513 	ubfx	r5, r5, #0, #20
  40522c:	b955      	cbnz	r5, 405244 <_dtoa_r+0x8c>
  40522e:	9b28      	ldr	r3, [sp, #160]	; 0xa0
  405230:	488d      	ldr	r0, [pc, #564]	; (405468 <_dtoa_r+0x2b0>)
  405232:	2b00      	cmp	r3, #0
  405234:	d0ee      	beq.n	405214 <_dtoa_r+0x5c>
  405236:	f100 0308 	add.w	r3, r0, #8
  40523a:	9a28      	ldr	r2, [sp, #160]	; 0xa0
  40523c:	6013      	str	r3, [r2, #0]
  40523e:	b01b      	add	sp, #108	; 0x6c
  405240:	e8bd 8ff0 	ldmia.w	sp!, {r4, r5, r6, r7, r8, r9, sl, fp, pc}
  405244:	9b28      	ldr	r3, [sp, #160]	; 0xa0
  405246:	4889      	ldr	r0, [pc, #548]	; (40546c <_dtoa_r+0x2b4>)
  405248:	2b00      	cmp	r3, #0
  40524a:	d0e3      	beq.n	405214 <_dtoa_r+0x5c>
  40524c:	1cc3      	adds	r3, r0, #3
  40524e:	e7f4      	b.n	40523a <_dtoa_r+0x82>
  405250:	2301      	movs	r3, #1
  405252:	f02b 4500 	bic.w	r5, fp, #2147483648	; 0x80000000
  405256:	6033      	str	r3, [r6, #0]
  405258:	46ab      	mov	fp, r5
  40525a:	e7c5      	b.n	4051e8 <_dtoa_r+0x30>
  40525c:	aa18      	add	r2, sp, #96	; 0x60
  40525e:	ab19      	add	r3, sp, #100	; 0x64
  405260:	9201      	str	r2, [sp, #4]
  405262:	9300      	str	r3, [sp, #0]
  405264:	4652      	mov	r2, sl
  405266:	465b      	mov	r3, fp
  405268:	4620      	mov	r0, r4
  40526a:	f001 fd75 	bl	406d58 <__d2b>
  40526e:	0d2b      	lsrs	r3, r5, #20
  405270:	4681      	mov	r9, r0
  405272:	d071      	beq.n	405358 <_dtoa_r+0x1a0>
  405274:	f3cb 0213 	ubfx	r2, fp, #0, #20
  405278:	f042 517f 	orr.w	r1, r2, #1069547520	; 0x3fc00000
  40527c:	9f18      	ldr	r7, [sp, #96]	; 0x60
  40527e:	f8cd 8050 	str.w	r8, [sp, #80]	; 0x50
  405282:	4650      	mov	r0, sl
  405284:	f2a3 36ff 	subw	r6, r3, #1023	; 0x3ff
  405288:	f441 1140 	orr.w	r1, r1, #3145728	; 0x300000
  40528c:	2200      	movs	r2, #0
  40528e:	4b78      	ldr	r3, [pc, #480]	; (405470 <_dtoa_r+0x2b8>)
  405290:	f002 fb3c 	bl	40790c <__aeabi_dsub>
  405294:	a36c      	add	r3, pc, #432	; (adr r3, 405448 <_dtoa_r+0x290>)
  405296:	e9d3 2300 	ldrd	r2, r3, [r3]
  40529a:	f002 fceb 	bl	407c74 <__aeabi_dmul>
  40529e:	a36c      	add	r3, pc, #432	; (adr r3, 405450 <_dtoa_r+0x298>)
  4052a0:	e9d3 2300 	ldrd	r2, r3, [r3]
  4052a4:	f002 fb34 	bl	407910 <__adddf3>
  4052a8:	e9cd 0102 	strd	r0, r1, [sp, #8]
  4052ac:	4630      	mov	r0, r6
  4052ae:	f002 fc7b 	bl	407ba8 <__aeabi_i2d>
  4052b2:	a369      	add	r3, pc, #420	; (adr r3, 405458 <_dtoa_r+0x2a0>)
  4052b4:	e9d3 2300 	ldrd	r2, r3, [r3]
  4052b8:	f002 fcdc 	bl	407c74 <__aeabi_dmul>
  4052bc:	4602      	mov	r2, r0
  4052be:	460b      	mov	r3, r1
  4052c0:	e9dd 0102 	ldrd	r0, r1, [sp, #8]
  4052c4:	f002 fb24 	bl	407910 <__adddf3>
  4052c8:	e9cd 0104 	strd	r0, r1, [sp, #16]
  4052cc:	f002 ff82 	bl	4081d4 <__aeabi_d2iz>
  4052d0:	2200      	movs	r2, #0
  4052d2:	9002      	str	r0, [sp, #8]
  4052d4:	2300      	movs	r3, #0
  4052d6:	e9dd 0104 	ldrd	r0, r1, [sp, #16]
  4052da:	f002 ff3d 	bl	408158 <__aeabi_dcmplt>
  4052de:	2800      	cmp	r0, #0
  4052e0:	f040 8173 	bne.w	4055ca <_dtoa_r+0x412>
  4052e4:	9d02      	ldr	r5, [sp, #8]
  4052e6:	2d16      	cmp	r5, #22
  4052e8:	f200 815d 	bhi.w	4055a6 <_dtoa_r+0x3ee>
  4052ec:	4b61      	ldr	r3, [pc, #388]	; (405474 <_dtoa_r+0x2bc>)
  4052ee:	eb03 03c5 	add.w	r3, r3, r5, lsl #3
  4052f2:	e9d3 0100 	ldrd	r0, r1, [r3]
  4052f6:	4652      	mov	r2, sl
  4052f8:	465b      	mov	r3, fp
  4052fa:	f002 ff4b 	bl	408194 <__aeabi_dcmpgt>
  4052fe:	2800      	cmp	r0, #0
  405300:	f000 81c5 	beq.w	40568e <_dtoa_r+0x4d6>
  405304:	1e6b      	subs	r3, r5, #1
  405306:	9302      	str	r3, [sp, #8]
  405308:	2300      	movs	r3, #0
  40530a:	930e      	str	r3, [sp, #56]	; 0x38
  40530c:	1bbf      	subs	r7, r7, r6
  40530e:	1e7b      	subs	r3, r7, #1
  405310:	9306      	str	r3, [sp, #24]
  405312:	f100 8154 	bmi.w	4055be <_dtoa_r+0x406>
  405316:	2300      	movs	r3, #0
  405318:	9308      	str	r3, [sp, #32]
  40531a:	9b02      	ldr	r3, [sp, #8]
  40531c:	2b00      	cmp	r3, #0
  40531e:	f2c0 8145 	blt.w	4055ac <_dtoa_r+0x3f4>
  405322:	9a06      	ldr	r2, [sp, #24]
  405324:	930d      	str	r3, [sp, #52]	; 0x34
  405326:	4611      	mov	r1, r2
  405328:	4419      	add	r1, r3
  40532a:	2300      	movs	r3, #0
  40532c:	9106      	str	r1, [sp, #24]
  40532e:	930c      	str	r3, [sp, #48]	; 0x30
  405330:	9b24      	ldr	r3, [sp, #144]	; 0x90
  405332:	2b09      	cmp	r3, #9
  405334:	d82a      	bhi.n	40538c <_dtoa_r+0x1d4>
  405336:	2b05      	cmp	r3, #5
  405338:	f340 865b 	ble.w	405ff2 <_dtoa_r+0xe3a>
  40533c:	3b04      	subs	r3, #4
  40533e:	9324      	str	r3, [sp, #144]	; 0x90
  405340:	2500      	movs	r5, #0
  405342:	9b24      	ldr	r3, [sp, #144]	; 0x90
  405344:	3b02      	subs	r3, #2
  405346:	2b03      	cmp	r3, #3
  405348:	f200 8642 	bhi.w	405fd0 <_dtoa_r+0xe18>
  40534c:	e8df f013 	tbh	[pc, r3, lsl #1]
  405350:	02c903d4 	.word	0x02c903d4
  405354:	046103df 	.word	0x046103df
  405358:	9f18      	ldr	r7, [sp, #96]	; 0x60
  40535a:	9e19      	ldr	r6, [sp, #100]	; 0x64
  40535c:	443e      	add	r6, r7
  40535e:	f206 4332 	addw	r3, r6, #1074	; 0x432
  405362:	2b20      	cmp	r3, #32
  405364:	f340 818e 	ble.w	405684 <_dtoa_r+0x4cc>
  405368:	f1c3 0340 	rsb	r3, r3, #64	; 0x40
  40536c:	f206 4012 	addw	r0, r6, #1042	; 0x412
  405370:	409d      	lsls	r5, r3
  405372:	fa2a f000 	lsr.w	r0, sl, r0
  405376:	4328      	orrs	r0, r5
  405378:	f002 fc06 	bl	407b88 <__aeabi_ui2d>
  40537c:	2301      	movs	r3, #1
  40537e:	3e01      	subs	r6, #1
  405380:	f1a1 71f8 	sub.w	r1, r1, #32505856	; 0x1f00000
  405384:	9314      	str	r3, [sp, #80]	; 0x50
  405386:	e781      	b.n	40528c <_dtoa_r+0xd4>
  405388:	483b      	ldr	r0, [pc, #236]	; (405478 <_dtoa_r+0x2c0>)
  40538a:	e743      	b.n	405214 <_dtoa_r+0x5c>
  40538c:	2100      	movs	r1, #0
  40538e:	6461      	str	r1, [r4, #68]	; 0x44
  405390:	4620      	mov	r0, r4
  405392:	9125      	str	r1, [sp, #148]	; 0x94
  405394:	f001 fa42 	bl	40681c <_Balloc>
  405398:	f04f 33ff 	mov.w	r3, #4294967295
  40539c:	930a      	str	r3, [sp, #40]	; 0x28
  40539e:	9a25      	ldr	r2, [sp, #148]	; 0x94
  4053a0:	930f      	str	r3, [sp, #60]	; 0x3c
  4053a2:	2301      	movs	r3, #1
  4053a4:	9004      	str	r0, [sp, #16]
  4053a6:	6420      	str	r0, [r4, #64]	; 0x40
  4053a8:	9224      	str	r2, [sp, #144]	; 0x90
  4053aa:	930b      	str	r3, [sp, #44]	; 0x2c
  4053ac:	9b19      	ldr	r3, [sp, #100]	; 0x64
  4053ae:	2b00      	cmp	r3, #0
  4053b0:	f2c0 80d9 	blt.w	405566 <_dtoa_r+0x3ae>
  4053b4:	9a02      	ldr	r2, [sp, #8]
  4053b6:	2a0e      	cmp	r2, #14
  4053b8:	f300 80d5 	bgt.w	405566 <_dtoa_r+0x3ae>
  4053bc:	4b2d      	ldr	r3, [pc, #180]	; (405474 <_dtoa_r+0x2bc>)
  4053be:	eb03 03c2 	add.w	r3, r3, r2, lsl #3
  4053c2:	e9d3 2300 	ldrd	r2, r3, [r3]
  4053c6:	e9cd 2308 	strd	r2, r3, [sp, #32]
  4053ca:	9b25      	ldr	r3, [sp, #148]	; 0x94
  4053cc:	2b00      	cmp	r3, #0
  4053ce:	f2c0 83ba 	blt.w	405b46 <_dtoa_r+0x98e>
  4053d2:	e9dd 5608 	ldrd	r5, r6, [sp, #32]
  4053d6:	4650      	mov	r0, sl
  4053d8:	462a      	mov	r2, r5
  4053da:	4633      	mov	r3, r6
  4053dc:	4659      	mov	r1, fp
  4053de:	f002 fd73 	bl	407ec8 <__aeabi_ddiv>
  4053e2:	f002 fef7 	bl	4081d4 <__aeabi_d2iz>
  4053e6:	4680      	mov	r8, r0
  4053e8:	f002 fbde 	bl	407ba8 <__aeabi_i2d>
  4053ec:	462a      	mov	r2, r5
  4053ee:	4633      	mov	r3, r6
  4053f0:	f002 fc40 	bl	407c74 <__aeabi_dmul>
  4053f4:	460b      	mov	r3, r1
  4053f6:	4602      	mov	r2, r0
  4053f8:	4659      	mov	r1, fp
  4053fa:	4650      	mov	r0, sl
  4053fc:	f002 fa86 	bl	40790c <__aeabi_dsub>
  405400:	9d04      	ldr	r5, [sp, #16]
  405402:	f108 0330 	add.w	r3, r8, #48	; 0x30
  405406:	702b      	strb	r3, [r5, #0]
  405408:	9b0a      	ldr	r3, [sp, #40]	; 0x28
  40540a:	2b01      	cmp	r3, #1
  40540c:	4606      	mov	r6, r0
  40540e:	460f      	mov	r7, r1
  405410:	f105 0501 	add.w	r5, r5, #1
  405414:	d068      	beq.n	4054e8 <_dtoa_r+0x330>
  405416:	2200      	movs	r2, #0
  405418:	4b18      	ldr	r3, [pc, #96]	; (40547c <_dtoa_r+0x2c4>)
  40541a:	f002 fc2b 	bl	407c74 <__aeabi_dmul>
  40541e:	2200      	movs	r2, #0
  405420:	2300      	movs	r3, #0
  405422:	4606      	mov	r6, r0
  405424:	460f      	mov	r7, r1
  405426:	f002 fe8d 	bl	408144 <__aeabi_dcmpeq>
  40542a:	2800      	cmp	r0, #0
  40542c:	f040 8088 	bne.w	405540 <_dtoa_r+0x388>
  405430:	f8cd 902c 	str.w	r9, [sp, #44]	; 0x2c
  405434:	f04f 0a00 	mov.w	sl, #0
  405438:	f8df b040 	ldr.w	fp, [pc, #64]	; 40547c <_dtoa_r+0x2c4>
  40543c:	940c      	str	r4, [sp, #48]	; 0x30
  40543e:	e9dd 8908 	ldrd	r8, r9, [sp, #32]
  405442:	e028      	b.n	405496 <_dtoa_r+0x2de>
  405444:	f3af 8000 	nop.w
  405448:	636f4361 	.word	0x636f4361
  40544c:	3fd287a7 	.word	0x3fd287a7
  405450:	8b60c8b3 	.word	0x8b60c8b3
  405454:	3fc68a28 	.word	0x3fc68a28
  405458:	509f79fb 	.word	0x509f79fb
  40545c:	3fd34413 	.word	0x3fd34413
  405460:	7ff00000 	.word	0x7ff00000
  405464:	00408f01 	.word	0x00408f01
  405468:	00408f24 	.word	0x00408f24
  40546c:	00408f30 	.word	0x00408f30
  405470:	3ff80000 	.word	0x3ff80000
  405474:	00408f60 	.word	0x00408f60
  405478:	00408f00 	.word	0x00408f00
  40547c:	40240000 	.word	0x40240000
  405480:	f002 fbf8 	bl	407c74 <__aeabi_dmul>
  405484:	2200      	movs	r2, #0
  405486:	2300      	movs	r3, #0
  405488:	4606      	mov	r6, r0
  40548a:	460f      	mov	r7, r1
  40548c:	f002 fe5a 	bl	408144 <__aeabi_dcmpeq>
  405490:	2800      	cmp	r0, #0
  405492:	f040 83c1 	bne.w	405c18 <_dtoa_r+0xa60>
  405496:	4642      	mov	r2, r8
  405498:	464b      	mov	r3, r9
  40549a:	4630      	mov	r0, r6
  40549c:	4639      	mov	r1, r7
  40549e:	f002 fd13 	bl	407ec8 <__aeabi_ddiv>
  4054a2:	f002 fe97 	bl	4081d4 <__aeabi_d2iz>
  4054a6:	4604      	mov	r4, r0
  4054a8:	f002 fb7e 	bl	407ba8 <__aeabi_i2d>
  4054ac:	4642      	mov	r2, r8
  4054ae:	464b      	mov	r3, r9
  4054b0:	f002 fbe0 	bl	407c74 <__aeabi_dmul>
  4054b4:	4602      	mov	r2, r0
  4054b6:	460b      	mov	r3, r1
  4054b8:	4630      	mov	r0, r6
  4054ba:	4639      	mov	r1, r7
  4054bc:	f002 fa26 	bl	40790c <__aeabi_dsub>
  4054c0:	f104 0e30 	add.w	lr, r4, #48	; 0x30
  4054c4:	9e04      	ldr	r6, [sp, #16]
  4054c6:	f805 eb01 	strb.w	lr, [r5], #1
  4054ca:	eba5 0e06 	sub.w	lr, r5, r6
  4054ce:	9e0a      	ldr	r6, [sp, #40]	; 0x28
  4054d0:	45b6      	cmp	lr, r6
  4054d2:	e9cd 0106 	strd	r0, r1, [sp, #24]
  4054d6:	4652      	mov	r2, sl
  4054d8:	465b      	mov	r3, fp
  4054da:	d1d1      	bne.n	405480 <_dtoa_r+0x2c8>
  4054dc:	46a0      	mov	r8, r4
  4054de:	f8dd 902c 	ldr.w	r9, [sp, #44]	; 0x2c
  4054e2:	9c0c      	ldr	r4, [sp, #48]	; 0x30
  4054e4:	4606      	mov	r6, r0
  4054e6:	460f      	mov	r7, r1
  4054e8:	4632      	mov	r2, r6
  4054ea:	463b      	mov	r3, r7
  4054ec:	4630      	mov	r0, r6
  4054ee:	4639      	mov	r1, r7
  4054f0:	f002 fa0e 	bl	407910 <__adddf3>
  4054f4:	4606      	mov	r6, r0
  4054f6:	460f      	mov	r7, r1
  4054f8:	4602      	mov	r2, r0
  4054fa:	460b      	mov	r3, r1
  4054fc:	e9dd 0108 	ldrd	r0, r1, [sp, #32]
  405500:	f002 fe2a 	bl	408158 <__aeabi_dcmplt>
  405504:	b948      	cbnz	r0, 40551a <_dtoa_r+0x362>
  405506:	4632      	mov	r2, r6
  405508:	463b      	mov	r3, r7
  40550a:	e9dd 0108 	ldrd	r0, r1, [sp, #32]
  40550e:	f002 fe19 	bl	408144 <__aeabi_dcmpeq>
  405512:	b1a8      	cbz	r0, 405540 <_dtoa_r+0x388>
  405514:	f018 0f01 	tst.w	r8, #1
  405518:	d012      	beq.n	405540 <_dtoa_r+0x388>
  40551a:	f815 8c01 	ldrb.w	r8, [r5, #-1]
  40551e:	9a04      	ldr	r2, [sp, #16]
  405520:	1e6b      	subs	r3, r5, #1
  405522:	e004      	b.n	40552e <_dtoa_r+0x376>
  405524:	429a      	cmp	r2, r3
  405526:	f000 8401 	beq.w	405d2c <_dtoa_r+0xb74>
  40552a:	f813 8d01 	ldrb.w	r8, [r3, #-1]!
  40552e:	f1b8 0f39 	cmp.w	r8, #57	; 0x39
  405532:	f103 0501 	add.w	r5, r3, #1
  405536:	d0f5      	beq.n	405524 <_dtoa_r+0x36c>
  405538:	f108 0801 	add.w	r8, r8, #1
  40553c:	f883 8000 	strb.w	r8, [r3]
  405540:	4649      	mov	r1, r9
  405542:	4620      	mov	r0, r4
  405544:	f001 f990 	bl	406868 <_Bfree>
  405548:	2200      	movs	r2, #0
  40554a:	9b02      	ldr	r3, [sp, #8]
  40554c:	702a      	strb	r2, [r5, #0]
  40554e:	9a26      	ldr	r2, [sp, #152]	; 0x98
  405550:	3301      	adds	r3, #1
  405552:	6013      	str	r3, [r2, #0]
  405554:	9b28      	ldr	r3, [sp, #160]	; 0xa0
  405556:	2b00      	cmp	r3, #0
  405558:	f000 839e 	beq.w	405c98 <_dtoa_r+0xae0>
  40555c:	9804      	ldr	r0, [sp, #16]
  40555e:	601d      	str	r5, [r3, #0]
  405560:	b01b      	add	sp, #108	; 0x6c
  405562:	e8bd 8ff0 	ldmia.w	sp!, {r4, r5, r6, r7, r8, r9, sl, fp, pc}
  405566:	9a0b      	ldr	r2, [sp, #44]	; 0x2c
  405568:	2a00      	cmp	r2, #0
  40556a:	d03e      	beq.n	4055ea <_dtoa_r+0x432>
  40556c:	9a24      	ldr	r2, [sp, #144]	; 0x90
  40556e:	2a01      	cmp	r2, #1
  405570:	f340 8311 	ble.w	405b96 <_dtoa_r+0x9de>
  405574:	9b0a      	ldr	r3, [sp, #40]	; 0x28
  405576:	9a0c      	ldr	r2, [sp, #48]	; 0x30
  405578:	1e5f      	subs	r7, r3, #1
  40557a:	42ba      	cmp	r2, r7
  40557c:	f2c0 838f 	blt.w	405c9e <_dtoa_r+0xae6>
  405580:	1bd7      	subs	r7, r2, r7
  405582:	9b0a      	ldr	r3, [sp, #40]	; 0x28
  405584:	2b00      	cmp	r3, #0
  405586:	f2c0 848b 	blt.w	405ea0 <_dtoa_r+0xce8>
  40558a:	9d08      	ldr	r5, [sp, #32]
  40558c:	9b0a      	ldr	r3, [sp, #40]	; 0x28
  40558e:	9a08      	ldr	r2, [sp, #32]
  405590:	441a      	add	r2, r3
  405592:	9208      	str	r2, [sp, #32]
  405594:	9a06      	ldr	r2, [sp, #24]
  405596:	2101      	movs	r1, #1
  405598:	441a      	add	r2, r3
  40559a:	4620      	mov	r0, r4
  40559c:	9206      	str	r2, [sp, #24]
  40559e:	f001 f9fd 	bl	40699c <__i2b>
  4055a2:	4606      	mov	r6, r0
  4055a4:	e024      	b.n	4055f0 <_dtoa_r+0x438>
  4055a6:	2301      	movs	r3, #1
  4055a8:	930e      	str	r3, [sp, #56]	; 0x38
  4055aa:	e6af      	b.n	40530c <_dtoa_r+0x154>
  4055ac:	9a08      	ldr	r2, [sp, #32]
  4055ae:	9b02      	ldr	r3, [sp, #8]
  4055b0:	1ad2      	subs	r2, r2, r3
  4055b2:	425b      	negs	r3, r3
  4055b4:	930c      	str	r3, [sp, #48]	; 0x30
  4055b6:	2300      	movs	r3, #0
  4055b8:	9208      	str	r2, [sp, #32]
  4055ba:	930d      	str	r3, [sp, #52]	; 0x34
  4055bc:	e6b8      	b.n	405330 <_dtoa_r+0x178>
  4055be:	f1c7 0301 	rsb	r3, r7, #1
  4055c2:	9308      	str	r3, [sp, #32]
  4055c4:	2300      	movs	r3, #0
  4055c6:	9306      	str	r3, [sp, #24]
  4055c8:	e6a7      	b.n	40531a <_dtoa_r+0x162>
  4055ca:	9d02      	ldr	r5, [sp, #8]
  4055cc:	4628      	mov	r0, r5
  4055ce:	f002 faeb 	bl	407ba8 <__aeabi_i2d>
  4055d2:	4602      	mov	r2, r0
  4055d4:	460b      	mov	r3, r1
  4055d6:	e9dd 0104 	ldrd	r0, r1, [sp, #16]
  4055da:	f002 fdb3 	bl	408144 <__aeabi_dcmpeq>
  4055de:	2800      	cmp	r0, #0
  4055e0:	f47f ae80 	bne.w	4052e4 <_dtoa_r+0x12c>
  4055e4:	1e6b      	subs	r3, r5, #1
  4055e6:	9302      	str	r3, [sp, #8]
  4055e8:	e67c      	b.n	4052e4 <_dtoa_r+0x12c>
  4055ea:	9f0c      	ldr	r7, [sp, #48]	; 0x30
  4055ec:	9d08      	ldr	r5, [sp, #32]
  4055ee:	9e0b      	ldr	r6, [sp, #44]	; 0x2c
  4055f0:	2d00      	cmp	r5, #0
  4055f2:	dd0c      	ble.n	40560e <_dtoa_r+0x456>
  4055f4:	9906      	ldr	r1, [sp, #24]
  4055f6:	2900      	cmp	r1, #0
  4055f8:	460b      	mov	r3, r1
  4055fa:	dd08      	ble.n	40560e <_dtoa_r+0x456>
  4055fc:	42a9      	cmp	r1, r5
  4055fe:	9a08      	ldr	r2, [sp, #32]
  405600:	bfa8      	it	ge
  405602:	462b      	movge	r3, r5
  405604:	1ad2      	subs	r2, r2, r3
  405606:	1aed      	subs	r5, r5, r3
  405608:	1acb      	subs	r3, r1, r3
  40560a:	9208      	str	r2, [sp, #32]
  40560c:	9306      	str	r3, [sp, #24]
  40560e:	9b0c      	ldr	r3, [sp, #48]	; 0x30
  405610:	b1d3      	cbz	r3, 405648 <_dtoa_r+0x490>
  405612:	9b0b      	ldr	r3, [sp, #44]	; 0x2c
  405614:	2b00      	cmp	r3, #0
  405616:	f000 82b7 	beq.w	405b88 <_dtoa_r+0x9d0>
  40561a:	2f00      	cmp	r7, #0
  40561c:	dd10      	ble.n	405640 <_dtoa_r+0x488>
  40561e:	4631      	mov	r1, r6
  405620:	463a      	mov	r2, r7
  405622:	4620      	mov	r0, r4
  405624:	f001 fa56 	bl	406ad4 <__pow5mult>
  405628:	464a      	mov	r2, r9
  40562a:	4601      	mov	r1, r0
  40562c:	4606      	mov	r6, r0
  40562e:	4620      	mov	r0, r4
  405630:	f001 f9be 	bl	4069b0 <__multiply>
  405634:	4649      	mov	r1, r9
  405636:	4680      	mov	r8, r0
  405638:	4620      	mov	r0, r4
  40563a:	f001 f915 	bl	406868 <_Bfree>
  40563e:	46c1      	mov	r9, r8
  405640:	9b0c      	ldr	r3, [sp, #48]	; 0x30
  405642:	1bda      	subs	r2, r3, r7
  405644:	f040 82a1 	bne.w	405b8a <_dtoa_r+0x9d2>
  405648:	2101      	movs	r1, #1
  40564a:	4620      	mov	r0, r4
  40564c:	f001 f9a6 	bl	40699c <__i2b>
  405650:	9b0d      	ldr	r3, [sp, #52]	; 0x34
  405652:	2b00      	cmp	r3, #0
  405654:	4680      	mov	r8, r0
  405656:	dd1c      	ble.n	405692 <_dtoa_r+0x4da>
  405658:	4601      	mov	r1, r0
  40565a:	461a      	mov	r2, r3
  40565c:	4620      	mov	r0, r4
  40565e:	f001 fa39 	bl	406ad4 <__pow5mult>
  405662:	9b24      	ldr	r3, [sp, #144]	; 0x90
  405664:	2b01      	cmp	r3, #1
  405666:	4680      	mov	r8, r0
  405668:	f340 8254 	ble.w	405b14 <_dtoa_r+0x95c>
  40566c:	2300      	movs	r3, #0
  40566e:	930c      	str	r3, [sp, #48]	; 0x30
  405670:	f8d8 3010 	ldr.w	r3, [r8, #16]
  405674:	eb08 0383 	add.w	r3, r8, r3, lsl #2
  405678:	6918      	ldr	r0, [r3, #16]
  40567a:	f001 f93f 	bl	4068fc <__hi0bits>
  40567e:	f1c0 0020 	rsb	r0, r0, #32
  405682:	e010      	b.n	4056a6 <_dtoa_r+0x4ee>
  405684:	f1c3 0520 	rsb	r5, r3, #32
  405688:	fa0a f005 	lsl.w	r0, sl, r5
  40568c:	e674      	b.n	405378 <_dtoa_r+0x1c0>
  40568e:	900e      	str	r0, [sp, #56]	; 0x38
  405690:	e63c      	b.n	40530c <_dtoa_r+0x154>
  405692:	9b24      	ldr	r3, [sp, #144]	; 0x90
  405694:	2b01      	cmp	r3, #1
  405696:	f340 8287 	ble.w	405ba8 <_dtoa_r+0x9f0>
  40569a:	2300      	movs	r3, #0
  40569c:	930c      	str	r3, [sp, #48]	; 0x30
  40569e:	9b0d      	ldr	r3, [sp, #52]	; 0x34
  4056a0:	2001      	movs	r0, #1
  4056a2:	2b00      	cmp	r3, #0
  4056a4:	d1e4      	bne.n	405670 <_dtoa_r+0x4b8>
  4056a6:	9a06      	ldr	r2, [sp, #24]
  4056a8:	4410      	add	r0, r2
  4056aa:	f010 001f 	ands.w	r0, r0, #31
  4056ae:	f000 80a1 	beq.w	4057f4 <_dtoa_r+0x63c>
  4056b2:	f1c0 0320 	rsb	r3, r0, #32
  4056b6:	2b04      	cmp	r3, #4
  4056b8:	f340 849e 	ble.w	405ff8 <_dtoa_r+0xe40>
  4056bc:	9b08      	ldr	r3, [sp, #32]
  4056be:	f1c0 001c 	rsb	r0, r0, #28
  4056c2:	4403      	add	r3, r0
  4056c4:	9308      	str	r3, [sp, #32]
  4056c6:	4613      	mov	r3, r2
  4056c8:	4403      	add	r3, r0
  4056ca:	4405      	add	r5, r0
  4056cc:	9306      	str	r3, [sp, #24]
  4056ce:	9b08      	ldr	r3, [sp, #32]
  4056d0:	2b00      	cmp	r3, #0
  4056d2:	dd05      	ble.n	4056e0 <_dtoa_r+0x528>
  4056d4:	4649      	mov	r1, r9
  4056d6:	461a      	mov	r2, r3
  4056d8:	4620      	mov	r0, r4
  4056da:	f001 fa4b 	bl	406b74 <__lshift>
  4056de:	4681      	mov	r9, r0
  4056e0:	9b06      	ldr	r3, [sp, #24]
  4056e2:	2b00      	cmp	r3, #0
  4056e4:	dd05      	ble.n	4056f2 <_dtoa_r+0x53a>
  4056e6:	4641      	mov	r1, r8
  4056e8:	461a      	mov	r2, r3
  4056ea:	4620      	mov	r0, r4
  4056ec:	f001 fa42 	bl	406b74 <__lshift>
  4056f0:	4680      	mov	r8, r0
  4056f2:	9b0e      	ldr	r3, [sp, #56]	; 0x38
  4056f4:	2b00      	cmp	r3, #0
  4056f6:	f040 8086 	bne.w	405806 <_dtoa_r+0x64e>
  4056fa:	9b0a      	ldr	r3, [sp, #40]	; 0x28
  4056fc:	2b00      	cmp	r3, #0
  4056fe:	f340 8266 	ble.w	405bce <_dtoa_r+0xa16>
  405702:	9b0b      	ldr	r3, [sp, #44]	; 0x2c
  405704:	2b00      	cmp	r3, #0
  405706:	f000 8098 	beq.w	40583a <_dtoa_r+0x682>
  40570a:	2d00      	cmp	r5, #0
  40570c:	dd05      	ble.n	40571a <_dtoa_r+0x562>
  40570e:	4631      	mov	r1, r6
  405710:	462a      	mov	r2, r5
  405712:	4620      	mov	r0, r4
  405714:	f001 fa2e 	bl	406b74 <__lshift>
  405718:	4606      	mov	r6, r0
  40571a:	9b0c      	ldr	r3, [sp, #48]	; 0x30
  40571c:	2b00      	cmp	r3, #0
  40571e:	f040 8337 	bne.w	405d90 <_dtoa_r+0xbd8>
  405722:	9606      	str	r6, [sp, #24]
  405724:	9b0a      	ldr	r3, [sp, #40]	; 0x28
  405726:	9a04      	ldr	r2, [sp, #16]
  405728:	f8dd b018 	ldr.w	fp, [sp, #24]
  40572c:	3b01      	subs	r3, #1
  40572e:	18d3      	adds	r3, r2, r3
  405730:	930b      	str	r3, [sp, #44]	; 0x2c
  405732:	f00a 0301 	and.w	r3, sl, #1
  405736:	930c      	str	r3, [sp, #48]	; 0x30
  405738:	4617      	mov	r7, r2
  40573a:	46c2      	mov	sl, r8
  40573c:	4651      	mov	r1, sl
  40573e:	4648      	mov	r0, r9
  405740:	f7ff fca6 	bl	405090 <quorem>
  405744:	4631      	mov	r1, r6
  405746:	4605      	mov	r5, r0
  405748:	4648      	mov	r0, r9
  40574a:	f001 fa65 	bl	406c18 <__mcmp>
  40574e:	465a      	mov	r2, fp
  405750:	900a      	str	r0, [sp, #40]	; 0x28
  405752:	4651      	mov	r1, sl
  405754:	4620      	mov	r0, r4
  405756:	f001 fa7b 	bl	406c50 <__mdiff>
  40575a:	68c2      	ldr	r2, [r0, #12]
  40575c:	4680      	mov	r8, r0
  40575e:	f105 0330 	add.w	r3, r5, #48	; 0x30
  405762:	2a00      	cmp	r2, #0
  405764:	f040 822b 	bne.w	405bbe <_dtoa_r+0xa06>
  405768:	4601      	mov	r1, r0
  40576a:	4648      	mov	r0, r9
  40576c:	9308      	str	r3, [sp, #32]
  40576e:	f001 fa53 	bl	406c18 <__mcmp>
  405772:	4641      	mov	r1, r8
  405774:	9006      	str	r0, [sp, #24]
  405776:	4620      	mov	r0, r4
  405778:	f001 f876 	bl	406868 <_Bfree>
  40577c:	9a06      	ldr	r2, [sp, #24]
  40577e:	9b08      	ldr	r3, [sp, #32]
  405780:	b932      	cbnz	r2, 405790 <_dtoa_r+0x5d8>
  405782:	9924      	ldr	r1, [sp, #144]	; 0x90
  405784:	b921      	cbnz	r1, 405790 <_dtoa_r+0x5d8>
  405786:	9a0c      	ldr	r2, [sp, #48]	; 0x30
  405788:	2a00      	cmp	r2, #0
  40578a:	f000 83ef 	beq.w	405f6c <_dtoa_r+0xdb4>
  40578e:	9a24      	ldr	r2, [sp, #144]	; 0x90
  405790:	990a      	ldr	r1, [sp, #40]	; 0x28
  405792:	2900      	cmp	r1, #0
  405794:	f2c0 829f 	blt.w	405cd6 <_dtoa_r+0xb1e>
  405798:	d105      	bne.n	4057a6 <_dtoa_r+0x5ee>
  40579a:	9924      	ldr	r1, [sp, #144]	; 0x90
  40579c:	b919      	cbnz	r1, 4057a6 <_dtoa_r+0x5ee>
  40579e:	990c      	ldr	r1, [sp, #48]	; 0x30
  4057a0:	2900      	cmp	r1, #0
  4057a2:	f000 8298 	beq.w	405cd6 <_dtoa_r+0xb1e>
  4057a6:	2a00      	cmp	r2, #0
  4057a8:	f300 8306 	bgt.w	405db8 <_dtoa_r+0xc00>
  4057ac:	9a0b      	ldr	r2, [sp, #44]	; 0x2c
  4057ae:	703b      	strb	r3, [r7, #0]
  4057b0:	f107 0801 	add.w	r8, r7, #1
  4057b4:	4297      	cmp	r7, r2
  4057b6:	4645      	mov	r5, r8
  4057b8:	f000 830c 	beq.w	405dd4 <_dtoa_r+0xc1c>
  4057bc:	4649      	mov	r1, r9
  4057be:	2300      	movs	r3, #0
  4057c0:	220a      	movs	r2, #10
  4057c2:	4620      	mov	r0, r4
  4057c4:	f001 f85a 	bl	40687c <__multadd>
  4057c8:	455e      	cmp	r6, fp
  4057ca:	4681      	mov	r9, r0
  4057cc:	4631      	mov	r1, r6
  4057ce:	f04f 0300 	mov.w	r3, #0
  4057d2:	f04f 020a 	mov.w	r2, #10
  4057d6:	4620      	mov	r0, r4
  4057d8:	f000 81eb 	beq.w	405bb2 <_dtoa_r+0x9fa>
  4057dc:	f001 f84e 	bl	40687c <__multadd>
  4057e0:	4659      	mov	r1, fp
  4057e2:	4606      	mov	r6, r0
  4057e4:	2300      	movs	r3, #0
  4057e6:	220a      	movs	r2, #10
  4057e8:	4620      	mov	r0, r4
  4057ea:	f001 f847 	bl	40687c <__multadd>
  4057ee:	4647      	mov	r7, r8
  4057f0:	4683      	mov	fp, r0
  4057f2:	e7a3      	b.n	40573c <_dtoa_r+0x584>
  4057f4:	201c      	movs	r0, #28
  4057f6:	9b08      	ldr	r3, [sp, #32]
  4057f8:	4403      	add	r3, r0
  4057fa:	9308      	str	r3, [sp, #32]
  4057fc:	9b06      	ldr	r3, [sp, #24]
  4057fe:	4403      	add	r3, r0
  405800:	4405      	add	r5, r0
  405802:	9306      	str	r3, [sp, #24]
  405804:	e763      	b.n	4056ce <_dtoa_r+0x516>
  405806:	4641      	mov	r1, r8
  405808:	4648      	mov	r0, r9
  40580a:	f001 fa05 	bl	406c18 <__mcmp>
  40580e:	2800      	cmp	r0, #0
  405810:	f6bf af73 	bge.w	4056fa <_dtoa_r+0x542>
  405814:	9f02      	ldr	r7, [sp, #8]
  405816:	4649      	mov	r1, r9
  405818:	2300      	movs	r3, #0
  40581a:	220a      	movs	r2, #10
  40581c:	4620      	mov	r0, r4
  40581e:	3f01      	subs	r7, #1
  405820:	9702      	str	r7, [sp, #8]
  405822:	f001 f82b 	bl	40687c <__multadd>
  405826:	9b0b      	ldr	r3, [sp, #44]	; 0x2c
  405828:	4681      	mov	r9, r0
  40582a:	2b00      	cmp	r3, #0
  40582c:	f040 83b6 	bne.w	405f9c <_dtoa_r+0xde4>
  405830:	9b0f      	ldr	r3, [sp, #60]	; 0x3c
  405832:	2b00      	cmp	r3, #0
  405834:	f340 83bf 	ble.w	405fb6 <_dtoa_r+0xdfe>
  405838:	930a      	str	r3, [sp, #40]	; 0x28
  40583a:	f8dd b010 	ldr.w	fp, [sp, #16]
  40583e:	9f0a      	ldr	r7, [sp, #40]	; 0x28
  405840:	465d      	mov	r5, fp
  405842:	e002      	b.n	40584a <_dtoa_r+0x692>
  405844:	f001 f81a 	bl	40687c <__multadd>
  405848:	4681      	mov	r9, r0
  40584a:	4641      	mov	r1, r8
  40584c:	4648      	mov	r0, r9
  40584e:	f7ff fc1f 	bl	405090 <quorem>
  405852:	f100 0a30 	add.w	sl, r0, #48	; 0x30
  405856:	f805 ab01 	strb.w	sl, [r5], #1
  40585a:	eba5 030b 	sub.w	r3, r5, fp
  40585e:	42bb      	cmp	r3, r7
  405860:	f04f 020a 	mov.w	r2, #10
  405864:	f04f 0300 	mov.w	r3, #0
  405868:	4649      	mov	r1, r9
  40586a:	4620      	mov	r0, r4
  40586c:	dbea      	blt.n	405844 <_dtoa_r+0x68c>
  40586e:	9b04      	ldr	r3, [sp, #16]
  405870:	9a0a      	ldr	r2, [sp, #40]	; 0x28
  405872:	2a01      	cmp	r2, #1
  405874:	bfac      	ite	ge
  405876:	189b      	addge	r3, r3, r2
  405878:	3301      	addlt	r3, #1
  40587a:	461d      	mov	r5, r3
  40587c:	f04f 0b00 	mov.w	fp, #0
  405880:	4649      	mov	r1, r9
  405882:	2201      	movs	r2, #1
  405884:	4620      	mov	r0, r4
  405886:	f001 f975 	bl	406b74 <__lshift>
  40588a:	4641      	mov	r1, r8
  40588c:	4681      	mov	r9, r0
  40588e:	f001 f9c3 	bl	406c18 <__mcmp>
  405892:	2800      	cmp	r0, #0
  405894:	f340 823d 	ble.w	405d12 <_dtoa_r+0xb5a>
  405898:	f815 2c01 	ldrb.w	r2, [r5, #-1]
  40589c:	9904      	ldr	r1, [sp, #16]
  40589e:	1e6b      	subs	r3, r5, #1
  4058a0:	e004      	b.n	4058ac <_dtoa_r+0x6f4>
  4058a2:	428b      	cmp	r3, r1
  4058a4:	f000 81ae 	beq.w	405c04 <_dtoa_r+0xa4c>
  4058a8:	f813 2d01 	ldrb.w	r2, [r3, #-1]!
  4058ac:	2a39      	cmp	r2, #57	; 0x39
  4058ae:	f103 0501 	add.w	r5, r3, #1
  4058b2:	d0f6      	beq.n	4058a2 <_dtoa_r+0x6ea>
  4058b4:	3201      	adds	r2, #1
  4058b6:	701a      	strb	r2, [r3, #0]
  4058b8:	4641      	mov	r1, r8
  4058ba:	4620      	mov	r0, r4
  4058bc:	f000 ffd4 	bl	406868 <_Bfree>
  4058c0:	2e00      	cmp	r6, #0
  4058c2:	f43f ae3d 	beq.w	405540 <_dtoa_r+0x388>
  4058c6:	f1bb 0f00 	cmp.w	fp, #0
  4058ca:	d005      	beq.n	4058d8 <_dtoa_r+0x720>
  4058cc:	45b3      	cmp	fp, r6
  4058ce:	d003      	beq.n	4058d8 <_dtoa_r+0x720>
  4058d0:	4659      	mov	r1, fp
  4058d2:	4620      	mov	r0, r4
  4058d4:	f000 ffc8 	bl	406868 <_Bfree>
  4058d8:	4631      	mov	r1, r6
  4058da:	4620      	mov	r0, r4
  4058dc:	f000 ffc4 	bl	406868 <_Bfree>
  4058e0:	e62e      	b.n	405540 <_dtoa_r+0x388>
  4058e2:	2300      	movs	r3, #0
  4058e4:	930b      	str	r3, [sp, #44]	; 0x2c
  4058e6:	9b02      	ldr	r3, [sp, #8]
  4058e8:	9a25      	ldr	r2, [sp, #148]	; 0x94
  4058ea:	4413      	add	r3, r2
  4058ec:	930f      	str	r3, [sp, #60]	; 0x3c
  4058ee:	3301      	adds	r3, #1
  4058f0:	2b01      	cmp	r3, #1
  4058f2:	461f      	mov	r7, r3
  4058f4:	461e      	mov	r6, r3
  4058f6:	930a      	str	r3, [sp, #40]	; 0x28
  4058f8:	bfb8      	it	lt
  4058fa:	2701      	movlt	r7, #1
  4058fc:	2100      	movs	r1, #0
  4058fe:	2f17      	cmp	r7, #23
  405900:	6461      	str	r1, [r4, #68]	; 0x44
  405902:	d90a      	bls.n	40591a <_dtoa_r+0x762>
  405904:	2201      	movs	r2, #1
  405906:	2304      	movs	r3, #4
  405908:	005b      	lsls	r3, r3, #1
  40590a:	f103 0014 	add.w	r0, r3, #20
  40590e:	4287      	cmp	r7, r0
  405910:	4611      	mov	r1, r2
  405912:	f102 0201 	add.w	r2, r2, #1
  405916:	d2f7      	bcs.n	405908 <_dtoa_r+0x750>
  405918:	6461      	str	r1, [r4, #68]	; 0x44
  40591a:	4620      	mov	r0, r4
  40591c:	f000 ff7e 	bl	40681c <_Balloc>
  405920:	2e0e      	cmp	r6, #14
  405922:	9004      	str	r0, [sp, #16]
  405924:	6420      	str	r0, [r4, #64]	; 0x40
  405926:	f63f ad41 	bhi.w	4053ac <_dtoa_r+0x1f4>
  40592a:	2d00      	cmp	r5, #0
  40592c:	f43f ad3e 	beq.w	4053ac <_dtoa_r+0x1f4>
  405930:	9902      	ldr	r1, [sp, #8]
  405932:	2900      	cmp	r1, #0
  405934:	e9cd ab10 	strd	sl, fp, [sp, #64]	; 0x40
  405938:	f340 8202 	ble.w	405d40 <_dtoa_r+0xb88>
  40593c:	4bb8      	ldr	r3, [pc, #736]	; (405c20 <_dtoa_r+0xa68>)
  40593e:	f001 020f 	and.w	r2, r1, #15
  405942:	110d      	asrs	r5, r1, #4
  405944:	eb03 03c2 	add.w	r3, r3, r2, lsl #3
  405948:	06e9      	lsls	r1, r5, #27
  40594a:	e9d3 6700 	ldrd	r6, r7, [r3]
  40594e:	f140 81ae 	bpl.w	405cae <_dtoa_r+0xaf6>
  405952:	4bb4      	ldr	r3, [pc, #720]	; (405c24 <_dtoa_r+0xa6c>)
  405954:	4650      	mov	r0, sl
  405956:	4659      	mov	r1, fp
  405958:	e9d3 2308 	ldrd	r2, r3, [r3, #32]
  40595c:	f002 fab4 	bl	407ec8 <__aeabi_ddiv>
  405960:	e9cd 0112 	strd	r0, r1, [sp, #72]	; 0x48
  405964:	f005 050f 	and.w	r5, r5, #15
  405968:	f04f 0a03 	mov.w	sl, #3
  40596c:	b18d      	cbz	r5, 405992 <_dtoa_r+0x7da>
  40596e:	f8df 82b4 	ldr.w	r8, [pc, #692]	; 405c24 <_dtoa_r+0xa6c>
  405972:	07ea      	lsls	r2, r5, #31
  405974:	d509      	bpl.n	40598a <_dtoa_r+0x7d2>
  405976:	4630      	mov	r0, r6
  405978:	4639      	mov	r1, r7
  40597a:	e9d8 2300 	ldrd	r2, r3, [r8]
  40597e:	f002 f979 	bl	407c74 <__aeabi_dmul>
  405982:	f10a 0a01 	add.w	sl, sl, #1
  405986:	4606      	mov	r6, r0
  405988:	460f      	mov	r7, r1
  40598a:	106d      	asrs	r5, r5, #1
  40598c:	f108 0808 	add.w	r8, r8, #8
  405990:	d1ef      	bne.n	405972 <_dtoa_r+0x7ba>
  405992:	463b      	mov	r3, r7
  405994:	4632      	mov	r2, r6
  405996:	e9dd 0112 	ldrd	r0, r1, [sp, #72]	; 0x48
  40599a:	f002 fa95 	bl	407ec8 <__aeabi_ddiv>
  40599e:	4607      	mov	r7, r0
  4059a0:	4688      	mov	r8, r1
  4059a2:	9b0e      	ldr	r3, [sp, #56]	; 0x38
  4059a4:	b143      	cbz	r3, 4059b8 <_dtoa_r+0x800>
  4059a6:	2200      	movs	r2, #0
  4059a8:	4b9f      	ldr	r3, [pc, #636]	; (405c28 <_dtoa_r+0xa70>)
  4059aa:	4638      	mov	r0, r7
  4059ac:	4641      	mov	r1, r8
  4059ae:	f002 fbd3 	bl	408158 <__aeabi_dcmplt>
  4059b2:	2800      	cmp	r0, #0
  4059b4:	f040 8286 	bne.w	405ec4 <_dtoa_r+0xd0c>
  4059b8:	4650      	mov	r0, sl
  4059ba:	f002 f8f5 	bl	407ba8 <__aeabi_i2d>
  4059be:	463a      	mov	r2, r7
  4059c0:	4643      	mov	r3, r8
  4059c2:	f002 f957 	bl	407c74 <__aeabi_dmul>
  4059c6:	4b99      	ldr	r3, [pc, #612]	; (405c2c <_dtoa_r+0xa74>)
  4059c8:	2200      	movs	r2, #0
  4059ca:	f001 ffa1 	bl	407910 <__adddf3>
  4059ce:	9b0a      	ldr	r3, [sp, #40]	; 0x28
  4059d0:	4605      	mov	r5, r0
  4059d2:	f1a1 7650 	sub.w	r6, r1, #54525952	; 0x3400000
  4059d6:	2b00      	cmp	r3, #0
  4059d8:	f000 813e 	beq.w	405c58 <_dtoa_r+0xaa0>
  4059dc:	9b02      	ldr	r3, [sp, #8]
  4059de:	9315      	str	r3, [sp, #84]	; 0x54
  4059e0:	9b0a      	ldr	r3, [sp, #40]	; 0x28
  4059e2:	9312      	str	r3, [sp, #72]	; 0x48
  4059e4:	9b0b      	ldr	r3, [sp, #44]	; 0x2c
  4059e6:	2b00      	cmp	r3, #0
  4059e8:	f000 81fa 	beq.w	405de0 <_dtoa_r+0xc28>
  4059ec:	9a12      	ldr	r2, [sp, #72]	; 0x48
  4059ee:	4b8c      	ldr	r3, [pc, #560]	; (405c20 <_dtoa_r+0xa68>)
  4059f0:	498f      	ldr	r1, [pc, #572]	; (405c30 <_dtoa_r+0xa78>)
  4059f2:	eb03 03c2 	add.w	r3, r3, r2, lsl #3
  4059f6:	e953 2302 	ldrd	r2, r3, [r3, #-8]
  4059fa:	2000      	movs	r0, #0
  4059fc:	f002 fa64 	bl	407ec8 <__aeabi_ddiv>
  405a00:	462a      	mov	r2, r5
  405a02:	4633      	mov	r3, r6
  405a04:	f001 ff82 	bl	40790c <__aeabi_dsub>
  405a08:	4682      	mov	sl, r0
  405a0a:	468b      	mov	fp, r1
  405a0c:	4638      	mov	r0, r7
  405a0e:	4641      	mov	r1, r8
  405a10:	f002 fbe0 	bl	4081d4 <__aeabi_d2iz>
  405a14:	4605      	mov	r5, r0
  405a16:	f002 f8c7 	bl	407ba8 <__aeabi_i2d>
  405a1a:	4602      	mov	r2, r0
  405a1c:	460b      	mov	r3, r1
  405a1e:	4638      	mov	r0, r7
  405a20:	4641      	mov	r1, r8
  405a22:	f001 ff73 	bl	40790c <__aeabi_dsub>
  405a26:	3530      	adds	r5, #48	; 0x30
  405a28:	fa5f f885 	uxtb.w	r8, r5
  405a2c:	9d04      	ldr	r5, [sp, #16]
  405a2e:	4606      	mov	r6, r0
  405a30:	460f      	mov	r7, r1
  405a32:	f885 8000 	strb.w	r8, [r5]
  405a36:	4602      	mov	r2, r0
  405a38:	460b      	mov	r3, r1
  405a3a:	4650      	mov	r0, sl
  405a3c:	4659      	mov	r1, fp
  405a3e:	3501      	adds	r5, #1
  405a40:	f002 fba8 	bl	408194 <__aeabi_dcmpgt>
  405a44:	2800      	cmp	r0, #0
  405a46:	d154      	bne.n	405af2 <_dtoa_r+0x93a>
  405a48:	4632      	mov	r2, r6
  405a4a:	463b      	mov	r3, r7
  405a4c:	2000      	movs	r0, #0
  405a4e:	4976      	ldr	r1, [pc, #472]	; (405c28 <_dtoa_r+0xa70>)
  405a50:	f001 ff5c 	bl	40790c <__aeabi_dsub>
  405a54:	4602      	mov	r2, r0
  405a56:	460b      	mov	r3, r1
  405a58:	4650      	mov	r0, sl
  405a5a:	4659      	mov	r1, fp
  405a5c:	f002 fb9a 	bl	408194 <__aeabi_dcmpgt>
  405a60:	2800      	cmp	r0, #0
  405a62:	f040 8270 	bne.w	405f46 <_dtoa_r+0xd8e>
  405a66:	9a12      	ldr	r2, [sp, #72]	; 0x48
  405a68:	2a01      	cmp	r2, #1
  405a6a:	f000 8111 	beq.w	405c90 <_dtoa_r+0xad8>
  405a6e:	9b12      	ldr	r3, [sp, #72]	; 0x48
  405a70:	9a04      	ldr	r2, [sp, #16]
  405a72:	f8cd 9048 	str.w	r9, [sp, #72]	; 0x48
  405a76:	4413      	add	r3, r2
  405a78:	4699      	mov	r9, r3
  405a7a:	e00d      	b.n	405a98 <_dtoa_r+0x8e0>
  405a7c:	2000      	movs	r0, #0
  405a7e:	496a      	ldr	r1, [pc, #424]	; (405c28 <_dtoa_r+0xa70>)
  405a80:	f001 ff44 	bl	40790c <__aeabi_dsub>
  405a84:	4652      	mov	r2, sl
  405a86:	465b      	mov	r3, fp
  405a88:	f002 fb66 	bl	408158 <__aeabi_dcmplt>
  405a8c:	2800      	cmp	r0, #0
  405a8e:	f040 8258 	bne.w	405f42 <_dtoa_r+0xd8a>
  405a92:	454d      	cmp	r5, r9
  405a94:	f000 80fa 	beq.w	405c8c <_dtoa_r+0xad4>
  405a98:	4650      	mov	r0, sl
  405a9a:	4659      	mov	r1, fp
  405a9c:	2200      	movs	r2, #0
  405a9e:	4b65      	ldr	r3, [pc, #404]	; (405c34 <_dtoa_r+0xa7c>)
  405aa0:	f002 f8e8 	bl	407c74 <__aeabi_dmul>
  405aa4:	2200      	movs	r2, #0
  405aa6:	4b63      	ldr	r3, [pc, #396]	; (405c34 <_dtoa_r+0xa7c>)
  405aa8:	4682      	mov	sl, r0
  405aaa:	468b      	mov	fp, r1
  405aac:	4630      	mov	r0, r6
  405aae:	4639      	mov	r1, r7
  405ab0:	f002 f8e0 	bl	407c74 <__aeabi_dmul>
  405ab4:	460f      	mov	r7, r1
  405ab6:	4606      	mov	r6, r0
  405ab8:	f002 fb8c 	bl	4081d4 <__aeabi_d2iz>
  405abc:	4680      	mov	r8, r0
  405abe:	f002 f873 	bl	407ba8 <__aeabi_i2d>
  405ac2:	4602      	mov	r2, r0
  405ac4:	460b      	mov	r3, r1
  405ac6:	4630      	mov	r0, r6
  405ac8:	4639      	mov	r1, r7
  405aca:	f001 ff1f 	bl	40790c <__aeabi_dsub>
  405ace:	f108 0830 	add.w	r8, r8, #48	; 0x30
  405ad2:	fa5f f888 	uxtb.w	r8, r8
  405ad6:	4652      	mov	r2, sl
  405ad8:	465b      	mov	r3, fp
  405ada:	f805 8b01 	strb.w	r8, [r5], #1
  405ade:	4606      	mov	r6, r0
  405ae0:	460f      	mov	r7, r1
  405ae2:	f002 fb39 	bl	408158 <__aeabi_dcmplt>
  405ae6:	4632      	mov	r2, r6
  405ae8:	463b      	mov	r3, r7
  405aea:	2800      	cmp	r0, #0
  405aec:	d0c6      	beq.n	405a7c <_dtoa_r+0x8c4>
  405aee:	f8dd 9048 	ldr.w	r9, [sp, #72]	; 0x48
  405af2:	9b15      	ldr	r3, [sp, #84]	; 0x54
  405af4:	9302      	str	r3, [sp, #8]
  405af6:	e523      	b.n	405540 <_dtoa_r+0x388>
  405af8:	2300      	movs	r3, #0
  405afa:	930b      	str	r3, [sp, #44]	; 0x2c
  405afc:	9b25      	ldr	r3, [sp, #148]	; 0x94
  405afe:	2b00      	cmp	r3, #0
  405b00:	f340 80dc 	ble.w	405cbc <_dtoa_r+0xb04>
  405b04:	461f      	mov	r7, r3
  405b06:	461e      	mov	r6, r3
  405b08:	930f      	str	r3, [sp, #60]	; 0x3c
  405b0a:	930a      	str	r3, [sp, #40]	; 0x28
  405b0c:	e6f6      	b.n	4058fc <_dtoa_r+0x744>
  405b0e:	2301      	movs	r3, #1
  405b10:	930b      	str	r3, [sp, #44]	; 0x2c
  405b12:	e7f3      	b.n	405afc <_dtoa_r+0x944>
  405b14:	f1ba 0f00 	cmp.w	sl, #0
  405b18:	f47f ada8 	bne.w	40566c <_dtoa_r+0x4b4>
  405b1c:	f3cb 0313 	ubfx	r3, fp, #0, #20
  405b20:	2b00      	cmp	r3, #0
  405b22:	f47f adba 	bne.w	40569a <_dtoa_r+0x4e2>
  405b26:	f02b 4700 	bic.w	r7, fp, #2147483648	; 0x80000000
  405b2a:	0d3f      	lsrs	r7, r7, #20
  405b2c:	053f      	lsls	r7, r7, #20
  405b2e:	2f00      	cmp	r7, #0
  405b30:	f000 820d 	beq.w	405f4e <_dtoa_r+0xd96>
  405b34:	9b08      	ldr	r3, [sp, #32]
  405b36:	3301      	adds	r3, #1
  405b38:	9308      	str	r3, [sp, #32]
  405b3a:	9b06      	ldr	r3, [sp, #24]
  405b3c:	3301      	adds	r3, #1
  405b3e:	9306      	str	r3, [sp, #24]
  405b40:	2301      	movs	r3, #1
  405b42:	930c      	str	r3, [sp, #48]	; 0x30
  405b44:	e5ab      	b.n	40569e <_dtoa_r+0x4e6>
  405b46:	9b0a      	ldr	r3, [sp, #40]	; 0x28
  405b48:	2b00      	cmp	r3, #0
  405b4a:	f73f ac42 	bgt.w	4053d2 <_dtoa_r+0x21a>
  405b4e:	f040 8221 	bne.w	405f94 <_dtoa_r+0xddc>
  405b52:	2200      	movs	r2, #0
  405b54:	4b38      	ldr	r3, [pc, #224]	; (405c38 <_dtoa_r+0xa80>)
  405b56:	e9dd 0108 	ldrd	r0, r1, [sp, #32]
  405b5a:	f002 f88b 	bl	407c74 <__aeabi_dmul>
  405b5e:	4652      	mov	r2, sl
  405b60:	465b      	mov	r3, fp
  405b62:	f002 fb0d 	bl	408180 <__aeabi_dcmpge>
  405b66:	f8dd 8028 	ldr.w	r8, [sp, #40]	; 0x28
  405b6a:	4646      	mov	r6, r8
  405b6c:	2800      	cmp	r0, #0
  405b6e:	d041      	beq.n	405bf4 <_dtoa_r+0xa3c>
  405b70:	9b25      	ldr	r3, [sp, #148]	; 0x94
  405b72:	9d04      	ldr	r5, [sp, #16]
  405b74:	43db      	mvns	r3, r3
  405b76:	9302      	str	r3, [sp, #8]
  405b78:	4641      	mov	r1, r8
  405b7a:	4620      	mov	r0, r4
  405b7c:	f000 fe74 	bl	406868 <_Bfree>
  405b80:	2e00      	cmp	r6, #0
  405b82:	f43f acdd 	beq.w	405540 <_dtoa_r+0x388>
  405b86:	e6a7      	b.n	4058d8 <_dtoa_r+0x720>
  405b88:	9a0c      	ldr	r2, [sp, #48]	; 0x30
  405b8a:	4649      	mov	r1, r9
  405b8c:	4620      	mov	r0, r4
  405b8e:	f000 ffa1 	bl	406ad4 <__pow5mult>
  405b92:	4681      	mov	r9, r0
  405b94:	e558      	b.n	405648 <_dtoa_r+0x490>
  405b96:	9a14      	ldr	r2, [sp, #80]	; 0x50
  405b98:	2a00      	cmp	r2, #0
  405b9a:	f000 8187 	beq.w	405eac <_dtoa_r+0xcf4>
  405b9e:	f203 4333 	addw	r3, r3, #1075	; 0x433
  405ba2:	9f0c      	ldr	r7, [sp, #48]	; 0x30
  405ba4:	9d08      	ldr	r5, [sp, #32]
  405ba6:	e4f2      	b.n	40558e <_dtoa_r+0x3d6>
  405ba8:	f1ba 0f00 	cmp.w	sl, #0
  405bac:	f47f ad75 	bne.w	40569a <_dtoa_r+0x4e2>
  405bb0:	e7b4      	b.n	405b1c <_dtoa_r+0x964>
  405bb2:	f000 fe63 	bl	40687c <__multadd>
  405bb6:	4647      	mov	r7, r8
  405bb8:	4606      	mov	r6, r0
  405bba:	4683      	mov	fp, r0
  405bbc:	e5be      	b.n	40573c <_dtoa_r+0x584>
  405bbe:	4601      	mov	r1, r0
  405bc0:	4620      	mov	r0, r4
  405bc2:	9306      	str	r3, [sp, #24]
  405bc4:	f000 fe50 	bl	406868 <_Bfree>
  405bc8:	2201      	movs	r2, #1
  405bca:	9b06      	ldr	r3, [sp, #24]
  405bcc:	e5e0      	b.n	405790 <_dtoa_r+0x5d8>
  405bce:	9b24      	ldr	r3, [sp, #144]	; 0x90
  405bd0:	2b02      	cmp	r3, #2
  405bd2:	f77f ad96 	ble.w	405702 <_dtoa_r+0x54a>
  405bd6:	9b0a      	ldr	r3, [sp, #40]	; 0x28
  405bd8:	2b00      	cmp	r3, #0
  405bda:	d1c9      	bne.n	405b70 <_dtoa_r+0x9b8>
  405bdc:	4641      	mov	r1, r8
  405bde:	2205      	movs	r2, #5
  405be0:	4620      	mov	r0, r4
  405be2:	f000 fe4b 	bl	40687c <__multadd>
  405be6:	4601      	mov	r1, r0
  405be8:	4680      	mov	r8, r0
  405bea:	4648      	mov	r0, r9
  405bec:	f001 f814 	bl	406c18 <__mcmp>
  405bf0:	2800      	cmp	r0, #0
  405bf2:	ddbd      	ble.n	405b70 <_dtoa_r+0x9b8>
  405bf4:	9a02      	ldr	r2, [sp, #8]
  405bf6:	9904      	ldr	r1, [sp, #16]
  405bf8:	2331      	movs	r3, #49	; 0x31
  405bfa:	3201      	adds	r2, #1
  405bfc:	9202      	str	r2, [sp, #8]
  405bfe:	700b      	strb	r3, [r1, #0]
  405c00:	1c4d      	adds	r5, r1, #1
  405c02:	e7b9      	b.n	405b78 <_dtoa_r+0x9c0>
  405c04:	9a02      	ldr	r2, [sp, #8]
  405c06:	3201      	adds	r2, #1
  405c08:	9202      	str	r2, [sp, #8]
  405c0a:	9a04      	ldr	r2, [sp, #16]
  405c0c:	2331      	movs	r3, #49	; 0x31
  405c0e:	7013      	strb	r3, [r2, #0]
  405c10:	e652      	b.n	4058b8 <_dtoa_r+0x700>
  405c12:	2301      	movs	r3, #1
  405c14:	930b      	str	r3, [sp, #44]	; 0x2c
  405c16:	e666      	b.n	4058e6 <_dtoa_r+0x72e>
  405c18:	f8dd 902c 	ldr.w	r9, [sp, #44]	; 0x2c
  405c1c:	9c0c      	ldr	r4, [sp, #48]	; 0x30
  405c1e:	e48f      	b.n	405540 <_dtoa_r+0x388>
  405c20:	00408f60 	.word	0x00408f60
  405c24:	00408f38 	.word	0x00408f38
  405c28:	3ff00000 	.word	0x3ff00000
  405c2c:	401c0000 	.word	0x401c0000
  405c30:	3fe00000 	.word	0x3fe00000
  405c34:	40240000 	.word	0x40240000
  405c38:	40140000 	.word	0x40140000
  405c3c:	4650      	mov	r0, sl
  405c3e:	f001 ffb3 	bl	407ba8 <__aeabi_i2d>
  405c42:	463a      	mov	r2, r7
  405c44:	4643      	mov	r3, r8
  405c46:	f002 f815 	bl	407c74 <__aeabi_dmul>
  405c4a:	2200      	movs	r2, #0
  405c4c:	4bc1      	ldr	r3, [pc, #772]	; (405f54 <_dtoa_r+0xd9c>)
  405c4e:	f001 fe5f 	bl	407910 <__adddf3>
  405c52:	4605      	mov	r5, r0
  405c54:	f1a1 7650 	sub.w	r6, r1, #54525952	; 0x3400000
  405c58:	4641      	mov	r1, r8
  405c5a:	2200      	movs	r2, #0
  405c5c:	4bbe      	ldr	r3, [pc, #760]	; (405f58 <_dtoa_r+0xda0>)
  405c5e:	4638      	mov	r0, r7
  405c60:	f001 fe54 	bl	40790c <__aeabi_dsub>
  405c64:	462a      	mov	r2, r5
  405c66:	4633      	mov	r3, r6
  405c68:	4682      	mov	sl, r0
  405c6a:	468b      	mov	fp, r1
  405c6c:	f002 fa92 	bl	408194 <__aeabi_dcmpgt>
  405c70:	4680      	mov	r8, r0
  405c72:	2800      	cmp	r0, #0
  405c74:	f040 8110 	bne.w	405e98 <_dtoa_r+0xce0>
  405c78:	462a      	mov	r2, r5
  405c7a:	f106 4300 	add.w	r3, r6, #2147483648	; 0x80000000
  405c7e:	4650      	mov	r0, sl
  405c80:	4659      	mov	r1, fp
  405c82:	f002 fa69 	bl	408158 <__aeabi_dcmplt>
  405c86:	b118      	cbz	r0, 405c90 <_dtoa_r+0xad8>
  405c88:	4646      	mov	r6, r8
  405c8a:	e771      	b.n	405b70 <_dtoa_r+0x9b8>
  405c8c:	f8dd 9048 	ldr.w	r9, [sp, #72]	; 0x48
  405c90:	e9dd ab10 	ldrd	sl, fp, [sp, #64]	; 0x40
  405c94:	f7ff bb8a 	b.w	4053ac <_dtoa_r+0x1f4>
  405c98:	9804      	ldr	r0, [sp, #16]
  405c9a:	f7ff babb 	b.w	405214 <_dtoa_r+0x5c>
  405c9e:	9b0c      	ldr	r3, [sp, #48]	; 0x30
  405ca0:	9a0d      	ldr	r2, [sp, #52]	; 0x34
  405ca2:	970c      	str	r7, [sp, #48]	; 0x30
  405ca4:	1afb      	subs	r3, r7, r3
  405ca6:	441a      	add	r2, r3
  405ca8:	920d      	str	r2, [sp, #52]	; 0x34
  405caa:	2700      	movs	r7, #0
  405cac:	e469      	b.n	405582 <_dtoa_r+0x3ca>
  405cae:	e9dd 2310 	ldrd	r2, r3, [sp, #64]	; 0x40
  405cb2:	f04f 0a02 	mov.w	sl, #2
  405cb6:	e9cd 2312 	strd	r2, r3, [sp, #72]	; 0x48
  405cba:	e657      	b.n	40596c <_dtoa_r+0x7b4>
  405cbc:	2100      	movs	r1, #0
  405cbe:	2301      	movs	r3, #1
  405cc0:	6461      	str	r1, [r4, #68]	; 0x44
  405cc2:	4620      	mov	r0, r4
  405cc4:	9325      	str	r3, [sp, #148]	; 0x94
  405cc6:	f000 fda9 	bl	40681c <_Balloc>
  405cca:	9b25      	ldr	r3, [sp, #148]	; 0x94
  405ccc:	9004      	str	r0, [sp, #16]
  405cce:	6420      	str	r0, [r4, #64]	; 0x40
  405cd0:	930a      	str	r3, [sp, #40]	; 0x28
  405cd2:	930f      	str	r3, [sp, #60]	; 0x3c
  405cd4:	e629      	b.n	40592a <_dtoa_r+0x772>
  405cd6:	2a00      	cmp	r2, #0
  405cd8:	46d0      	mov	r8, sl
  405cda:	f8cd b018 	str.w	fp, [sp, #24]
  405cde:	469a      	mov	sl, r3
  405ce0:	dd11      	ble.n	405d06 <_dtoa_r+0xb4e>
  405ce2:	4649      	mov	r1, r9
  405ce4:	2201      	movs	r2, #1
  405ce6:	4620      	mov	r0, r4
  405ce8:	f000 ff44 	bl	406b74 <__lshift>
  405cec:	4641      	mov	r1, r8
  405cee:	4681      	mov	r9, r0
  405cf0:	f000 ff92 	bl	406c18 <__mcmp>
  405cf4:	2800      	cmp	r0, #0
  405cf6:	f340 8146 	ble.w	405f86 <_dtoa_r+0xdce>
  405cfa:	f1ba 0f39 	cmp.w	sl, #57	; 0x39
  405cfe:	f000 8106 	beq.w	405f0e <_dtoa_r+0xd56>
  405d02:	f105 0a31 	add.w	sl, r5, #49	; 0x31
  405d06:	46b3      	mov	fp, r6
  405d08:	f887 a000 	strb.w	sl, [r7]
  405d0c:	1c7d      	adds	r5, r7, #1
  405d0e:	9e06      	ldr	r6, [sp, #24]
  405d10:	e5d2      	b.n	4058b8 <_dtoa_r+0x700>
  405d12:	d104      	bne.n	405d1e <_dtoa_r+0xb66>
  405d14:	f01a 0f01 	tst.w	sl, #1
  405d18:	d001      	beq.n	405d1e <_dtoa_r+0xb66>
  405d1a:	e5bd      	b.n	405898 <_dtoa_r+0x6e0>
  405d1c:	4615      	mov	r5, r2
  405d1e:	f815 3c01 	ldrb.w	r3, [r5, #-1]
  405d22:	2b30      	cmp	r3, #48	; 0x30
  405d24:	f105 32ff 	add.w	r2, r5, #4294967295
  405d28:	d0f8      	beq.n	405d1c <_dtoa_r+0xb64>
  405d2a:	e5c5      	b.n	4058b8 <_dtoa_r+0x700>
  405d2c:	9904      	ldr	r1, [sp, #16]
  405d2e:	2230      	movs	r2, #48	; 0x30
  405d30:	700a      	strb	r2, [r1, #0]
  405d32:	9a02      	ldr	r2, [sp, #8]
  405d34:	f815 8c01 	ldrb.w	r8, [r5, #-1]
  405d38:	3201      	adds	r2, #1
  405d3a:	9202      	str	r2, [sp, #8]
  405d3c:	f7ff bbfc 	b.w	405538 <_dtoa_r+0x380>
  405d40:	f000 80bb 	beq.w	405eba <_dtoa_r+0xd02>
  405d44:	9b02      	ldr	r3, [sp, #8]
  405d46:	425d      	negs	r5, r3
  405d48:	4b84      	ldr	r3, [pc, #528]	; (405f5c <_dtoa_r+0xda4>)
  405d4a:	f005 020f 	and.w	r2, r5, #15
  405d4e:	eb03 03c2 	add.w	r3, r3, r2, lsl #3
  405d52:	e9d3 2300 	ldrd	r2, r3, [r3]
  405d56:	e9dd 0110 	ldrd	r0, r1, [sp, #64]	; 0x40
  405d5a:	f001 ff8b 	bl	407c74 <__aeabi_dmul>
  405d5e:	112d      	asrs	r5, r5, #4
  405d60:	4607      	mov	r7, r0
  405d62:	4688      	mov	r8, r1
  405d64:	f000 812c 	beq.w	405fc0 <_dtoa_r+0xe08>
  405d68:	4e7d      	ldr	r6, [pc, #500]	; (405f60 <_dtoa_r+0xda8>)
  405d6a:	f04f 0a02 	mov.w	sl, #2
  405d6e:	07eb      	lsls	r3, r5, #31
  405d70:	d509      	bpl.n	405d86 <_dtoa_r+0xbce>
  405d72:	4638      	mov	r0, r7
  405d74:	4641      	mov	r1, r8
  405d76:	e9d6 2300 	ldrd	r2, r3, [r6]
  405d7a:	f001 ff7b 	bl	407c74 <__aeabi_dmul>
  405d7e:	f10a 0a01 	add.w	sl, sl, #1
  405d82:	4607      	mov	r7, r0
  405d84:	4688      	mov	r8, r1
  405d86:	106d      	asrs	r5, r5, #1
  405d88:	f106 0608 	add.w	r6, r6, #8
  405d8c:	d1ef      	bne.n	405d6e <_dtoa_r+0xbb6>
  405d8e:	e608      	b.n	4059a2 <_dtoa_r+0x7ea>
  405d90:	6871      	ldr	r1, [r6, #4]
  405d92:	4620      	mov	r0, r4
  405d94:	f000 fd42 	bl	40681c <_Balloc>
  405d98:	6933      	ldr	r3, [r6, #16]
  405d9a:	3302      	adds	r3, #2
  405d9c:	009a      	lsls	r2, r3, #2
  405d9e:	4605      	mov	r5, r0
  405da0:	f106 010c 	add.w	r1, r6, #12
  405da4:	300c      	adds	r0, #12
  405da6:	f000 fc93 	bl	4066d0 <memcpy>
  405daa:	4629      	mov	r1, r5
  405dac:	2201      	movs	r2, #1
  405dae:	4620      	mov	r0, r4
  405db0:	f000 fee0 	bl	406b74 <__lshift>
  405db4:	9006      	str	r0, [sp, #24]
  405db6:	e4b5      	b.n	405724 <_dtoa_r+0x56c>
  405db8:	2b39      	cmp	r3, #57	; 0x39
  405dba:	f8cd b018 	str.w	fp, [sp, #24]
  405dbe:	46d0      	mov	r8, sl
  405dc0:	f000 80a5 	beq.w	405f0e <_dtoa_r+0xd56>
  405dc4:	f103 0a01 	add.w	sl, r3, #1
  405dc8:	46b3      	mov	fp, r6
  405dca:	f887 a000 	strb.w	sl, [r7]
  405dce:	1c7d      	adds	r5, r7, #1
  405dd0:	9e06      	ldr	r6, [sp, #24]
  405dd2:	e571      	b.n	4058b8 <_dtoa_r+0x700>
  405dd4:	465a      	mov	r2, fp
  405dd6:	46d0      	mov	r8, sl
  405dd8:	46b3      	mov	fp, r6
  405dda:	469a      	mov	sl, r3
  405ddc:	4616      	mov	r6, r2
  405dde:	e54f      	b.n	405880 <_dtoa_r+0x6c8>
  405de0:	9b12      	ldr	r3, [sp, #72]	; 0x48
  405de2:	495e      	ldr	r1, [pc, #376]	; (405f5c <_dtoa_r+0xda4>)
  405de4:	eb01 01c3 	add.w	r1, r1, r3, lsl #3
  405de8:	462a      	mov	r2, r5
  405dea:	4633      	mov	r3, r6
  405dec:	e951 0102 	ldrd	r0, r1, [r1, #-8]
  405df0:	f001 ff40 	bl	407c74 <__aeabi_dmul>
  405df4:	e9cd 0116 	strd	r0, r1, [sp, #88]	; 0x58
  405df8:	4638      	mov	r0, r7
  405dfa:	4641      	mov	r1, r8
  405dfc:	f002 f9ea 	bl	4081d4 <__aeabi_d2iz>
  405e00:	4605      	mov	r5, r0
  405e02:	f001 fed1 	bl	407ba8 <__aeabi_i2d>
  405e06:	460b      	mov	r3, r1
  405e08:	4602      	mov	r2, r0
  405e0a:	4641      	mov	r1, r8
  405e0c:	4638      	mov	r0, r7
  405e0e:	f001 fd7d 	bl	40790c <__aeabi_dsub>
  405e12:	9b12      	ldr	r3, [sp, #72]	; 0x48
  405e14:	460f      	mov	r7, r1
  405e16:	9904      	ldr	r1, [sp, #16]
  405e18:	3530      	adds	r5, #48	; 0x30
  405e1a:	2b01      	cmp	r3, #1
  405e1c:	700d      	strb	r5, [r1, #0]
  405e1e:	4606      	mov	r6, r0
  405e20:	f101 0501 	add.w	r5, r1, #1
  405e24:	d026      	beq.n	405e74 <_dtoa_r+0xcbc>
  405e26:	9b12      	ldr	r3, [sp, #72]	; 0x48
  405e28:	9a04      	ldr	r2, [sp, #16]
  405e2a:	f8df b13c 	ldr.w	fp, [pc, #316]	; 405f68 <_dtoa_r+0xdb0>
  405e2e:	f8cd 9048 	str.w	r9, [sp, #72]	; 0x48
  405e32:	4413      	add	r3, r2
  405e34:	f04f 0a00 	mov.w	sl, #0
  405e38:	4699      	mov	r9, r3
  405e3a:	4652      	mov	r2, sl
  405e3c:	465b      	mov	r3, fp
  405e3e:	4630      	mov	r0, r6
  405e40:	4639      	mov	r1, r7
  405e42:	f001 ff17 	bl	407c74 <__aeabi_dmul>
  405e46:	460f      	mov	r7, r1
  405e48:	4606      	mov	r6, r0
  405e4a:	f002 f9c3 	bl	4081d4 <__aeabi_d2iz>
  405e4e:	4680      	mov	r8, r0
  405e50:	f001 feaa 	bl	407ba8 <__aeabi_i2d>
  405e54:	f108 0830 	add.w	r8, r8, #48	; 0x30
  405e58:	4602      	mov	r2, r0
  405e5a:	460b      	mov	r3, r1
  405e5c:	4630      	mov	r0, r6
  405e5e:	4639      	mov	r1, r7
  405e60:	f001 fd54 	bl	40790c <__aeabi_dsub>
  405e64:	f805 8b01 	strb.w	r8, [r5], #1
  405e68:	454d      	cmp	r5, r9
  405e6a:	4606      	mov	r6, r0
  405e6c:	460f      	mov	r7, r1
  405e6e:	d1e4      	bne.n	405e3a <_dtoa_r+0xc82>
  405e70:	f8dd 9048 	ldr.w	r9, [sp, #72]	; 0x48
  405e74:	4b3b      	ldr	r3, [pc, #236]	; (405f64 <_dtoa_r+0xdac>)
  405e76:	2200      	movs	r2, #0
  405e78:	e9dd 0116 	ldrd	r0, r1, [sp, #88]	; 0x58
  405e7c:	f001 fd48 	bl	407910 <__adddf3>
  405e80:	4632      	mov	r2, r6
  405e82:	463b      	mov	r3, r7
  405e84:	f002 f968 	bl	408158 <__aeabi_dcmplt>
  405e88:	2800      	cmp	r0, #0
  405e8a:	d046      	beq.n	405f1a <_dtoa_r+0xd62>
  405e8c:	9b15      	ldr	r3, [sp, #84]	; 0x54
  405e8e:	9302      	str	r3, [sp, #8]
  405e90:	f815 8c01 	ldrb.w	r8, [r5, #-1]
  405e94:	f7ff bb43 	b.w	40551e <_dtoa_r+0x366>
  405e98:	f04f 0800 	mov.w	r8, #0
  405e9c:	4646      	mov	r6, r8
  405e9e:	e6a9      	b.n	405bf4 <_dtoa_r+0xa3c>
  405ea0:	9b08      	ldr	r3, [sp, #32]
  405ea2:	9a0a      	ldr	r2, [sp, #40]	; 0x28
  405ea4:	1a9d      	subs	r5, r3, r2
  405ea6:	2300      	movs	r3, #0
  405ea8:	f7ff bb71 	b.w	40558e <_dtoa_r+0x3d6>
  405eac:	9b18      	ldr	r3, [sp, #96]	; 0x60
  405eae:	9f0c      	ldr	r7, [sp, #48]	; 0x30
  405eb0:	9d08      	ldr	r5, [sp, #32]
  405eb2:	f1c3 0336 	rsb	r3, r3, #54	; 0x36
  405eb6:	f7ff bb6a 	b.w	40558e <_dtoa_r+0x3d6>
  405eba:	e9dd 7810 	ldrd	r7, r8, [sp, #64]	; 0x40
  405ebe:	f04f 0a02 	mov.w	sl, #2
  405ec2:	e56e      	b.n	4059a2 <_dtoa_r+0x7ea>
  405ec4:	9b0a      	ldr	r3, [sp, #40]	; 0x28
  405ec6:	2b00      	cmp	r3, #0
  405ec8:	f43f aeb8 	beq.w	405c3c <_dtoa_r+0xa84>
  405ecc:	9b0f      	ldr	r3, [sp, #60]	; 0x3c
  405ece:	2b00      	cmp	r3, #0
  405ed0:	f77f aede 	ble.w	405c90 <_dtoa_r+0xad8>
  405ed4:	2200      	movs	r2, #0
  405ed6:	4b24      	ldr	r3, [pc, #144]	; (405f68 <_dtoa_r+0xdb0>)
  405ed8:	4638      	mov	r0, r7
  405eda:	4641      	mov	r1, r8
  405edc:	f001 feca 	bl	407c74 <__aeabi_dmul>
  405ee0:	4607      	mov	r7, r0
  405ee2:	4688      	mov	r8, r1
  405ee4:	f10a 0001 	add.w	r0, sl, #1
  405ee8:	f001 fe5e 	bl	407ba8 <__aeabi_i2d>
  405eec:	463a      	mov	r2, r7
  405eee:	4643      	mov	r3, r8
  405ef0:	f001 fec0 	bl	407c74 <__aeabi_dmul>
  405ef4:	2200      	movs	r2, #0
  405ef6:	4b17      	ldr	r3, [pc, #92]	; (405f54 <_dtoa_r+0xd9c>)
  405ef8:	f001 fd0a 	bl	407910 <__adddf3>
  405efc:	9a02      	ldr	r2, [sp, #8]
  405efe:	9b0f      	ldr	r3, [sp, #60]	; 0x3c
  405f00:	9312      	str	r3, [sp, #72]	; 0x48
  405f02:	3a01      	subs	r2, #1
  405f04:	4605      	mov	r5, r0
  405f06:	f1a1 7650 	sub.w	r6, r1, #54525952	; 0x3400000
  405f0a:	9215      	str	r2, [sp, #84]	; 0x54
  405f0c:	e56a      	b.n	4059e4 <_dtoa_r+0x82c>
  405f0e:	2239      	movs	r2, #57	; 0x39
  405f10:	46b3      	mov	fp, r6
  405f12:	703a      	strb	r2, [r7, #0]
  405f14:	9e06      	ldr	r6, [sp, #24]
  405f16:	1c7d      	adds	r5, r7, #1
  405f18:	e4c0      	b.n	40589c <_dtoa_r+0x6e4>
  405f1a:	e9dd 2316 	ldrd	r2, r3, [sp, #88]	; 0x58
  405f1e:	2000      	movs	r0, #0
  405f20:	4910      	ldr	r1, [pc, #64]	; (405f64 <_dtoa_r+0xdac>)
  405f22:	f001 fcf3 	bl	40790c <__aeabi_dsub>
  405f26:	4632      	mov	r2, r6
  405f28:	463b      	mov	r3, r7
  405f2a:	f002 f933 	bl	408194 <__aeabi_dcmpgt>
  405f2e:	b908      	cbnz	r0, 405f34 <_dtoa_r+0xd7c>
  405f30:	e6ae      	b.n	405c90 <_dtoa_r+0xad8>
  405f32:	4615      	mov	r5, r2
  405f34:	f815 3c01 	ldrb.w	r3, [r5, #-1]
  405f38:	2b30      	cmp	r3, #48	; 0x30
  405f3a:	f105 32ff 	add.w	r2, r5, #4294967295
  405f3e:	d0f8      	beq.n	405f32 <_dtoa_r+0xd7a>
  405f40:	e5d7      	b.n	405af2 <_dtoa_r+0x93a>
  405f42:	f8dd 9048 	ldr.w	r9, [sp, #72]	; 0x48
  405f46:	9b15      	ldr	r3, [sp, #84]	; 0x54
  405f48:	9302      	str	r3, [sp, #8]
  405f4a:	f7ff bae8 	b.w	40551e <_dtoa_r+0x366>
  405f4e:	970c      	str	r7, [sp, #48]	; 0x30
  405f50:	f7ff bba5 	b.w	40569e <_dtoa_r+0x4e6>
  405f54:	401c0000 	.word	0x401c0000
  405f58:	40140000 	.word	0x40140000
  405f5c:	00408f60 	.word	0x00408f60
  405f60:	00408f38 	.word	0x00408f38
  405f64:	3fe00000 	.word	0x3fe00000
  405f68:	40240000 	.word	0x40240000
  405f6c:	2b39      	cmp	r3, #57	; 0x39
  405f6e:	f8cd b018 	str.w	fp, [sp, #24]
  405f72:	46d0      	mov	r8, sl
  405f74:	f8dd b028 	ldr.w	fp, [sp, #40]	; 0x28
  405f78:	469a      	mov	sl, r3
  405f7a:	d0c8      	beq.n	405f0e <_dtoa_r+0xd56>
  405f7c:	f1bb 0f00 	cmp.w	fp, #0
  405f80:	f73f aebf 	bgt.w	405d02 <_dtoa_r+0xb4a>
  405f84:	e6bf      	b.n	405d06 <_dtoa_r+0xb4e>
  405f86:	f47f aebe 	bne.w	405d06 <_dtoa_r+0xb4e>
  405f8a:	f01a 0f01 	tst.w	sl, #1
  405f8e:	f43f aeba 	beq.w	405d06 <_dtoa_r+0xb4e>
  405f92:	e6b2      	b.n	405cfa <_dtoa_r+0xb42>
  405f94:	f04f 0800 	mov.w	r8, #0
  405f98:	4646      	mov	r6, r8
  405f9a:	e5e9      	b.n	405b70 <_dtoa_r+0x9b8>
  405f9c:	4631      	mov	r1, r6
  405f9e:	2300      	movs	r3, #0
  405fa0:	220a      	movs	r2, #10
  405fa2:	4620      	mov	r0, r4
  405fa4:	f000 fc6a 	bl	40687c <__multadd>
  405fa8:	9b0f      	ldr	r3, [sp, #60]	; 0x3c
  405faa:	2b00      	cmp	r3, #0
  405fac:	4606      	mov	r6, r0
  405fae:	dd0a      	ble.n	405fc6 <_dtoa_r+0xe0e>
  405fb0:	930a      	str	r3, [sp, #40]	; 0x28
  405fb2:	f7ff bbaa 	b.w	40570a <_dtoa_r+0x552>
  405fb6:	9b24      	ldr	r3, [sp, #144]	; 0x90
  405fb8:	2b02      	cmp	r3, #2
  405fba:	dc23      	bgt.n	406004 <_dtoa_r+0xe4c>
  405fbc:	9b0f      	ldr	r3, [sp, #60]	; 0x3c
  405fbe:	e43b      	b.n	405838 <_dtoa_r+0x680>
  405fc0:	f04f 0a02 	mov.w	sl, #2
  405fc4:	e4ed      	b.n	4059a2 <_dtoa_r+0x7ea>
  405fc6:	9b24      	ldr	r3, [sp, #144]	; 0x90
  405fc8:	2b02      	cmp	r3, #2
  405fca:	dc1b      	bgt.n	406004 <_dtoa_r+0xe4c>
  405fcc:	9b0f      	ldr	r3, [sp, #60]	; 0x3c
  405fce:	e7ef      	b.n	405fb0 <_dtoa_r+0xdf8>
  405fd0:	2500      	movs	r5, #0
  405fd2:	6465      	str	r5, [r4, #68]	; 0x44
  405fd4:	4629      	mov	r1, r5
  405fd6:	4620      	mov	r0, r4
  405fd8:	f000 fc20 	bl	40681c <_Balloc>
  405fdc:	f04f 33ff 	mov.w	r3, #4294967295
  405fe0:	930a      	str	r3, [sp, #40]	; 0x28
  405fe2:	930f      	str	r3, [sp, #60]	; 0x3c
  405fe4:	2301      	movs	r3, #1
  405fe6:	9004      	str	r0, [sp, #16]
  405fe8:	9525      	str	r5, [sp, #148]	; 0x94
  405fea:	6420      	str	r0, [r4, #64]	; 0x40
  405fec:	930b      	str	r3, [sp, #44]	; 0x2c
  405fee:	f7ff b9dd 	b.w	4053ac <_dtoa_r+0x1f4>
  405ff2:	2501      	movs	r5, #1
  405ff4:	f7ff b9a5 	b.w	405342 <_dtoa_r+0x18a>
  405ff8:	f43f ab69 	beq.w	4056ce <_dtoa_r+0x516>
  405ffc:	f1c0 003c 	rsb	r0, r0, #60	; 0x3c
  406000:	f7ff bbf9 	b.w	4057f6 <_dtoa_r+0x63e>
  406004:	9b0f      	ldr	r3, [sp, #60]	; 0x3c
  406006:	930a      	str	r3, [sp, #40]	; 0x28
  406008:	e5e5      	b.n	405bd6 <_dtoa_r+0xa1e>
  40600a:	bf00      	nop

0040600c <__libc_fini_array>:
  40600c:	b538      	push	{r3, r4, r5, lr}
  40600e:	4c0a      	ldr	r4, [pc, #40]	; (406038 <__libc_fini_array+0x2c>)
  406010:	4d0a      	ldr	r5, [pc, #40]	; (40603c <__libc_fini_array+0x30>)
  406012:	1b64      	subs	r4, r4, r5
  406014:	10a4      	asrs	r4, r4, #2
  406016:	d00a      	beq.n	40602e <__libc_fini_array+0x22>
  406018:	f104 4380 	add.w	r3, r4, #1073741824	; 0x40000000
  40601c:	3b01      	subs	r3, #1
  40601e:	eb05 0583 	add.w	r5, r5, r3, lsl #2
  406022:	3c01      	subs	r4, #1
  406024:	f855 3904 	ldr.w	r3, [r5], #-4
  406028:	4798      	blx	r3
  40602a:	2c00      	cmp	r4, #0
  40602c:	d1f9      	bne.n	406022 <__libc_fini_array+0x16>
  40602e:	e8bd 4038 	ldmia.w	sp!, {r3, r4, r5, lr}
  406032:	f003 b893 	b.w	40915c <_fini>
  406036:	bf00      	nop
  406038:	0040916c 	.word	0x0040916c
  40603c:	00409168 	.word	0x00409168

00406040 <_localeconv_r>:
  406040:	4a04      	ldr	r2, [pc, #16]	; (406054 <_localeconv_r+0x14>)
  406042:	4b05      	ldr	r3, [pc, #20]	; (406058 <_localeconv_r+0x18>)
  406044:	6812      	ldr	r2, [r2, #0]
  406046:	6b50      	ldr	r0, [r2, #52]	; 0x34
  406048:	2800      	cmp	r0, #0
  40604a:	bf08      	it	eq
  40604c:	4618      	moveq	r0, r3
  40604e:	30f0      	adds	r0, #240	; 0xf0
  406050:	4770      	bx	lr
  406052:	bf00      	nop
  406054:	20000010 	.word	0x20000010
  406058:	20000854 	.word	0x20000854

0040605c <__retarget_lock_acquire_recursive>:
  40605c:	4770      	bx	lr
  40605e:	bf00      	nop

00406060 <__retarget_lock_release_recursive>:
  406060:	4770      	bx	lr
  406062:	bf00      	nop

00406064 <_malloc_r>:
  406064:	e92d 4ff0 	stmdb	sp!, {r4, r5, r6, r7, r8, r9, sl, fp, lr}
  406068:	f101 060b 	add.w	r6, r1, #11
  40606c:	2e16      	cmp	r6, #22
  40606e:	b083      	sub	sp, #12
  406070:	4605      	mov	r5, r0
  406072:	f240 809e 	bls.w	4061b2 <_malloc_r+0x14e>
  406076:	f036 0607 	bics.w	r6, r6, #7
  40607a:	f100 80bd 	bmi.w	4061f8 <_malloc_r+0x194>
  40607e:	42b1      	cmp	r1, r6
  406080:	f200 80ba 	bhi.w	4061f8 <_malloc_r+0x194>
  406084:	f000 fbbe 	bl	406804 <__malloc_lock>
  406088:	f5b6 7ffc 	cmp.w	r6, #504	; 0x1f8
  40608c:	f0c0 8293 	bcc.w	4065b6 <_malloc_r+0x552>
  406090:	0a73      	lsrs	r3, r6, #9
  406092:	f000 80b8 	beq.w	406206 <_malloc_r+0x1a2>
  406096:	2b04      	cmp	r3, #4
  406098:	f200 8179 	bhi.w	40638e <_malloc_r+0x32a>
  40609c:	09b3      	lsrs	r3, r6, #6
  40609e:	f103 0039 	add.w	r0, r3, #57	; 0x39
  4060a2:	f103 0e38 	add.w	lr, r3, #56	; 0x38
  4060a6:	00c3      	lsls	r3, r0, #3
  4060a8:	4fbf      	ldr	r7, [pc, #764]	; (4063a8 <_malloc_r+0x344>)
  4060aa:	443b      	add	r3, r7
  4060ac:	f1a3 0108 	sub.w	r1, r3, #8
  4060b0:	685c      	ldr	r4, [r3, #4]
  4060b2:	42a1      	cmp	r1, r4
  4060b4:	d106      	bne.n	4060c4 <_malloc_r+0x60>
  4060b6:	e00c      	b.n	4060d2 <_malloc_r+0x6e>
  4060b8:	2a00      	cmp	r2, #0
  4060ba:	f280 80aa 	bge.w	406212 <_malloc_r+0x1ae>
  4060be:	68e4      	ldr	r4, [r4, #12]
  4060c0:	42a1      	cmp	r1, r4
  4060c2:	d006      	beq.n	4060d2 <_malloc_r+0x6e>
  4060c4:	6863      	ldr	r3, [r4, #4]
  4060c6:	f023 0303 	bic.w	r3, r3, #3
  4060ca:	1b9a      	subs	r2, r3, r6
  4060cc:	2a0f      	cmp	r2, #15
  4060ce:	ddf3      	ble.n	4060b8 <_malloc_r+0x54>
  4060d0:	4670      	mov	r0, lr
  4060d2:	693c      	ldr	r4, [r7, #16]
  4060d4:	f8df e2e4 	ldr.w	lr, [pc, #740]	; 4063bc <_malloc_r+0x358>
  4060d8:	4574      	cmp	r4, lr
  4060da:	f000 81ab 	beq.w	406434 <_malloc_r+0x3d0>
  4060de:	6863      	ldr	r3, [r4, #4]
  4060e0:	f023 0303 	bic.w	r3, r3, #3
  4060e4:	1b9a      	subs	r2, r3, r6
  4060e6:	2a0f      	cmp	r2, #15
  4060e8:	f300 8190 	bgt.w	40640c <_malloc_r+0x3a8>
  4060ec:	2a00      	cmp	r2, #0
  4060ee:	f8c7 e014 	str.w	lr, [r7, #20]
  4060f2:	f8c7 e010 	str.w	lr, [r7, #16]
  4060f6:	f280 809d 	bge.w	406234 <_malloc_r+0x1d0>
  4060fa:	f5b3 7f00 	cmp.w	r3, #512	; 0x200
  4060fe:	f080 8161 	bcs.w	4063c4 <_malloc_r+0x360>
  406102:	08db      	lsrs	r3, r3, #3
  406104:	f103 0c01 	add.w	ip, r3, #1
  406108:	1099      	asrs	r1, r3, #2
  40610a:	687a      	ldr	r2, [r7, #4]
  40610c:	f857 803c 	ldr.w	r8, [r7, ip, lsl #3]
  406110:	f8c4 8008 	str.w	r8, [r4, #8]
  406114:	2301      	movs	r3, #1
  406116:	408b      	lsls	r3, r1
  406118:	eb07 01cc 	add.w	r1, r7, ip, lsl #3
  40611c:	4313      	orrs	r3, r2
  40611e:	3908      	subs	r1, #8
  406120:	60e1      	str	r1, [r4, #12]
  406122:	607b      	str	r3, [r7, #4]
  406124:	f847 403c 	str.w	r4, [r7, ip, lsl #3]
  406128:	f8c8 400c 	str.w	r4, [r8, #12]
  40612c:	1082      	asrs	r2, r0, #2
  40612e:	2401      	movs	r4, #1
  406130:	4094      	lsls	r4, r2
  406132:	429c      	cmp	r4, r3
  406134:	f200 808b 	bhi.w	40624e <_malloc_r+0x1ea>
  406138:	421c      	tst	r4, r3
  40613a:	d106      	bne.n	40614a <_malloc_r+0xe6>
  40613c:	f020 0003 	bic.w	r0, r0, #3
  406140:	0064      	lsls	r4, r4, #1
  406142:	421c      	tst	r4, r3
  406144:	f100 0004 	add.w	r0, r0, #4
  406148:	d0fa      	beq.n	406140 <_malloc_r+0xdc>
  40614a:	eb07 09c0 	add.w	r9, r7, r0, lsl #3
  40614e:	46cc      	mov	ip, r9
  406150:	4680      	mov	r8, r0
  406152:	f8dc 300c 	ldr.w	r3, [ip, #12]
  406156:	459c      	cmp	ip, r3
  406158:	d107      	bne.n	40616a <_malloc_r+0x106>
  40615a:	e16d      	b.n	406438 <_malloc_r+0x3d4>
  40615c:	2a00      	cmp	r2, #0
  40615e:	f280 817b 	bge.w	406458 <_malloc_r+0x3f4>
  406162:	68db      	ldr	r3, [r3, #12]
  406164:	459c      	cmp	ip, r3
  406166:	f000 8167 	beq.w	406438 <_malloc_r+0x3d4>
  40616a:	6859      	ldr	r1, [r3, #4]
  40616c:	f021 0103 	bic.w	r1, r1, #3
  406170:	1b8a      	subs	r2, r1, r6
  406172:	2a0f      	cmp	r2, #15
  406174:	ddf2      	ble.n	40615c <_malloc_r+0xf8>
  406176:	f8d3 c00c 	ldr.w	ip, [r3, #12]
  40617a:	f8d3 8008 	ldr.w	r8, [r3, #8]
  40617e:	9300      	str	r3, [sp, #0]
  406180:	199c      	adds	r4, r3, r6
  406182:	4628      	mov	r0, r5
  406184:	f046 0601 	orr.w	r6, r6, #1
  406188:	f042 0501 	orr.w	r5, r2, #1
  40618c:	605e      	str	r6, [r3, #4]
  40618e:	f8c8 c00c 	str.w	ip, [r8, #12]
  406192:	f8cc 8008 	str.w	r8, [ip, #8]
  406196:	617c      	str	r4, [r7, #20]
  406198:	613c      	str	r4, [r7, #16]
  40619a:	f8c4 e00c 	str.w	lr, [r4, #12]
  40619e:	f8c4 e008 	str.w	lr, [r4, #8]
  4061a2:	6065      	str	r5, [r4, #4]
  4061a4:	505a      	str	r2, [r3, r1]
  4061a6:	f000 fb33 	bl	406810 <__malloc_unlock>
  4061aa:	9b00      	ldr	r3, [sp, #0]
  4061ac:	f103 0408 	add.w	r4, r3, #8
  4061b0:	e01e      	b.n	4061f0 <_malloc_r+0x18c>
  4061b2:	2910      	cmp	r1, #16
  4061b4:	d820      	bhi.n	4061f8 <_malloc_r+0x194>
  4061b6:	f000 fb25 	bl	406804 <__malloc_lock>
  4061ba:	2610      	movs	r6, #16
  4061bc:	2318      	movs	r3, #24
  4061be:	2002      	movs	r0, #2
  4061c0:	4f79      	ldr	r7, [pc, #484]	; (4063a8 <_malloc_r+0x344>)
  4061c2:	443b      	add	r3, r7
  4061c4:	f1a3 0208 	sub.w	r2, r3, #8
  4061c8:	685c      	ldr	r4, [r3, #4]
  4061ca:	4294      	cmp	r4, r2
  4061cc:	f000 813d 	beq.w	40644a <_malloc_r+0x3e6>
  4061d0:	6863      	ldr	r3, [r4, #4]
  4061d2:	68e1      	ldr	r1, [r4, #12]
  4061d4:	68a6      	ldr	r6, [r4, #8]
  4061d6:	f023 0303 	bic.w	r3, r3, #3
  4061da:	4423      	add	r3, r4
  4061dc:	4628      	mov	r0, r5
  4061de:	685a      	ldr	r2, [r3, #4]
  4061e0:	60f1      	str	r1, [r6, #12]
  4061e2:	f042 0201 	orr.w	r2, r2, #1
  4061e6:	608e      	str	r6, [r1, #8]
  4061e8:	605a      	str	r2, [r3, #4]
  4061ea:	f000 fb11 	bl	406810 <__malloc_unlock>
  4061ee:	3408      	adds	r4, #8
  4061f0:	4620      	mov	r0, r4
  4061f2:	b003      	add	sp, #12
  4061f4:	e8bd 8ff0 	ldmia.w	sp!, {r4, r5, r6, r7, r8, r9, sl, fp, pc}
  4061f8:	2400      	movs	r4, #0
  4061fa:	230c      	movs	r3, #12
  4061fc:	4620      	mov	r0, r4
  4061fe:	602b      	str	r3, [r5, #0]
  406200:	b003      	add	sp, #12
  406202:	e8bd 8ff0 	ldmia.w	sp!, {r4, r5, r6, r7, r8, r9, sl, fp, pc}
  406206:	2040      	movs	r0, #64	; 0x40
  406208:	f44f 7300 	mov.w	r3, #512	; 0x200
  40620c:	f04f 0e3f 	mov.w	lr, #63	; 0x3f
  406210:	e74a      	b.n	4060a8 <_malloc_r+0x44>
  406212:	4423      	add	r3, r4
  406214:	68e1      	ldr	r1, [r4, #12]
  406216:	685a      	ldr	r2, [r3, #4]
  406218:	68a6      	ldr	r6, [r4, #8]
  40621a:	f042 0201 	orr.w	r2, r2, #1
  40621e:	60f1      	str	r1, [r6, #12]
  406220:	4628      	mov	r0, r5
  406222:	608e      	str	r6, [r1, #8]
  406224:	605a      	str	r2, [r3, #4]
  406226:	f000 faf3 	bl	406810 <__malloc_unlock>
  40622a:	3408      	adds	r4, #8
  40622c:	4620      	mov	r0, r4
  40622e:	b003      	add	sp, #12
  406230:	e8bd 8ff0 	ldmia.w	sp!, {r4, r5, r6, r7, r8, r9, sl, fp, pc}
  406234:	4423      	add	r3, r4
  406236:	4628      	mov	r0, r5
  406238:	685a      	ldr	r2, [r3, #4]
  40623a:	f042 0201 	orr.w	r2, r2, #1
  40623e:	605a      	str	r2, [r3, #4]
  406240:	f000 fae6 	bl	406810 <__malloc_unlock>
  406244:	3408      	adds	r4, #8
  406246:	4620      	mov	r0, r4
  406248:	b003      	add	sp, #12
  40624a:	e8bd 8ff0 	ldmia.w	sp!, {r4, r5, r6, r7, r8, r9, sl, fp, pc}
  40624e:	68bc      	ldr	r4, [r7, #8]
  406250:	6863      	ldr	r3, [r4, #4]
  406252:	f023 0803 	bic.w	r8, r3, #3
  406256:	45b0      	cmp	r8, r6
  406258:	d304      	bcc.n	406264 <_malloc_r+0x200>
  40625a:	eba8 0306 	sub.w	r3, r8, r6
  40625e:	2b0f      	cmp	r3, #15
  406260:	f300 8085 	bgt.w	40636e <_malloc_r+0x30a>
  406264:	f8df 9158 	ldr.w	r9, [pc, #344]	; 4063c0 <_malloc_r+0x35c>
  406268:	4b50      	ldr	r3, [pc, #320]	; (4063ac <_malloc_r+0x348>)
  40626a:	f8d9 2000 	ldr.w	r2, [r9]
  40626e:	681b      	ldr	r3, [r3, #0]
  406270:	3201      	adds	r2, #1
  406272:	4433      	add	r3, r6
  406274:	eb04 0a08 	add.w	sl, r4, r8
  406278:	f000 8155 	beq.w	406526 <_malloc_r+0x4c2>
  40627c:	f503 5380 	add.w	r3, r3, #4096	; 0x1000
  406280:	330f      	adds	r3, #15
  406282:	f423 6b7f 	bic.w	fp, r3, #4080	; 0xff0
  406286:	f02b 0b0f 	bic.w	fp, fp, #15
  40628a:	4659      	mov	r1, fp
  40628c:	4628      	mov	r0, r5
  40628e:	f000 fdbf 	bl	406e10 <_sbrk_r>
  406292:	1c41      	adds	r1, r0, #1
  406294:	4602      	mov	r2, r0
  406296:	f000 80fc 	beq.w	406492 <_malloc_r+0x42e>
  40629a:	4582      	cmp	sl, r0
  40629c:	f200 80f7 	bhi.w	40648e <_malloc_r+0x42a>
  4062a0:	4b43      	ldr	r3, [pc, #268]	; (4063b0 <_malloc_r+0x34c>)
  4062a2:	6819      	ldr	r1, [r3, #0]
  4062a4:	4459      	add	r1, fp
  4062a6:	6019      	str	r1, [r3, #0]
  4062a8:	f000 814d 	beq.w	406546 <_malloc_r+0x4e2>
  4062ac:	f8d9 0000 	ldr.w	r0, [r9]
  4062b0:	3001      	adds	r0, #1
  4062b2:	bf1b      	ittet	ne
  4062b4:	eba2 0a0a 	subne.w	sl, r2, sl
  4062b8:	4451      	addne	r1, sl
  4062ba:	f8c9 2000 	streq.w	r2, [r9]
  4062be:	6019      	strne	r1, [r3, #0]
  4062c0:	f012 0107 	ands.w	r1, r2, #7
  4062c4:	f000 8115 	beq.w	4064f2 <_malloc_r+0x48e>
  4062c8:	f1c1 0008 	rsb	r0, r1, #8
  4062cc:	f5c1 5180 	rsb	r1, r1, #4096	; 0x1000
  4062d0:	4402      	add	r2, r0
  4062d2:	3108      	adds	r1, #8
  4062d4:	eb02 090b 	add.w	r9, r2, fp
  4062d8:	f3c9 090b 	ubfx	r9, r9, #0, #12
  4062dc:	eba1 0909 	sub.w	r9, r1, r9
  4062e0:	4649      	mov	r1, r9
  4062e2:	4628      	mov	r0, r5
  4062e4:	9301      	str	r3, [sp, #4]
  4062e6:	9200      	str	r2, [sp, #0]
  4062e8:	f000 fd92 	bl	406e10 <_sbrk_r>
  4062ec:	1c43      	adds	r3, r0, #1
  4062ee:	e89d 000c 	ldmia.w	sp, {r2, r3}
  4062f2:	f000 8143 	beq.w	40657c <_malloc_r+0x518>
  4062f6:	1a80      	subs	r0, r0, r2
  4062f8:	4448      	add	r0, r9
  4062fa:	f040 0001 	orr.w	r0, r0, #1
  4062fe:	6819      	ldr	r1, [r3, #0]
  406300:	60ba      	str	r2, [r7, #8]
  406302:	4449      	add	r1, r9
  406304:	42bc      	cmp	r4, r7
  406306:	6050      	str	r0, [r2, #4]
  406308:	6019      	str	r1, [r3, #0]
  40630a:	d017      	beq.n	40633c <_malloc_r+0x2d8>
  40630c:	f1b8 0f0f 	cmp.w	r8, #15
  406310:	f240 80fb 	bls.w	40650a <_malloc_r+0x4a6>
  406314:	6860      	ldr	r0, [r4, #4]
  406316:	f1a8 020c 	sub.w	r2, r8, #12
  40631a:	f022 0207 	bic.w	r2, r2, #7
  40631e:	eb04 0e02 	add.w	lr, r4, r2
  406322:	f000 0001 	and.w	r0, r0, #1
  406326:	f04f 0c05 	mov.w	ip, #5
  40632a:	4310      	orrs	r0, r2
  40632c:	2a0f      	cmp	r2, #15
  40632e:	6060      	str	r0, [r4, #4]
  406330:	f8ce c004 	str.w	ip, [lr, #4]
  406334:	f8ce c008 	str.w	ip, [lr, #8]
  406338:	f200 8117 	bhi.w	40656a <_malloc_r+0x506>
  40633c:	4b1d      	ldr	r3, [pc, #116]	; (4063b4 <_malloc_r+0x350>)
  40633e:	68bc      	ldr	r4, [r7, #8]
  406340:	681a      	ldr	r2, [r3, #0]
  406342:	4291      	cmp	r1, r2
  406344:	bf88      	it	hi
  406346:	6019      	strhi	r1, [r3, #0]
  406348:	4b1b      	ldr	r3, [pc, #108]	; (4063b8 <_malloc_r+0x354>)
  40634a:	681a      	ldr	r2, [r3, #0]
  40634c:	4291      	cmp	r1, r2
  40634e:	6862      	ldr	r2, [r4, #4]
  406350:	bf88      	it	hi
  406352:	6019      	strhi	r1, [r3, #0]
  406354:	f022 0203 	bic.w	r2, r2, #3
  406358:	4296      	cmp	r6, r2
  40635a:	eba2 0306 	sub.w	r3, r2, r6
  40635e:	d801      	bhi.n	406364 <_malloc_r+0x300>
  406360:	2b0f      	cmp	r3, #15
  406362:	dc04      	bgt.n	40636e <_malloc_r+0x30a>
  406364:	4628      	mov	r0, r5
  406366:	f000 fa53 	bl	406810 <__malloc_unlock>
  40636a:	2400      	movs	r4, #0
  40636c:	e740      	b.n	4061f0 <_malloc_r+0x18c>
  40636e:	19a2      	adds	r2, r4, r6
  406370:	f043 0301 	orr.w	r3, r3, #1
  406374:	f046 0601 	orr.w	r6, r6, #1
  406378:	6066      	str	r6, [r4, #4]
  40637a:	4628      	mov	r0, r5
  40637c:	60ba      	str	r2, [r7, #8]
  40637e:	6053      	str	r3, [r2, #4]
  406380:	f000 fa46 	bl	406810 <__malloc_unlock>
  406384:	3408      	adds	r4, #8
  406386:	4620      	mov	r0, r4
  406388:	b003      	add	sp, #12
  40638a:	e8bd 8ff0 	ldmia.w	sp!, {r4, r5, r6, r7, r8, r9, sl, fp, pc}
  40638e:	2b14      	cmp	r3, #20
  406390:	d971      	bls.n	406476 <_malloc_r+0x412>
  406392:	2b54      	cmp	r3, #84	; 0x54
  406394:	f200 80a3 	bhi.w	4064de <_malloc_r+0x47a>
  406398:	0b33      	lsrs	r3, r6, #12
  40639a:	f103 006f 	add.w	r0, r3, #111	; 0x6f
  40639e:	f103 0e6e 	add.w	lr, r3, #110	; 0x6e
  4063a2:	00c3      	lsls	r3, r0, #3
  4063a4:	e680      	b.n	4060a8 <_malloc_r+0x44>
  4063a6:	bf00      	nop
  4063a8:	20000444 	.word	0x20000444
  4063ac:	20000aa8 	.word	0x20000aa8
  4063b0:	20000a78 	.word	0x20000a78
  4063b4:	20000aa0 	.word	0x20000aa0
  4063b8:	20000aa4 	.word	0x20000aa4
  4063bc:	2000044c 	.word	0x2000044c
  4063c0:	2000084c 	.word	0x2000084c
  4063c4:	0a5a      	lsrs	r2, r3, #9
  4063c6:	2a04      	cmp	r2, #4
  4063c8:	d95b      	bls.n	406482 <_malloc_r+0x41e>
  4063ca:	2a14      	cmp	r2, #20
  4063cc:	f200 80ae 	bhi.w	40652c <_malloc_r+0x4c8>
  4063d0:	f102 015c 	add.w	r1, r2, #92	; 0x5c
  4063d4:	00c9      	lsls	r1, r1, #3
  4063d6:	325b      	adds	r2, #91	; 0x5b
  4063d8:	eb07 0c01 	add.w	ip, r7, r1
  4063dc:	5879      	ldr	r1, [r7, r1]
  4063de:	f1ac 0c08 	sub.w	ip, ip, #8
  4063e2:	458c      	cmp	ip, r1
  4063e4:	f000 8088 	beq.w	4064f8 <_malloc_r+0x494>
  4063e8:	684a      	ldr	r2, [r1, #4]
  4063ea:	f022 0203 	bic.w	r2, r2, #3
  4063ee:	4293      	cmp	r3, r2
  4063f0:	d273      	bcs.n	4064da <_malloc_r+0x476>
  4063f2:	6889      	ldr	r1, [r1, #8]
  4063f4:	458c      	cmp	ip, r1
  4063f6:	d1f7      	bne.n	4063e8 <_malloc_r+0x384>
  4063f8:	f8dc 200c 	ldr.w	r2, [ip, #12]
  4063fc:	687b      	ldr	r3, [r7, #4]
  4063fe:	60e2      	str	r2, [r4, #12]
  406400:	f8c4 c008 	str.w	ip, [r4, #8]
  406404:	6094      	str	r4, [r2, #8]
  406406:	f8cc 400c 	str.w	r4, [ip, #12]
  40640a:	e68f      	b.n	40612c <_malloc_r+0xc8>
  40640c:	19a1      	adds	r1, r4, r6
  40640e:	f046 0c01 	orr.w	ip, r6, #1
  406412:	f042 0601 	orr.w	r6, r2, #1
  406416:	f8c4 c004 	str.w	ip, [r4, #4]
  40641a:	4628      	mov	r0, r5
  40641c:	6179      	str	r1, [r7, #20]
  40641e:	6139      	str	r1, [r7, #16]
  406420:	f8c1 e00c 	str.w	lr, [r1, #12]
  406424:	f8c1 e008 	str.w	lr, [r1, #8]
  406428:	604e      	str	r6, [r1, #4]
  40642a:	50e2      	str	r2, [r4, r3]
  40642c:	f000 f9f0 	bl	406810 <__malloc_unlock>
  406430:	3408      	adds	r4, #8
  406432:	e6dd      	b.n	4061f0 <_malloc_r+0x18c>
  406434:	687b      	ldr	r3, [r7, #4]
  406436:	e679      	b.n	40612c <_malloc_r+0xc8>
  406438:	f108 0801 	add.w	r8, r8, #1
  40643c:	f018 0f03 	tst.w	r8, #3
  406440:	f10c 0c08 	add.w	ip, ip, #8
  406444:	f47f ae85 	bne.w	406152 <_malloc_r+0xee>
  406448:	e02d      	b.n	4064a6 <_malloc_r+0x442>
  40644a:	68dc      	ldr	r4, [r3, #12]
  40644c:	42a3      	cmp	r3, r4
  40644e:	bf08      	it	eq
  406450:	3002      	addeq	r0, #2
  406452:	f43f ae3e 	beq.w	4060d2 <_malloc_r+0x6e>
  406456:	e6bb      	b.n	4061d0 <_malloc_r+0x16c>
  406458:	4419      	add	r1, r3
  40645a:	461c      	mov	r4, r3
  40645c:	684a      	ldr	r2, [r1, #4]
  40645e:	68db      	ldr	r3, [r3, #12]
  406460:	f854 6f08 	ldr.w	r6, [r4, #8]!
  406464:	f042 0201 	orr.w	r2, r2, #1
  406468:	604a      	str	r2, [r1, #4]
  40646a:	4628      	mov	r0, r5
  40646c:	60f3      	str	r3, [r6, #12]
  40646e:	609e      	str	r6, [r3, #8]
  406470:	f000 f9ce 	bl	406810 <__malloc_unlock>
  406474:	e6bc      	b.n	4061f0 <_malloc_r+0x18c>
  406476:	f103 005c 	add.w	r0, r3, #92	; 0x5c
  40647a:	f103 0e5b 	add.w	lr, r3, #91	; 0x5b
  40647e:	00c3      	lsls	r3, r0, #3
  406480:	e612      	b.n	4060a8 <_malloc_r+0x44>
  406482:	099a      	lsrs	r2, r3, #6
  406484:	f102 0139 	add.w	r1, r2, #57	; 0x39
  406488:	00c9      	lsls	r1, r1, #3
  40648a:	3238      	adds	r2, #56	; 0x38
  40648c:	e7a4      	b.n	4063d8 <_malloc_r+0x374>
  40648e:	42bc      	cmp	r4, r7
  406490:	d054      	beq.n	40653c <_malloc_r+0x4d8>
  406492:	68bc      	ldr	r4, [r7, #8]
  406494:	6862      	ldr	r2, [r4, #4]
  406496:	f022 0203 	bic.w	r2, r2, #3
  40649a:	e75d      	b.n	406358 <_malloc_r+0x2f4>
  40649c:	f859 3908 	ldr.w	r3, [r9], #-8
  4064a0:	4599      	cmp	r9, r3
  4064a2:	f040 8086 	bne.w	4065b2 <_malloc_r+0x54e>
  4064a6:	f010 0f03 	tst.w	r0, #3
  4064aa:	f100 30ff 	add.w	r0, r0, #4294967295
  4064ae:	d1f5      	bne.n	40649c <_malloc_r+0x438>
  4064b0:	687b      	ldr	r3, [r7, #4]
  4064b2:	ea23 0304 	bic.w	r3, r3, r4
  4064b6:	607b      	str	r3, [r7, #4]
  4064b8:	0064      	lsls	r4, r4, #1
  4064ba:	429c      	cmp	r4, r3
  4064bc:	f63f aec7 	bhi.w	40624e <_malloc_r+0x1ea>
  4064c0:	2c00      	cmp	r4, #0
  4064c2:	f43f aec4 	beq.w	40624e <_malloc_r+0x1ea>
  4064c6:	421c      	tst	r4, r3
  4064c8:	4640      	mov	r0, r8
  4064ca:	f47f ae3e 	bne.w	40614a <_malloc_r+0xe6>
  4064ce:	0064      	lsls	r4, r4, #1
  4064d0:	421c      	tst	r4, r3
  4064d2:	f100 0004 	add.w	r0, r0, #4
  4064d6:	d0fa      	beq.n	4064ce <_malloc_r+0x46a>
  4064d8:	e637      	b.n	40614a <_malloc_r+0xe6>
  4064da:	468c      	mov	ip, r1
  4064dc:	e78c      	b.n	4063f8 <_malloc_r+0x394>
  4064de:	f5b3 7faa 	cmp.w	r3, #340	; 0x154
  4064e2:	d815      	bhi.n	406510 <_malloc_r+0x4ac>
  4064e4:	0bf3      	lsrs	r3, r6, #15
  4064e6:	f103 0078 	add.w	r0, r3, #120	; 0x78
  4064ea:	f103 0e77 	add.w	lr, r3, #119	; 0x77
  4064ee:	00c3      	lsls	r3, r0, #3
  4064f0:	e5da      	b.n	4060a8 <_malloc_r+0x44>
  4064f2:	f44f 5180 	mov.w	r1, #4096	; 0x1000
  4064f6:	e6ed      	b.n	4062d4 <_malloc_r+0x270>
  4064f8:	687b      	ldr	r3, [r7, #4]
  4064fa:	1092      	asrs	r2, r2, #2
  4064fc:	2101      	movs	r1, #1
  4064fe:	fa01 f202 	lsl.w	r2, r1, r2
  406502:	4313      	orrs	r3, r2
  406504:	607b      	str	r3, [r7, #4]
  406506:	4662      	mov	r2, ip
  406508:	e779      	b.n	4063fe <_malloc_r+0x39a>
  40650a:	2301      	movs	r3, #1
  40650c:	6053      	str	r3, [r2, #4]
  40650e:	e729      	b.n	406364 <_malloc_r+0x300>
  406510:	f240 5254 	movw	r2, #1364	; 0x554
  406514:	4293      	cmp	r3, r2
  406516:	d822      	bhi.n	40655e <_malloc_r+0x4fa>
  406518:	0cb3      	lsrs	r3, r6, #18
  40651a:	f103 007d 	add.w	r0, r3, #125	; 0x7d
  40651e:	f103 0e7c 	add.w	lr, r3, #124	; 0x7c
  406522:	00c3      	lsls	r3, r0, #3
  406524:	e5c0      	b.n	4060a8 <_malloc_r+0x44>
  406526:	f103 0b10 	add.w	fp, r3, #16
  40652a:	e6ae      	b.n	40628a <_malloc_r+0x226>
  40652c:	2a54      	cmp	r2, #84	; 0x54
  40652e:	d829      	bhi.n	406584 <_malloc_r+0x520>
  406530:	0b1a      	lsrs	r2, r3, #12
  406532:	f102 016f 	add.w	r1, r2, #111	; 0x6f
  406536:	00c9      	lsls	r1, r1, #3
  406538:	326e      	adds	r2, #110	; 0x6e
  40653a:	e74d      	b.n	4063d8 <_malloc_r+0x374>
  40653c:	4b20      	ldr	r3, [pc, #128]	; (4065c0 <_malloc_r+0x55c>)
  40653e:	6819      	ldr	r1, [r3, #0]
  406540:	4459      	add	r1, fp
  406542:	6019      	str	r1, [r3, #0]
  406544:	e6b2      	b.n	4062ac <_malloc_r+0x248>
  406546:	f3ca 000b 	ubfx	r0, sl, #0, #12
  40654a:	2800      	cmp	r0, #0
  40654c:	f47f aeae 	bne.w	4062ac <_malloc_r+0x248>
  406550:	eb08 030b 	add.w	r3, r8, fp
  406554:	68ba      	ldr	r2, [r7, #8]
  406556:	f043 0301 	orr.w	r3, r3, #1
  40655a:	6053      	str	r3, [r2, #4]
  40655c:	e6ee      	b.n	40633c <_malloc_r+0x2d8>
  40655e:	207f      	movs	r0, #127	; 0x7f
  406560:	f44f 737e 	mov.w	r3, #1016	; 0x3f8
  406564:	f04f 0e7e 	mov.w	lr, #126	; 0x7e
  406568:	e59e      	b.n	4060a8 <_malloc_r+0x44>
  40656a:	f104 0108 	add.w	r1, r4, #8
  40656e:	4628      	mov	r0, r5
  406570:	9300      	str	r3, [sp, #0]
  406572:	f000 feb3 	bl	4072dc <_free_r>
  406576:	9b00      	ldr	r3, [sp, #0]
  406578:	6819      	ldr	r1, [r3, #0]
  40657a:	e6df      	b.n	40633c <_malloc_r+0x2d8>
  40657c:	2001      	movs	r0, #1
  40657e:	f04f 0900 	mov.w	r9, #0
  406582:	e6bc      	b.n	4062fe <_malloc_r+0x29a>
  406584:	f5b2 7faa 	cmp.w	r2, #340	; 0x154
  406588:	d805      	bhi.n	406596 <_malloc_r+0x532>
  40658a:	0bda      	lsrs	r2, r3, #15
  40658c:	f102 0178 	add.w	r1, r2, #120	; 0x78
  406590:	00c9      	lsls	r1, r1, #3
  406592:	3277      	adds	r2, #119	; 0x77
  406594:	e720      	b.n	4063d8 <_malloc_r+0x374>
  406596:	f240 5154 	movw	r1, #1364	; 0x554
  40659a:	428a      	cmp	r2, r1
  40659c:	d805      	bhi.n	4065aa <_malloc_r+0x546>
  40659e:	0c9a      	lsrs	r2, r3, #18
  4065a0:	f102 017d 	add.w	r1, r2, #125	; 0x7d
  4065a4:	00c9      	lsls	r1, r1, #3
  4065a6:	327c      	adds	r2, #124	; 0x7c
  4065a8:	e716      	b.n	4063d8 <_malloc_r+0x374>
  4065aa:	f44f 717e 	mov.w	r1, #1016	; 0x3f8
  4065ae:	227e      	movs	r2, #126	; 0x7e
  4065b0:	e712      	b.n	4063d8 <_malloc_r+0x374>
  4065b2:	687b      	ldr	r3, [r7, #4]
  4065b4:	e780      	b.n	4064b8 <_malloc_r+0x454>
  4065b6:	08f0      	lsrs	r0, r6, #3
  4065b8:	f106 0308 	add.w	r3, r6, #8
  4065bc:	e600      	b.n	4061c0 <_malloc_r+0x15c>
  4065be:	bf00      	nop
  4065c0:	20000a78 	.word	0x20000a78
	...

004065d0 <memchr>:
  4065d0:	f001 01ff 	and.w	r1, r1, #255	; 0xff
  4065d4:	2a10      	cmp	r2, #16
  4065d6:	db2b      	blt.n	406630 <memchr+0x60>
  4065d8:	f010 0f07 	tst.w	r0, #7
  4065dc:	d008      	beq.n	4065f0 <memchr+0x20>
  4065de:	f810 3b01 	ldrb.w	r3, [r0], #1
  4065e2:	3a01      	subs	r2, #1
  4065e4:	428b      	cmp	r3, r1
  4065e6:	d02d      	beq.n	406644 <memchr+0x74>
  4065e8:	f010 0f07 	tst.w	r0, #7
  4065ec:	b342      	cbz	r2, 406640 <memchr+0x70>
  4065ee:	d1f6      	bne.n	4065de <memchr+0xe>
  4065f0:	b4f0      	push	{r4, r5, r6, r7}
  4065f2:	ea41 2101 	orr.w	r1, r1, r1, lsl #8
  4065f6:	ea41 4101 	orr.w	r1, r1, r1, lsl #16
  4065fa:	f022 0407 	bic.w	r4, r2, #7
  4065fe:	f07f 0700 	mvns.w	r7, #0
  406602:	2300      	movs	r3, #0
  406604:	e8f0 5602 	ldrd	r5, r6, [r0], #8
  406608:	3c08      	subs	r4, #8
  40660a:	ea85 0501 	eor.w	r5, r5, r1
  40660e:	ea86 0601 	eor.w	r6, r6, r1
  406612:	fa85 f547 	uadd8	r5, r5, r7
  406616:	faa3 f587 	sel	r5, r3, r7
  40661a:	fa86 f647 	uadd8	r6, r6, r7
  40661e:	faa5 f687 	sel	r6, r5, r7
  406622:	b98e      	cbnz	r6, 406648 <memchr+0x78>
  406624:	d1ee      	bne.n	406604 <memchr+0x34>
  406626:	bcf0      	pop	{r4, r5, r6, r7}
  406628:	f001 01ff 	and.w	r1, r1, #255	; 0xff
  40662c:	f002 0207 	and.w	r2, r2, #7
  406630:	b132      	cbz	r2, 406640 <memchr+0x70>
  406632:	f810 3b01 	ldrb.w	r3, [r0], #1
  406636:	3a01      	subs	r2, #1
  406638:	ea83 0301 	eor.w	r3, r3, r1
  40663c:	b113      	cbz	r3, 406644 <memchr+0x74>
  40663e:	d1f8      	bne.n	406632 <memchr+0x62>
  406640:	2000      	movs	r0, #0
  406642:	4770      	bx	lr
  406644:	3801      	subs	r0, #1
  406646:	4770      	bx	lr
  406648:	2d00      	cmp	r5, #0
  40664a:	bf06      	itte	eq
  40664c:	4635      	moveq	r5, r6
  40664e:	3803      	subeq	r0, #3
  406650:	3807      	subne	r0, #7
  406652:	f015 0f01 	tst.w	r5, #1
  406656:	d107      	bne.n	406668 <memchr+0x98>
  406658:	3001      	adds	r0, #1
  40665a:	f415 7f80 	tst.w	r5, #256	; 0x100
  40665e:	bf02      	ittt	eq
  406660:	3001      	addeq	r0, #1
  406662:	f415 3fc0 	tsteq.w	r5, #98304	; 0x18000
  406666:	3001      	addeq	r0, #1
  406668:	bcf0      	pop	{r4, r5, r6, r7}
  40666a:	3801      	subs	r0, #1
  40666c:	4770      	bx	lr
  40666e:	bf00      	nop

00406670 <memcmp>:
  406670:	2a03      	cmp	r2, #3
  406672:	b470      	push	{r4, r5, r6}
  406674:	d922      	bls.n	4066bc <memcmp+0x4c>
  406676:	ea40 0301 	orr.w	r3, r0, r1
  40667a:	079b      	lsls	r3, r3, #30
  40667c:	d011      	beq.n	4066a2 <memcmp+0x32>
  40667e:	7803      	ldrb	r3, [r0, #0]
  406680:	780c      	ldrb	r4, [r1, #0]
  406682:	42a3      	cmp	r3, r4
  406684:	d11d      	bne.n	4066c2 <memcmp+0x52>
  406686:	440a      	add	r2, r1
  406688:	3101      	adds	r1, #1
  40668a:	e005      	b.n	406698 <memcmp+0x28>
  40668c:	f810 3f01 	ldrb.w	r3, [r0, #1]!
  406690:	f811 4b01 	ldrb.w	r4, [r1], #1
  406694:	42a3      	cmp	r3, r4
  406696:	d114      	bne.n	4066c2 <memcmp+0x52>
  406698:	4291      	cmp	r1, r2
  40669a:	d1f7      	bne.n	40668c <memcmp+0x1c>
  40669c:	2000      	movs	r0, #0
  40669e:	bc70      	pop	{r4, r5, r6}
  4066a0:	4770      	bx	lr
  4066a2:	680d      	ldr	r5, [r1, #0]
  4066a4:	6806      	ldr	r6, [r0, #0]
  4066a6:	42ae      	cmp	r6, r5
  4066a8:	460c      	mov	r4, r1
  4066aa:	4603      	mov	r3, r0
  4066ac:	f101 0104 	add.w	r1, r1, #4
  4066b0:	f100 0004 	add.w	r0, r0, #4
  4066b4:	d108      	bne.n	4066c8 <memcmp+0x58>
  4066b6:	3a04      	subs	r2, #4
  4066b8:	2a03      	cmp	r2, #3
  4066ba:	d8f2      	bhi.n	4066a2 <memcmp+0x32>
  4066bc:	2a00      	cmp	r2, #0
  4066be:	d1de      	bne.n	40667e <memcmp+0xe>
  4066c0:	e7ec      	b.n	40669c <memcmp+0x2c>
  4066c2:	1b18      	subs	r0, r3, r4
  4066c4:	bc70      	pop	{r4, r5, r6}
  4066c6:	4770      	bx	lr
  4066c8:	4621      	mov	r1, r4
  4066ca:	4618      	mov	r0, r3
  4066cc:	e7d7      	b.n	40667e <memcmp+0xe>
  4066ce:	bf00      	nop

004066d0 <memcpy>:
  4066d0:	4684      	mov	ip, r0
  4066d2:	ea41 0300 	orr.w	r3, r1, r0
  4066d6:	f013 0303 	ands.w	r3, r3, #3
  4066da:	d16d      	bne.n	4067b8 <memcpy+0xe8>
  4066dc:	3a40      	subs	r2, #64	; 0x40
  4066de:	d341      	bcc.n	406764 <memcpy+0x94>
  4066e0:	f851 3b04 	ldr.w	r3, [r1], #4
  4066e4:	f840 3b04 	str.w	r3, [r0], #4
  4066e8:	f851 3b04 	ldr.w	r3, [r1], #4
  4066ec:	f840 3b04 	str.w	r3, [r0], #4
  4066f0:	f851 3b04 	ldr.w	r3, [r1], #4
  4066f4:	f840 3b04 	str.w	r3, [r0], #4
  4066f8:	f851 3b04 	ldr.w	r3, [r1], #4
  4066fc:	f840 3b04 	str.w	r3, [r0], #4
  406700:	f851 3b04 	ldr.w	r3, [r1], #4
  406704:	f840 3b04 	str.w	r3, [r0], #4
  406708:	f851 3b04 	ldr.w	r3, [r1], #4
  40670c:	f840 3b04 	str.w	r3, [r0], #4
  406710:	f851 3b04 	ldr.w	r3, [r1], #4
  406714:	f840 3b04 	str.w	r3, [r0], #4
  406718:	f851 3b04 	ldr.w	r3, [r1], #4
  40671c:	f840 3b04 	str.w	r3, [r0], #4
  406720:	f851 3b04 	ldr.w	r3, [r1], #4
  406724:	f840 3b04 	str.w	r3, [r0], #4
  406728:	f851 3b04 	ldr.w	r3, [r1], #4
  40672c:	f840 3b04 	str.w	r3, [r0], #4
  406730:	f851 3b04 	ldr.w	r3, [r1], #4
  406734:	f840 3b04 	str.w	r3, [r0], #4
  406738:	f851 3b04 	ldr.w	r3, [r1], #4
  40673c:	f840 3b04 	str.w	r3, [r0], #4
  406740:	f851 3b04 	ldr.w	r3, [r1], #4
  406744:	f840 3b04 	str.w	r3, [r0], #4
  406748:	f851 3b04 	ldr.w	r3, [r1], #4
  40674c:	f840 3b04 	str.w	r3, [r0], #4
  406750:	f851 3b04 	ldr.w	r3, [r1], #4
  406754:	f840 3b04 	str.w	r3, [r0], #4
  406758:	f851 3b04 	ldr.w	r3, [r1], #4
  40675c:	f840 3b04 	str.w	r3, [r0], #4
  406760:	3a40      	subs	r2, #64	; 0x40
  406762:	d2bd      	bcs.n	4066e0 <memcpy+0x10>
  406764:	3230      	adds	r2, #48	; 0x30
  406766:	d311      	bcc.n	40678c <memcpy+0xbc>
  406768:	f851 3b04 	ldr.w	r3, [r1], #4
  40676c:	f840 3b04 	str.w	r3, [r0], #4
  406770:	f851 3b04 	ldr.w	r3, [r1], #4
  406774:	f840 3b04 	str.w	r3, [r0], #4
  406778:	f851 3b04 	ldr.w	r3, [r1], #4
  40677c:	f840 3b04 	str.w	r3, [r0], #4
  406780:	f851 3b04 	ldr.w	r3, [r1], #4
  406784:	f840 3b04 	str.w	r3, [r0], #4
  406788:	3a10      	subs	r2, #16
  40678a:	d2ed      	bcs.n	406768 <memcpy+0x98>
  40678c:	320c      	adds	r2, #12
  40678e:	d305      	bcc.n	40679c <memcpy+0xcc>
  406790:	f851 3b04 	ldr.w	r3, [r1], #4
  406794:	f840 3b04 	str.w	r3, [r0], #4
  406798:	3a04      	subs	r2, #4
  40679a:	d2f9      	bcs.n	406790 <memcpy+0xc0>
  40679c:	3204      	adds	r2, #4
  40679e:	d008      	beq.n	4067b2 <memcpy+0xe2>
  4067a0:	07d2      	lsls	r2, r2, #31
  4067a2:	bf1c      	itt	ne
  4067a4:	f811 3b01 	ldrbne.w	r3, [r1], #1
  4067a8:	f800 3b01 	strbne.w	r3, [r0], #1
  4067ac:	d301      	bcc.n	4067b2 <memcpy+0xe2>
  4067ae:	880b      	ldrh	r3, [r1, #0]
  4067b0:	8003      	strh	r3, [r0, #0]
  4067b2:	4660      	mov	r0, ip
  4067b4:	4770      	bx	lr
  4067b6:	bf00      	nop
  4067b8:	2a08      	cmp	r2, #8
  4067ba:	d313      	bcc.n	4067e4 <memcpy+0x114>
  4067bc:	078b      	lsls	r3, r1, #30
  4067be:	d08d      	beq.n	4066dc <memcpy+0xc>
  4067c0:	f010 0303 	ands.w	r3, r0, #3
  4067c4:	d08a      	beq.n	4066dc <memcpy+0xc>
  4067c6:	f1c3 0304 	rsb	r3, r3, #4
  4067ca:	1ad2      	subs	r2, r2, r3
  4067cc:	07db      	lsls	r3, r3, #31
  4067ce:	bf1c      	itt	ne
  4067d0:	f811 3b01 	ldrbne.w	r3, [r1], #1
  4067d4:	f800 3b01 	strbne.w	r3, [r0], #1
  4067d8:	d380      	bcc.n	4066dc <memcpy+0xc>
  4067da:	f831 3b02 	ldrh.w	r3, [r1], #2
  4067de:	f820 3b02 	strh.w	r3, [r0], #2
  4067e2:	e77b      	b.n	4066dc <memcpy+0xc>
  4067e4:	3a04      	subs	r2, #4
  4067e6:	d3d9      	bcc.n	40679c <memcpy+0xcc>
  4067e8:	3a01      	subs	r2, #1
  4067ea:	f811 3b01 	ldrb.w	r3, [r1], #1
  4067ee:	f800 3b01 	strb.w	r3, [r0], #1
  4067f2:	d2f9      	bcs.n	4067e8 <memcpy+0x118>
  4067f4:	780b      	ldrb	r3, [r1, #0]
  4067f6:	7003      	strb	r3, [r0, #0]
  4067f8:	784b      	ldrb	r3, [r1, #1]
  4067fa:	7043      	strb	r3, [r0, #1]
  4067fc:	788b      	ldrb	r3, [r1, #2]
  4067fe:	7083      	strb	r3, [r0, #2]
  406800:	4660      	mov	r0, ip
  406802:	4770      	bx	lr

00406804 <__malloc_lock>:
  406804:	4801      	ldr	r0, [pc, #4]	; (40680c <__malloc_lock+0x8>)
  406806:	f7ff bc29 	b.w	40605c <__retarget_lock_acquire_recursive>
  40680a:	bf00      	nop
  40680c:	2001954c 	.word	0x2001954c

00406810 <__malloc_unlock>:
  406810:	4801      	ldr	r0, [pc, #4]	; (406818 <__malloc_unlock+0x8>)
  406812:	f7ff bc25 	b.w	406060 <__retarget_lock_release_recursive>
  406816:	bf00      	nop
  406818:	2001954c 	.word	0x2001954c

0040681c <_Balloc>:
  40681c:	6cc3      	ldr	r3, [r0, #76]	; 0x4c
  40681e:	b570      	push	{r4, r5, r6, lr}
  406820:	4605      	mov	r5, r0
  406822:	460c      	mov	r4, r1
  406824:	b14b      	cbz	r3, 40683a <_Balloc+0x1e>
  406826:	f853 0024 	ldr.w	r0, [r3, r4, lsl #2]
  40682a:	b180      	cbz	r0, 40684e <_Balloc+0x32>
  40682c:	6802      	ldr	r2, [r0, #0]
  40682e:	f843 2024 	str.w	r2, [r3, r4, lsl #2]
  406832:	2300      	movs	r3, #0
  406834:	6103      	str	r3, [r0, #16]
  406836:	60c3      	str	r3, [r0, #12]
  406838:	bd70      	pop	{r4, r5, r6, pc}
  40683a:	2221      	movs	r2, #33	; 0x21
  40683c:	2104      	movs	r1, #4
  40683e:	f000 fccd 	bl	4071dc <_calloc_r>
  406842:	64e8      	str	r0, [r5, #76]	; 0x4c
  406844:	4603      	mov	r3, r0
  406846:	2800      	cmp	r0, #0
  406848:	d1ed      	bne.n	406826 <_Balloc+0xa>
  40684a:	2000      	movs	r0, #0
  40684c:	bd70      	pop	{r4, r5, r6, pc}
  40684e:	2101      	movs	r1, #1
  406850:	fa01 f604 	lsl.w	r6, r1, r4
  406854:	1d72      	adds	r2, r6, #5
  406856:	4628      	mov	r0, r5
  406858:	0092      	lsls	r2, r2, #2
  40685a:	f000 fcbf 	bl	4071dc <_calloc_r>
  40685e:	2800      	cmp	r0, #0
  406860:	d0f3      	beq.n	40684a <_Balloc+0x2e>
  406862:	6044      	str	r4, [r0, #4]
  406864:	6086      	str	r6, [r0, #8]
  406866:	e7e4      	b.n	406832 <_Balloc+0x16>

00406868 <_Bfree>:
  406868:	b131      	cbz	r1, 406878 <_Bfree+0x10>
  40686a:	6cc3      	ldr	r3, [r0, #76]	; 0x4c
  40686c:	684a      	ldr	r2, [r1, #4]
  40686e:	f853 0022 	ldr.w	r0, [r3, r2, lsl #2]
  406872:	6008      	str	r0, [r1, #0]
  406874:	f843 1022 	str.w	r1, [r3, r2, lsl #2]
  406878:	4770      	bx	lr
  40687a:	bf00      	nop

0040687c <__multadd>:
  40687c:	b5f0      	push	{r4, r5, r6, r7, lr}
  40687e:	690c      	ldr	r4, [r1, #16]
  406880:	b083      	sub	sp, #12
  406882:	460d      	mov	r5, r1
  406884:	4606      	mov	r6, r0
  406886:	f101 0e14 	add.w	lr, r1, #20
  40688a:	2700      	movs	r7, #0
  40688c:	f8de 0000 	ldr.w	r0, [lr]
  406890:	b281      	uxth	r1, r0
  406892:	fb02 3301 	mla	r3, r2, r1, r3
  406896:	0c01      	lsrs	r1, r0, #16
  406898:	0c18      	lsrs	r0, r3, #16
  40689a:	fb02 0101 	mla	r1, r2, r1, r0
  40689e:	b29b      	uxth	r3, r3
  4068a0:	3701      	adds	r7, #1
  4068a2:	eb03 4301 	add.w	r3, r3, r1, lsl #16
  4068a6:	42bc      	cmp	r4, r7
  4068a8:	f84e 3b04 	str.w	r3, [lr], #4
  4068ac:	ea4f 4311 	mov.w	r3, r1, lsr #16
  4068b0:	dcec      	bgt.n	40688c <__multadd+0x10>
  4068b2:	b13b      	cbz	r3, 4068c4 <__multadd+0x48>
  4068b4:	68aa      	ldr	r2, [r5, #8]
  4068b6:	4294      	cmp	r4, r2
  4068b8:	da07      	bge.n	4068ca <__multadd+0x4e>
  4068ba:	eb05 0284 	add.w	r2, r5, r4, lsl #2
  4068be:	3401      	adds	r4, #1
  4068c0:	6153      	str	r3, [r2, #20]
  4068c2:	612c      	str	r4, [r5, #16]
  4068c4:	4628      	mov	r0, r5
  4068c6:	b003      	add	sp, #12
  4068c8:	bdf0      	pop	{r4, r5, r6, r7, pc}
  4068ca:	6869      	ldr	r1, [r5, #4]
  4068cc:	9301      	str	r3, [sp, #4]
  4068ce:	3101      	adds	r1, #1
  4068d0:	4630      	mov	r0, r6
  4068d2:	f7ff ffa3 	bl	40681c <_Balloc>
  4068d6:	692a      	ldr	r2, [r5, #16]
  4068d8:	3202      	adds	r2, #2
  4068da:	f105 010c 	add.w	r1, r5, #12
  4068de:	4607      	mov	r7, r0
  4068e0:	0092      	lsls	r2, r2, #2
  4068e2:	300c      	adds	r0, #12
  4068e4:	f7ff fef4 	bl	4066d0 <memcpy>
  4068e8:	6cf2      	ldr	r2, [r6, #76]	; 0x4c
  4068ea:	6869      	ldr	r1, [r5, #4]
  4068ec:	9b01      	ldr	r3, [sp, #4]
  4068ee:	f852 0021 	ldr.w	r0, [r2, r1, lsl #2]
  4068f2:	6028      	str	r0, [r5, #0]
  4068f4:	f842 5021 	str.w	r5, [r2, r1, lsl #2]
  4068f8:	463d      	mov	r5, r7
  4068fa:	e7de      	b.n	4068ba <__multadd+0x3e>

004068fc <__hi0bits>:
  4068fc:	0c02      	lsrs	r2, r0, #16
  4068fe:	0412      	lsls	r2, r2, #16
  406900:	4603      	mov	r3, r0
  406902:	b9b2      	cbnz	r2, 406932 <__hi0bits+0x36>
  406904:	0403      	lsls	r3, r0, #16
  406906:	2010      	movs	r0, #16
  406908:	f013 4f7f 	tst.w	r3, #4278190080	; 0xff000000
  40690c:	bf04      	itt	eq
  40690e:	021b      	lsleq	r3, r3, #8
  406910:	3008      	addeq	r0, #8
  406912:	f013 4f70 	tst.w	r3, #4026531840	; 0xf0000000
  406916:	bf04      	itt	eq
  406918:	011b      	lsleq	r3, r3, #4
  40691a:	3004      	addeq	r0, #4
  40691c:	f013 4f40 	tst.w	r3, #3221225472	; 0xc0000000
  406920:	bf04      	itt	eq
  406922:	009b      	lsleq	r3, r3, #2
  406924:	3002      	addeq	r0, #2
  406926:	2b00      	cmp	r3, #0
  406928:	db02      	blt.n	406930 <__hi0bits+0x34>
  40692a:	005b      	lsls	r3, r3, #1
  40692c:	d403      	bmi.n	406936 <__hi0bits+0x3a>
  40692e:	2020      	movs	r0, #32
  406930:	4770      	bx	lr
  406932:	2000      	movs	r0, #0
  406934:	e7e8      	b.n	406908 <__hi0bits+0xc>
  406936:	3001      	adds	r0, #1
  406938:	4770      	bx	lr
  40693a:	bf00      	nop

0040693c <__lo0bits>:
  40693c:	6803      	ldr	r3, [r0, #0]
  40693e:	f013 0207 	ands.w	r2, r3, #7
  406942:	4601      	mov	r1, r0
  406944:	d007      	beq.n	406956 <__lo0bits+0x1a>
  406946:	07da      	lsls	r2, r3, #31
  406948:	d421      	bmi.n	40698e <__lo0bits+0x52>
  40694a:	0798      	lsls	r0, r3, #30
  40694c:	d421      	bmi.n	406992 <__lo0bits+0x56>
  40694e:	089b      	lsrs	r3, r3, #2
  406950:	600b      	str	r3, [r1, #0]
  406952:	2002      	movs	r0, #2
  406954:	4770      	bx	lr
  406956:	b298      	uxth	r0, r3
  406958:	b198      	cbz	r0, 406982 <__lo0bits+0x46>
  40695a:	4610      	mov	r0, r2
  40695c:	f013 0fff 	tst.w	r3, #255	; 0xff
  406960:	bf04      	itt	eq
  406962:	0a1b      	lsreq	r3, r3, #8
  406964:	3008      	addeq	r0, #8
  406966:	071a      	lsls	r2, r3, #28
  406968:	bf04      	itt	eq
  40696a:	091b      	lsreq	r3, r3, #4
  40696c:	3004      	addeq	r0, #4
  40696e:	079a      	lsls	r2, r3, #30
  406970:	bf04      	itt	eq
  406972:	089b      	lsreq	r3, r3, #2
  406974:	3002      	addeq	r0, #2
  406976:	07da      	lsls	r2, r3, #31
  406978:	d407      	bmi.n	40698a <__lo0bits+0x4e>
  40697a:	085b      	lsrs	r3, r3, #1
  40697c:	d104      	bne.n	406988 <__lo0bits+0x4c>
  40697e:	2020      	movs	r0, #32
  406980:	4770      	bx	lr
  406982:	0c1b      	lsrs	r3, r3, #16
  406984:	2010      	movs	r0, #16
  406986:	e7e9      	b.n	40695c <__lo0bits+0x20>
  406988:	3001      	adds	r0, #1
  40698a:	600b      	str	r3, [r1, #0]
  40698c:	4770      	bx	lr
  40698e:	2000      	movs	r0, #0
  406990:	4770      	bx	lr
  406992:	085b      	lsrs	r3, r3, #1
  406994:	600b      	str	r3, [r1, #0]
  406996:	2001      	movs	r0, #1
  406998:	4770      	bx	lr
  40699a:	bf00      	nop

0040699c <__i2b>:
  40699c:	b510      	push	{r4, lr}
  40699e:	460c      	mov	r4, r1
  4069a0:	2101      	movs	r1, #1
  4069a2:	f7ff ff3b 	bl	40681c <_Balloc>
  4069a6:	2201      	movs	r2, #1
  4069a8:	6144      	str	r4, [r0, #20]
  4069aa:	6102      	str	r2, [r0, #16]
  4069ac:	bd10      	pop	{r4, pc}
  4069ae:	bf00      	nop

004069b0 <__multiply>:
  4069b0:	e92d 4ff0 	stmdb	sp!, {r4, r5, r6, r7, r8, r9, sl, fp, lr}
  4069b4:	690c      	ldr	r4, [r1, #16]
  4069b6:	6915      	ldr	r5, [r2, #16]
  4069b8:	42ac      	cmp	r4, r5
  4069ba:	b083      	sub	sp, #12
  4069bc:	468b      	mov	fp, r1
  4069be:	4616      	mov	r6, r2
  4069c0:	da04      	bge.n	4069cc <__multiply+0x1c>
  4069c2:	4622      	mov	r2, r4
  4069c4:	46b3      	mov	fp, r6
  4069c6:	462c      	mov	r4, r5
  4069c8:	460e      	mov	r6, r1
  4069ca:	4615      	mov	r5, r2
  4069cc:	f8db 3008 	ldr.w	r3, [fp, #8]
  4069d0:	f8db 1004 	ldr.w	r1, [fp, #4]
  4069d4:	eb04 0805 	add.w	r8, r4, r5
  4069d8:	4598      	cmp	r8, r3
  4069da:	bfc8      	it	gt
  4069dc:	3101      	addgt	r1, #1
  4069de:	f7ff ff1d 	bl	40681c <_Balloc>
  4069e2:	f100 0914 	add.w	r9, r0, #20
  4069e6:	eb09 0a88 	add.w	sl, r9, r8, lsl #2
  4069ea:	45d1      	cmp	r9, sl
  4069ec:	9000      	str	r0, [sp, #0]
  4069ee:	d205      	bcs.n	4069fc <__multiply+0x4c>
  4069f0:	464b      	mov	r3, r9
  4069f2:	2100      	movs	r1, #0
  4069f4:	f843 1b04 	str.w	r1, [r3], #4
  4069f8:	459a      	cmp	sl, r3
  4069fa:	d8fb      	bhi.n	4069f4 <__multiply+0x44>
  4069fc:	f106 0c14 	add.w	ip, r6, #20
  406a00:	eb0c 0385 	add.w	r3, ip, r5, lsl #2
  406a04:	f10b 0b14 	add.w	fp, fp, #20
  406a08:	459c      	cmp	ip, r3
  406a0a:	eb0b 0e84 	add.w	lr, fp, r4, lsl #2
  406a0e:	d24c      	bcs.n	406aaa <__multiply+0xfa>
  406a10:	f8cd a004 	str.w	sl, [sp, #4]
  406a14:	469a      	mov	sl, r3
  406a16:	f8dc 5000 	ldr.w	r5, [ip]
  406a1a:	b2af      	uxth	r7, r5
  406a1c:	b1ef      	cbz	r7, 406a5a <__multiply+0xaa>
  406a1e:	2100      	movs	r1, #0
  406a20:	464d      	mov	r5, r9
  406a22:	465e      	mov	r6, fp
  406a24:	460c      	mov	r4, r1
  406a26:	f856 2b04 	ldr.w	r2, [r6], #4
  406a2a:	6828      	ldr	r0, [r5, #0]
  406a2c:	b293      	uxth	r3, r2
  406a2e:	b281      	uxth	r1, r0
  406a30:	fb07 1303 	mla	r3, r7, r3, r1
  406a34:	0c12      	lsrs	r2, r2, #16
  406a36:	0c01      	lsrs	r1, r0, #16
  406a38:	4423      	add	r3, r4
  406a3a:	fb07 1102 	mla	r1, r7, r2, r1
  406a3e:	eb01 4113 	add.w	r1, r1, r3, lsr #16
  406a42:	b29b      	uxth	r3, r3
  406a44:	ea43 4301 	orr.w	r3, r3, r1, lsl #16
  406a48:	45b6      	cmp	lr, r6
  406a4a:	f845 3b04 	str.w	r3, [r5], #4
  406a4e:	ea4f 4411 	mov.w	r4, r1, lsr #16
  406a52:	d8e8      	bhi.n	406a26 <__multiply+0x76>
  406a54:	602c      	str	r4, [r5, #0]
  406a56:	f8dc 5000 	ldr.w	r5, [ip]
  406a5a:	0c2d      	lsrs	r5, r5, #16
  406a5c:	d01d      	beq.n	406a9a <__multiply+0xea>
  406a5e:	f8d9 3000 	ldr.w	r3, [r9]
  406a62:	4648      	mov	r0, r9
  406a64:	461c      	mov	r4, r3
  406a66:	4659      	mov	r1, fp
  406a68:	2200      	movs	r2, #0
  406a6a:	880e      	ldrh	r6, [r1, #0]
  406a6c:	0c24      	lsrs	r4, r4, #16
  406a6e:	fb05 4406 	mla	r4, r5, r6, r4
  406a72:	4422      	add	r2, r4
  406a74:	b29b      	uxth	r3, r3
  406a76:	ea43 4302 	orr.w	r3, r3, r2, lsl #16
  406a7a:	f840 3b04 	str.w	r3, [r0], #4
  406a7e:	f851 3b04 	ldr.w	r3, [r1], #4
  406a82:	6804      	ldr	r4, [r0, #0]
  406a84:	0c1b      	lsrs	r3, r3, #16
  406a86:	b2a6      	uxth	r6, r4
  406a88:	fb05 6303 	mla	r3, r5, r3, r6
  406a8c:	eb03 4312 	add.w	r3, r3, r2, lsr #16
  406a90:	458e      	cmp	lr, r1
  406a92:	ea4f 4213 	mov.w	r2, r3, lsr #16
  406a96:	d8e8      	bhi.n	406a6a <__multiply+0xba>
  406a98:	6003      	str	r3, [r0, #0]
  406a9a:	f10c 0c04 	add.w	ip, ip, #4
  406a9e:	45e2      	cmp	sl, ip
  406aa0:	f109 0904 	add.w	r9, r9, #4
  406aa4:	d8b7      	bhi.n	406a16 <__multiply+0x66>
  406aa6:	f8dd a004 	ldr.w	sl, [sp, #4]
  406aaa:	f1b8 0f00 	cmp.w	r8, #0
  406aae:	dd0b      	ble.n	406ac8 <__multiply+0x118>
  406ab0:	f85a 3c04 	ldr.w	r3, [sl, #-4]
  406ab4:	f1aa 0a04 	sub.w	sl, sl, #4
  406ab8:	b11b      	cbz	r3, 406ac2 <__multiply+0x112>
  406aba:	e005      	b.n	406ac8 <__multiply+0x118>
  406abc:	f85a 3d04 	ldr.w	r3, [sl, #-4]!
  406ac0:	b913      	cbnz	r3, 406ac8 <__multiply+0x118>
  406ac2:	f1b8 0801 	subs.w	r8, r8, #1
  406ac6:	d1f9      	bne.n	406abc <__multiply+0x10c>
  406ac8:	9800      	ldr	r0, [sp, #0]
  406aca:	f8c0 8010 	str.w	r8, [r0, #16]
  406ace:	b003      	add	sp, #12
  406ad0:	e8bd 8ff0 	ldmia.w	sp!, {r4, r5, r6, r7, r8, r9, sl, fp, pc}

00406ad4 <__pow5mult>:
  406ad4:	f012 0303 	ands.w	r3, r2, #3
  406ad8:	e92d 41f0 	stmdb	sp!, {r4, r5, r6, r7, r8, lr}
  406adc:	4614      	mov	r4, r2
  406ade:	4607      	mov	r7, r0
  406ae0:	d12e      	bne.n	406b40 <__pow5mult+0x6c>
  406ae2:	460d      	mov	r5, r1
  406ae4:	10a4      	asrs	r4, r4, #2
  406ae6:	d01c      	beq.n	406b22 <__pow5mult+0x4e>
  406ae8:	6cbe      	ldr	r6, [r7, #72]	; 0x48
  406aea:	b396      	cbz	r6, 406b52 <__pow5mult+0x7e>
  406aec:	07e3      	lsls	r3, r4, #31
  406aee:	f04f 0800 	mov.w	r8, #0
  406af2:	d406      	bmi.n	406b02 <__pow5mult+0x2e>
  406af4:	1064      	asrs	r4, r4, #1
  406af6:	d014      	beq.n	406b22 <__pow5mult+0x4e>
  406af8:	6830      	ldr	r0, [r6, #0]
  406afa:	b1a8      	cbz	r0, 406b28 <__pow5mult+0x54>
  406afc:	4606      	mov	r6, r0
  406afe:	07e3      	lsls	r3, r4, #31
  406b00:	d5f8      	bpl.n	406af4 <__pow5mult+0x20>
  406b02:	4632      	mov	r2, r6
  406b04:	4629      	mov	r1, r5
  406b06:	4638      	mov	r0, r7
  406b08:	f7ff ff52 	bl	4069b0 <__multiply>
  406b0c:	b1b5      	cbz	r5, 406b3c <__pow5mult+0x68>
  406b0e:	686a      	ldr	r2, [r5, #4]
  406b10:	6cfb      	ldr	r3, [r7, #76]	; 0x4c
  406b12:	1064      	asrs	r4, r4, #1
  406b14:	f853 1022 	ldr.w	r1, [r3, r2, lsl #2]
  406b18:	6029      	str	r1, [r5, #0]
  406b1a:	f843 5022 	str.w	r5, [r3, r2, lsl #2]
  406b1e:	4605      	mov	r5, r0
  406b20:	d1ea      	bne.n	406af8 <__pow5mult+0x24>
  406b22:	4628      	mov	r0, r5
  406b24:	e8bd 81f0 	ldmia.w	sp!, {r4, r5, r6, r7, r8, pc}
  406b28:	4632      	mov	r2, r6
  406b2a:	4631      	mov	r1, r6
  406b2c:	4638      	mov	r0, r7
  406b2e:	f7ff ff3f 	bl	4069b0 <__multiply>
  406b32:	6030      	str	r0, [r6, #0]
  406b34:	f8c0 8000 	str.w	r8, [r0]
  406b38:	4606      	mov	r6, r0
  406b3a:	e7e0      	b.n	406afe <__pow5mult+0x2a>
  406b3c:	4605      	mov	r5, r0
  406b3e:	e7d9      	b.n	406af4 <__pow5mult+0x20>
  406b40:	1e5a      	subs	r2, r3, #1
  406b42:	4d0b      	ldr	r5, [pc, #44]	; (406b70 <__pow5mult+0x9c>)
  406b44:	2300      	movs	r3, #0
  406b46:	f855 2022 	ldr.w	r2, [r5, r2, lsl #2]
  406b4a:	f7ff fe97 	bl	40687c <__multadd>
  406b4e:	4605      	mov	r5, r0
  406b50:	e7c8      	b.n	406ae4 <__pow5mult+0x10>
  406b52:	2101      	movs	r1, #1
  406b54:	4638      	mov	r0, r7
  406b56:	f7ff fe61 	bl	40681c <_Balloc>
  406b5a:	f240 2171 	movw	r1, #625	; 0x271
  406b5e:	2201      	movs	r2, #1
  406b60:	2300      	movs	r3, #0
  406b62:	6141      	str	r1, [r0, #20]
  406b64:	6102      	str	r2, [r0, #16]
  406b66:	4606      	mov	r6, r0
  406b68:	64b8      	str	r0, [r7, #72]	; 0x48
  406b6a:	6003      	str	r3, [r0, #0]
  406b6c:	e7be      	b.n	406aec <__pow5mult+0x18>
  406b6e:	bf00      	nop
  406b70:	00409028 	.word	0x00409028

00406b74 <__lshift>:
  406b74:	e92d 43f8 	stmdb	sp!, {r3, r4, r5, r6, r7, r8, r9, lr}
  406b78:	4691      	mov	r9, r2
  406b7a:	690a      	ldr	r2, [r1, #16]
  406b7c:	688b      	ldr	r3, [r1, #8]
  406b7e:	ea4f 1469 	mov.w	r4, r9, asr #5
  406b82:	eb04 0802 	add.w	r8, r4, r2
  406b86:	f108 0501 	add.w	r5, r8, #1
  406b8a:	429d      	cmp	r5, r3
  406b8c:	460e      	mov	r6, r1
  406b8e:	4607      	mov	r7, r0
  406b90:	6849      	ldr	r1, [r1, #4]
  406b92:	dd04      	ble.n	406b9e <__lshift+0x2a>
  406b94:	005b      	lsls	r3, r3, #1
  406b96:	429d      	cmp	r5, r3
  406b98:	f101 0101 	add.w	r1, r1, #1
  406b9c:	dcfa      	bgt.n	406b94 <__lshift+0x20>
  406b9e:	4638      	mov	r0, r7
  406ba0:	f7ff fe3c 	bl	40681c <_Balloc>
  406ba4:	2c00      	cmp	r4, #0
  406ba6:	f100 0314 	add.w	r3, r0, #20
  406baa:	dd06      	ble.n	406bba <__lshift+0x46>
  406bac:	eb03 0284 	add.w	r2, r3, r4, lsl #2
  406bb0:	2100      	movs	r1, #0
  406bb2:	f843 1b04 	str.w	r1, [r3], #4
  406bb6:	429a      	cmp	r2, r3
  406bb8:	d1fb      	bne.n	406bb2 <__lshift+0x3e>
  406bba:	6934      	ldr	r4, [r6, #16]
  406bbc:	f106 0114 	add.w	r1, r6, #20
  406bc0:	f019 091f 	ands.w	r9, r9, #31
  406bc4:	eb01 0e84 	add.w	lr, r1, r4, lsl #2
  406bc8:	d01d      	beq.n	406c06 <__lshift+0x92>
  406bca:	f1c9 0c20 	rsb	ip, r9, #32
  406bce:	2200      	movs	r2, #0
  406bd0:	680c      	ldr	r4, [r1, #0]
  406bd2:	fa04 f409 	lsl.w	r4, r4, r9
  406bd6:	4314      	orrs	r4, r2
  406bd8:	f843 4b04 	str.w	r4, [r3], #4
  406bdc:	f851 2b04 	ldr.w	r2, [r1], #4
  406be0:	458e      	cmp	lr, r1
  406be2:	fa22 f20c 	lsr.w	r2, r2, ip
  406be6:	d8f3      	bhi.n	406bd0 <__lshift+0x5c>
  406be8:	601a      	str	r2, [r3, #0]
  406bea:	b10a      	cbz	r2, 406bf0 <__lshift+0x7c>
  406bec:	f108 0502 	add.w	r5, r8, #2
  406bf0:	6cfb      	ldr	r3, [r7, #76]	; 0x4c
  406bf2:	6872      	ldr	r2, [r6, #4]
  406bf4:	3d01      	subs	r5, #1
  406bf6:	f853 1022 	ldr.w	r1, [r3, r2, lsl #2]
  406bfa:	6105      	str	r5, [r0, #16]
  406bfc:	6031      	str	r1, [r6, #0]
  406bfe:	f843 6022 	str.w	r6, [r3, r2, lsl #2]
  406c02:	e8bd 83f8 	ldmia.w	sp!, {r3, r4, r5, r6, r7, r8, r9, pc}
  406c06:	3b04      	subs	r3, #4
  406c08:	f851 2b04 	ldr.w	r2, [r1], #4
  406c0c:	f843 2f04 	str.w	r2, [r3, #4]!
  406c10:	458e      	cmp	lr, r1
  406c12:	d8f9      	bhi.n	406c08 <__lshift+0x94>
  406c14:	e7ec      	b.n	406bf0 <__lshift+0x7c>
  406c16:	bf00      	nop

00406c18 <__mcmp>:
  406c18:	b430      	push	{r4, r5}
  406c1a:	690b      	ldr	r3, [r1, #16]
  406c1c:	4605      	mov	r5, r0
  406c1e:	6900      	ldr	r0, [r0, #16]
  406c20:	1ac0      	subs	r0, r0, r3
  406c22:	d10f      	bne.n	406c44 <__mcmp+0x2c>
  406c24:	009b      	lsls	r3, r3, #2
  406c26:	3514      	adds	r5, #20
  406c28:	3114      	adds	r1, #20
  406c2a:	4419      	add	r1, r3
  406c2c:	442b      	add	r3, r5
  406c2e:	e001      	b.n	406c34 <__mcmp+0x1c>
  406c30:	429d      	cmp	r5, r3
  406c32:	d207      	bcs.n	406c44 <__mcmp+0x2c>
  406c34:	f853 4d04 	ldr.w	r4, [r3, #-4]!
  406c38:	f851 2d04 	ldr.w	r2, [r1, #-4]!
  406c3c:	4294      	cmp	r4, r2
  406c3e:	d0f7      	beq.n	406c30 <__mcmp+0x18>
  406c40:	d302      	bcc.n	406c48 <__mcmp+0x30>
  406c42:	2001      	movs	r0, #1
  406c44:	bc30      	pop	{r4, r5}
  406c46:	4770      	bx	lr
  406c48:	f04f 30ff 	mov.w	r0, #4294967295
  406c4c:	e7fa      	b.n	406c44 <__mcmp+0x2c>
  406c4e:	bf00      	nop

00406c50 <__mdiff>:
  406c50:	e92d 41f0 	stmdb	sp!, {r4, r5, r6, r7, r8, lr}
  406c54:	690f      	ldr	r7, [r1, #16]
  406c56:	460e      	mov	r6, r1
  406c58:	6911      	ldr	r1, [r2, #16]
  406c5a:	1a7f      	subs	r7, r7, r1
  406c5c:	2f00      	cmp	r7, #0
  406c5e:	4690      	mov	r8, r2
  406c60:	d117      	bne.n	406c92 <__mdiff+0x42>
  406c62:	0089      	lsls	r1, r1, #2
  406c64:	f106 0514 	add.w	r5, r6, #20
  406c68:	f102 0e14 	add.w	lr, r2, #20
  406c6c:	186b      	adds	r3, r5, r1
  406c6e:	4471      	add	r1, lr
  406c70:	e001      	b.n	406c76 <__mdiff+0x26>
  406c72:	429d      	cmp	r5, r3
  406c74:	d25c      	bcs.n	406d30 <__mdiff+0xe0>
  406c76:	f853 2d04 	ldr.w	r2, [r3, #-4]!
  406c7a:	f851 4d04 	ldr.w	r4, [r1, #-4]!
  406c7e:	42a2      	cmp	r2, r4
  406c80:	d0f7      	beq.n	406c72 <__mdiff+0x22>
  406c82:	d25e      	bcs.n	406d42 <__mdiff+0xf2>
  406c84:	4633      	mov	r3, r6
  406c86:	462c      	mov	r4, r5
  406c88:	4646      	mov	r6, r8
  406c8a:	4675      	mov	r5, lr
  406c8c:	4698      	mov	r8, r3
  406c8e:	2701      	movs	r7, #1
  406c90:	e005      	b.n	406c9e <__mdiff+0x4e>
  406c92:	db58      	blt.n	406d46 <__mdiff+0xf6>
  406c94:	f106 0514 	add.w	r5, r6, #20
  406c98:	f108 0414 	add.w	r4, r8, #20
  406c9c:	2700      	movs	r7, #0
  406c9e:	6871      	ldr	r1, [r6, #4]
  406ca0:	f7ff fdbc 	bl	40681c <_Balloc>
  406ca4:	f8d8 3010 	ldr.w	r3, [r8, #16]
  406ca8:	6936      	ldr	r6, [r6, #16]
  406caa:	60c7      	str	r7, [r0, #12]
  406cac:	eb04 0c83 	add.w	ip, r4, r3, lsl #2
  406cb0:	46a6      	mov	lr, r4
  406cb2:	eb05 0786 	add.w	r7, r5, r6, lsl #2
  406cb6:	f100 0414 	add.w	r4, r0, #20
  406cba:	2300      	movs	r3, #0
  406cbc:	f85e 1b04 	ldr.w	r1, [lr], #4
  406cc0:	f855 8b04 	ldr.w	r8, [r5], #4
  406cc4:	b28a      	uxth	r2, r1
  406cc6:	fa13 f388 	uxtah	r3, r3, r8
  406cca:	0c09      	lsrs	r1, r1, #16
  406ccc:	1a9a      	subs	r2, r3, r2
  406cce:	ebc1 4318 	rsb	r3, r1, r8, lsr #16
  406cd2:	eb03 4322 	add.w	r3, r3, r2, asr #16
  406cd6:	b292      	uxth	r2, r2
  406cd8:	ea42 4203 	orr.w	r2, r2, r3, lsl #16
  406cdc:	45f4      	cmp	ip, lr
  406cde:	f844 2b04 	str.w	r2, [r4], #4
  406ce2:	ea4f 4323 	mov.w	r3, r3, asr #16
  406ce6:	d8e9      	bhi.n	406cbc <__mdiff+0x6c>
  406ce8:	42af      	cmp	r7, r5
  406cea:	d917      	bls.n	406d1c <__mdiff+0xcc>
  406cec:	46a4      	mov	ip, r4
  406cee:	46ae      	mov	lr, r5
  406cf0:	f85e 2b04 	ldr.w	r2, [lr], #4
  406cf4:	fa13 f382 	uxtah	r3, r3, r2
  406cf8:	1419      	asrs	r1, r3, #16
  406cfa:	eb01 4112 	add.w	r1, r1, r2, lsr #16
  406cfe:	b29b      	uxth	r3, r3
  406d00:	ea43 4201 	orr.w	r2, r3, r1, lsl #16
  406d04:	4577      	cmp	r7, lr
  406d06:	f84c 2b04 	str.w	r2, [ip], #4
  406d0a:	ea4f 4321 	mov.w	r3, r1, asr #16
  406d0e:	d8ef      	bhi.n	406cf0 <__mdiff+0xa0>
  406d10:	43ed      	mvns	r5, r5
  406d12:	442f      	add	r7, r5
  406d14:	f027 0703 	bic.w	r7, r7, #3
  406d18:	3704      	adds	r7, #4
  406d1a:	443c      	add	r4, r7
  406d1c:	3c04      	subs	r4, #4
  406d1e:	b922      	cbnz	r2, 406d2a <__mdiff+0xda>
  406d20:	f854 3d04 	ldr.w	r3, [r4, #-4]!
  406d24:	3e01      	subs	r6, #1
  406d26:	2b00      	cmp	r3, #0
  406d28:	d0fa      	beq.n	406d20 <__mdiff+0xd0>
  406d2a:	6106      	str	r6, [r0, #16]
  406d2c:	e8bd 81f0 	ldmia.w	sp!, {r4, r5, r6, r7, r8, pc}
  406d30:	2100      	movs	r1, #0
  406d32:	f7ff fd73 	bl	40681c <_Balloc>
  406d36:	2201      	movs	r2, #1
  406d38:	2300      	movs	r3, #0
  406d3a:	6102      	str	r2, [r0, #16]
  406d3c:	6143      	str	r3, [r0, #20]
  406d3e:	e8bd 81f0 	ldmia.w	sp!, {r4, r5, r6, r7, r8, pc}
  406d42:	4674      	mov	r4, lr
  406d44:	e7ab      	b.n	406c9e <__mdiff+0x4e>
  406d46:	4633      	mov	r3, r6
  406d48:	f106 0414 	add.w	r4, r6, #20
  406d4c:	f102 0514 	add.w	r5, r2, #20
  406d50:	4616      	mov	r6, r2
  406d52:	2701      	movs	r7, #1
  406d54:	4698      	mov	r8, r3
  406d56:	e7a2      	b.n	406c9e <__mdiff+0x4e>

00406d58 <__d2b>:
  406d58:	e92d 41f0 	stmdb	sp!, {r4, r5, r6, r7, r8, lr}
  406d5c:	b082      	sub	sp, #8
  406d5e:	2101      	movs	r1, #1
  406d60:	461c      	mov	r4, r3
  406d62:	f3c3 570a 	ubfx	r7, r3, #20, #11
  406d66:	4615      	mov	r5, r2
  406d68:	9e08      	ldr	r6, [sp, #32]
  406d6a:	f7ff fd57 	bl	40681c <_Balloc>
  406d6e:	f3c4 0413 	ubfx	r4, r4, #0, #20
  406d72:	4680      	mov	r8, r0
  406d74:	b10f      	cbz	r7, 406d7a <__d2b+0x22>
  406d76:	f444 1480 	orr.w	r4, r4, #1048576	; 0x100000
  406d7a:	9401      	str	r4, [sp, #4]
  406d7c:	b31d      	cbz	r5, 406dc6 <__d2b+0x6e>
  406d7e:	a802      	add	r0, sp, #8
  406d80:	f840 5d08 	str.w	r5, [r0, #-8]!
  406d84:	f7ff fdda 	bl	40693c <__lo0bits>
  406d88:	2800      	cmp	r0, #0
  406d8a:	d134      	bne.n	406df6 <__d2b+0x9e>
  406d8c:	e89d 000c 	ldmia.w	sp, {r2, r3}
  406d90:	f8c8 2014 	str.w	r2, [r8, #20]
  406d94:	2b00      	cmp	r3, #0
  406d96:	bf0c      	ite	eq
  406d98:	2101      	moveq	r1, #1
  406d9a:	2102      	movne	r1, #2
  406d9c:	f8c8 3018 	str.w	r3, [r8, #24]
  406da0:	f8c8 1010 	str.w	r1, [r8, #16]
  406da4:	b9df      	cbnz	r7, 406dde <__d2b+0x86>
  406da6:	eb08 0381 	add.w	r3, r8, r1, lsl #2
  406daa:	f2a0 4032 	subw	r0, r0, #1074	; 0x432
  406dae:	6030      	str	r0, [r6, #0]
  406db0:	6918      	ldr	r0, [r3, #16]
  406db2:	f7ff fda3 	bl	4068fc <__hi0bits>
  406db6:	9b09      	ldr	r3, [sp, #36]	; 0x24
  406db8:	ebc0 1041 	rsb	r0, r0, r1, lsl #5
  406dbc:	6018      	str	r0, [r3, #0]
  406dbe:	4640      	mov	r0, r8
  406dc0:	b002      	add	sp, #8
  406dc2:	e8bd 81f0 	ldmia.w	sp!, {r4, r5, r6, r7, r8, pc}
  406dc6:	a801      	add	r0, sp, #4
  406dc8:	f7ff fdb8 	bl	40693c <__lo0bits>
  406dcc:	9b01      	ldr	r3, [sp, #4]
  406dce:	f8c8 3014 	str.w	r3, [r8, #20]
  406dd2:	2101      	movs	r1, #1
  406dd4:	3020      	adds	r0, #32
  406dd6:	f8c8 1010 	str.w	r1, [r8, #16]
  406dda:	2f00      	cmp	r7, #0
  406ddc:	d0e3      	beq.n	406da6 <__d2b+0x4e>
  406dde:	9b09      	ldr	r3, [sp, #36]	; 0x24
  406de0:	f2a7 4733 	subw	r7, r7, #1075	; 0x433
  406de4:	4407      	add	r7, r0
  406de6:	f1c0 0035 	rsb	r0, r0, #53	; 0x35
  406dea:	6037      	str	r7, [r6, #0]
  406dec:	6018      	str	r0, [r3, #0]
  406dee:	4640      	mov	r0, r8
  406df0:	b002      	add	sp, #8
  406df2:	e8bd 81f0 	ldmia.w	sp!, {r4, r5, r6, r7, r8, pc}
  406df6:	e89d 000a 	ldmia.w	sp, {r1, r3}
  406dfa:	f1c0 0220 	rsb	r2, r0, #32
  406dfe:	fa03 f202 	lsl.w	r2, r3, r2
  406e02:	430a      	orrs	r2, r1
  406e04:	40c3      	lsrs	r3, r0
  406e06:	9301      	str	r3, [sp, #4]
  406e08:	f8c8 2014 	str.w	r2, [r8, #20]
  406e0c:	e7c2      	b.n	406d94 <__d2b+0x3c>
  406e0e:	bf00      	nop

00406e10 <_sbrk_r>:
  406e10:	b538      	push	{r3, r4, r5, lr}
  406e12:	4c07      	ldr	r4, [pc, #28]	; (406e30 <_sbrk_r+0x20>)
  406e14:	2300      	movs	r3, #0
  406e16:	4605      	mov	r5, r0
  406e18:	4608      	mov	r0, r1
  406e1a:	6023      	str	r3, [r4, #0]
  406e1c:	f7fc f826 	bl	402e6c <_sbrk>
  406e20:	1c43      	adds	r3, r0, #1
  406e22:	d000      	beq.n	406e26 <_sbrk_r+0x16>
  406e24:	bd38      	pop	{r3, r4, r5, pc}
  406e26:	6823      	ldr	r3, [r4, #0]
  406e28:	2b00      	cmp	r3, #0
  406e2a:	d0fb      	beq.n	406e24 <_sbrk_r+0x14>
  406e2c:	602b      	str	r3, [r5, #0]
  406e2e:	bd38      	pop	{r3, r4, r5, pc}
  406e30:	20019560 	.word	0x20019560

00406e34 <strchr>:
  406e34:	b2c9      	uxtb	r1, r1
  406e36:	2900      	cmp	r1, #0
  406e38:	d041      	beq.n	406ebe <strchr+0x8a>
  406e3a:	0782      	lsls	r2, r0, #30
  406e3c:	b4f0      	push	{r4, r5, r6, r7}
  406e3e:	d067      	beq.n	406f10 <strchr+0xdc>
  406e40:	7803      	ldrb	r3, [r0, #0]
  406e42:	2b00      	cmp	r3, #0
  406e44:	d068      	beq.n	406f18 <strchr+0xe4>
  406e46:	4299      	cmp	r1, r3
  406e48:	d037      	beq.n	406eba <strchr+0x86>
  406e4a:	1c43      	adds	r3, r0, #1
  406e4c:	e004      	b.n	406e58 <strchr+0x24>
  406e4e:	f813 0b01 	ldrb.w	r0, [r3], #1
  406e52:	b390      	cbz	r0, 406eba <strchr+0x86>
  406e54:	4281      	cmp	r1, r0
  406e56:	d02f      	beq.n	406eb8 <strchr+0x84>
  406e58:	079a      	lsls	r2, r3, #30
  406e5a:	461c      	mov	r4, r3
  406e5c:	d1f7      	bne.n	406e4e <strchr+0x1a>
  406e5e:	6825      	ldr	r5, [r4, #0]
  406e60:	ea41 2301 	orr.w	r3, r1, r1, lsl #8
  406e64:	ea43 4303 	orr.w	r3, r3, r3, lsl #16
  406e68:	ea83 0605 	eor.w	r6, r3, r5
  406e6c:	f1a6 3001 	sub.w	r0, r6, #16843009	; 0x1010101
  406e70:	f1a5 3201 	sub.w	r2, r5, #16843009	; 0x1010101
  406e74:	ea20 0006 	bic.w	r0, r0, r6
  406e78:	ea22 0205 	bic.w	r2, r2, r5
  406e7c:	4302      	orrs	r2, r0
  406e7e:	f012 3f80 	tst.w	r2, #2155905152	; 0x80808080
  406e82:	d111      	bne.n	406ea8 <strchr+0x74>
  406e84:	4620      	mov	r0, r4
  406e86:	f850 6f04 	ldr.w	r6, [r0, #4]!
  406e8a:	ea83 0706 	eor.w	r7, r3, r6
  406e8e:	f1a7 3501 	sub.w	r5, r7, #16843009	; 0x1010101
  406e92:	f1a6 3201 	sub.w	r2, r6, #16843009	; 0x1010101
  406e96:	ea25 0507 	bic.w	r5, r5, r7
  406e9a:	ea22 0206 	bic.w	r2, r2, r6
  406e9e:	432a      	orrs	r2, r5
  406ea0:	f012 3f80 	tst.w	r2, #2155905152	; 0x80808080
  406ea4:	d0ef      	beq.n	406e86 <strchr+0x52>
  406ea6:	4604      	mov	r4, r0
  406ea8:	7820      	ldrb	r0, [r4, #0]
  406eaa:	b918      	cbnz	r0, 406eb4 <strchr+0x80>
  406eac:	e005      	b.n	406eba <strchr+0x86>
  406eae:	f814 0f01 	ldrb.w	r0, [r4, #1]!
  406eb2:	b110      	cbz	r0, 406eba <strchr+0x86>
  406eb4:	4281      	cmp	r1, r0
  406eb6:	d1fa      	bne.n	406eae <strchr+0x7a>
  406eb8:	4620      	mov	r0, r4
  406eba:	bcf0      	pop	{r4, r5, r6, r7}
  406ebc:	4770      	bx	lr
  406ebe:	0783      	lsls	r3, r0, #30
  406ec0:	d024      	beq.n	406f0c <strchr+0xd8>
  406ec2:	7803      	ldrb	r3, [r0, #0]
  406ec4:	2b00      	cmp	r3, #0
  406ec6:	d0f9      	beq.n	406ebc <strchr+0x88>
  406ec8:	1c43      	adds	r3, r0, #1
  406eca:	e003      	b.n	406ed4 <strchr+0xa0>
  406ecc:	7802      	ldrb	r2, [r0, #0]
  406ece:	3301      	adds	r3, #1
  406ed0:	2a00      	cmp	r2, #0
  406ed2:	d0f3      	beq.n	406ebc <strchr+0x88>
  406ed4:	0799      	lsls	r1, r3, #30
  406ed6:	4618      	mov	r0, r3
  406ed8:	d1f8      	bne.n	406ecc <strchr+0x98>
  406eda:	6819      	ldr	r1, [r3, #0]
  406edc:	f1a1 3201 	sub.w	r2, r1, #16843009	; 0x1010101
  406ee0:	ea22 0201 	bic.w	r2, r2, r1
  406ee4:	f012 3f80 	tst.w	r2, #2155905152	; 0x80808080
  406ee8:	d108      	bne.n	406efc <strchr+0xc8>
  406eea:	f853 1f04 	ldr.w	r1, [r3, #4]!
  406eee:	f1a1 3201 	sub.w	r2, r1, #16843009	; 0x1010101
  406ef2:	ea22 0201 	bic.w	r2, r2, r1
  406ef6:	f012 3f80 	tst.w	r2, #2155905152	; 0x80808080
  406efa:	d0f6      	beq.n	406eea <strchr+0xb6>
  406efc:	781a      	ldrb	r2, [r3, #0]
  406efe:	4618      	mov	r0, r3
  406f00:	b142      	cbz	r2, 406f14 <strchr+0xe0>
  406f02:	f810 3f01 	ldrb.w	r3, [r0, #1]!
  406f06:	2b00      	cmp	r3, #0
  406f08:	d1fb      	bne.n	406f02 <strchr+0xce>
  406f0a:	4770      	bx	lr
  406f0c:	4603      	mov	r3, r0
  406f0e:	e7e4      	b.n	406eda <strchr+0xa6>
  406f10:	4604      	mov	r4, r0
  406f12:	e7a4      	b.n	406e5e <strchr+0x2a>
  406f14:	4618      	mov	r0, r3
  406f16:	4770      	bx	lr
  406f18:	4618      	mov	r0, r3
  406f1a:	e7ce      	b.n	406eba <strchr+0x86>
	...

00406f40 <strlen>:
  406f40:	f890 f000 	pld	[r0]
  406f44:	e96d 4502 	strd	r4, r5, [sp, #-8]!
  406f48:	f020 0107 	bic.w	r1, r0, #7
  406f4c:	f06f 0c00 	mvn.w	ip, #0
  406f50:	f010 0407 	ands.w	r4, r0, #7
  406f54:	f891 f020 	pld	[r1, #32]
  406f58:	f040 8049 	bne.w	406fee <strlen+0xae>
  406f5c:	f04f 0400 	mov.w	r4, #0
  406f60:	f06f 0007 	mvn.w	r0, #7
  406f64:	e9d1 2300 	ldrd	r2, r3, [r1]
  406f68:	f891 f040 	pld	[r1, #64]	; 0x40
  406f6c:	f100 0008 	add.w	r0, r0, #8
  406f70:	fa82 f24c 	uadd8	r2, r2, ip
  406f74:	faa4 f28c 	sel	r2, r4, ip
  406f78:	fa83 f34c 	uadd8	r3, r3, ip
  406f7c:	faa2 f38c 	sel	r3, r2, ip
  406f80:	bb4b      	cbnz	r3, 406fd6 <strlen+0x96>
  406f82:	e9d1 2302 	ldrd	r2, r3, [r1, #8]
  406f86:	fa82 f24c 	uadd8	r2, r2, ip
  406f8a:	f100 0008 	add.w	r0, r0, #8
  406f8e:	faa4 f28c 	sel	r2, r4, ip
  406f92:	fa83 f34c 	uadd8	r3, r3, ip
  406f96:	faa2 f38c 	sel	r3, r2, ip
  406f9a:	b9e3      	cbnz	r3, 406fd6 <strlen+0x96>
  406f9c:	e9d1 2304 	ldrd	r2, r3, [r1, #16]
  406fa0:	fa82 f24c 	uadd8	r2, r2, ip
  406fa4:	f100 0008 	add.w	r0, r0, #8
  406fa8:	faa4 f28c 	sel	r2, r4, ip
  406fac:	fa83 f34c 	uadd8	r3, r3, ip
  406fb0:	faa2 f38c 	sel	r3, r2, ip
  406fb4:	b97b      	cbnz	r3, 406fd6 <strlen+0x96>
  406fb6:	e9d1 2306 	ldrd	r2, r3, [r1, #24]
  406fba:	f101 0120 	add.w	r1, r1, #32
  406fbe:	fa82 f24c 	uadd8	r2, r2, ip
  406fc2:	f100 0008 	add.w	r0, r0, #8
  406fc6:	faa4 f28c 	sel	r2, r4, ip
  406fca:	fa83 f34c 	uadd8	r3, r3, ip
  406fce:	faa2 f38c 	sel	r3, r2, ip
  406fd2:	2b00      	cmp	r3, #0
  406fd4:	d0c6      	beq.n	406f64 <strlen+0x24>
  406fd6:	2a00      	cmp	r2, #0
  406fd8:	bf04      	itt	eq
  406fda:	3004      	addeq	r0, #4
  406fdc:	461a      	moveq	r2, r3
  406fde:	ba12      	rev	r2, r2
  406fe0:	fab2 f282 	clz	r2, r2
  406fe4:	e8fd 4502 	ldrd	r4, r5, [sp], #8
  406fe8:	eb00 00d2 	add.w	r0, r0, r2, lsr #3
  406fec:	4770      	bx	lr
  406fee:	e9d1 2300 	ldrd	r2, r3, [r1]
  406ff2:	f004 0503 	and.w	r5, r4, #3
  406ff6:	f1c4 0000 	rsb	r0, r4, #0
  406ffa:	ea4f 05c5 	mov.w	r5, r5, lsl #3
  406ffe:	f014 0f04 	tst.w	r4, #4
  407002:	f891 f040 	pld	[r1, #64]	; 0x40
  407006:	fa0c f505 	lsl.w	r5, ip, r5
  40700a:	ea62 0205 	orn	r2, r2, r5
  40700e:	bf1c      	itt	ne
  407010:	ea63 0305 	ornne	r3, r3, r5
  407014:	4662      	movne	r2, ip
  407016:	f04f 0400 	mov.w	r4, #0
  40701a:	e7a9      	b.n	406f70 <strlen+0x30>

0040701c <__ssprint_r>:
  40701c:	e92d 4ff0 	stmdb	sp!, {r4, r5, r6, r7, r8, r9, sl, fp, lr}
  407020:	6893      	ldr	r3, [r2, #8]
  407022:	b083      	sub	sp, #12
  407024:	4690      	mov	r8, r2
  407026:	2b00      	cmp	r3, #0
  407028:	d070      	beq.n	40710c <__ssprint_r+0xf0>
  40702a:	4682      	mov	sl, r0
  40702c:	460c      	mov	r4, r1
  40702e:	6817      	ldr	r7, [r2, #0]
  407030:	688d      	ldr	r5, [r1, #8]
  407032:	6808      	ldr	r0, [r1, #0]
  407034:	e042      	b.n	4070bc <__ssprint_r+0xa0>
  407036:	89a3      	ldrh	r3, [r4, #12]
  407038:	f413 6f90 	tst.w	r3, #1152	; 0x480
  40703c:	d02e      	beq.n	40709c <__ssprint_r+0x80>
  40703e:	6965      	ldr	r5, [r4, #20]
  407040:	6921      	ldr	r1, [r4, #16]
  407042:	eb05 0545 	add.w	r5, r5, r5, lsl #1
  407046:	eba0 0b01 	sub.w	fp, r0, r1
  40704a:	eb05 75d5 	add.w	r5, r5, r5, lsr #31
  40704e:	f10b 0001 	add.w	r0, fp, #1
  407052:	106d      	asrs	r5, r5, #1
  407054:	4430      	add	r0, r6
  407056:	42a8      	cmp	r0, r5
  407058:	462a      	mov	r2, r5
  40705a:	bf84      	itt	hi
  40705c:	4605      	movhi	r5, r0
  40705e:	462a      	movhi	r2, r5
  407060:	055b      	lsls	r3, r3, #21
  407062:	d538      	bpl.n	4070d6 <__ssprint_r+0xba>
  407064:	4611      	mov	r1, r2
  407066:	4650      	mov	r0, sl
  407068:	f7fe fffc 	bl	406064 <_malloc_r>
  40706c:	2800      	cmp	r0, #0
  40706e:	d03c      	beq.n	4070ea <__ssprint_r+0xce>
  407070:	465a      	mov	r2, fp
  407072:	6921      	ldr	r1, [r4, #16]
  407074:	9001      	str	r0, [sp, #4]
  407076:	f7ff fb2b 	bl	4066d0 <memcpy>
  40707a:	89a2      	ldrh	r2, [r4, #12]
  40707c:	9b01      	ldr	r3, [sp, #4]
  40707e:	f422 6290 	bic.w	r2, r2, #1152	; 0x480
  407082:	f042 0280 	orr.w	r2, r2, #128	; 0x80
  407086:	81a2      	strh	r2, [r4, #12]
  407088:	eba5 020b 	sub.w	r2, r5, fp
  40708c:	eb03 000b 	add.w	r0, r3, fp
  407090:	6165      	str	r5, [r4, #20]
  407092:	6123      	str	r3, [r4, #16]
  407094:	6020      	str	r0, [r4, #0]
  407096:	60a2      	str	r2, [r4, #8]
  407098:	4635      	mov	r5, r6
  40709a:	46b3      	mov	fp, r6
  40709c:	465a      	mov	r2, fp
  40709e:	4649      	mov	r1, r9
  4070a0:	f000 fa18 	bl	4074d4 <memmove>
  4070a4:	f8d8 3008 	ldr.w	r3, [r8, #8]
  4070a8:	68a2      	ldr	r2, [r4, #8]
  4070aa:	6820      	ldr	r0, [r4, #0]
  4070ac:	1b55      	subs	r5, r2, r5
  4070ae:	4458      	add	r0, fp
  4070b0:	1b9e      	subs	r6, r3, r6
  4070b2:	60a5      	str	r5, [r4, #8]
  4070b4:	6020      	str	r0, [r4, #0]
  4070b6:	f8c8 6008 	str.w	r6, [r8, #8]
  4070ba:	b33e      	cbz	r6, 40710c <__ssprint_r+0xf0>
  4070bc:	687e      	ldr	r6, [r7, #4]
  4070be:	463b      	mov	r3, r7
  4070c0:	3708      	adds	r7, #8
  4070c2:	2e00      	cmp	r6, #0
  4070c4:	d0fa      	beq.n	4070bc <__ssprint_r+0xa0>
  4070c6:	42ae      	cmp	r6, r5
  4070c8:	f8d3 9000 	ldr.w	r9, [r3]
  4070cc:	46ab      	mov	fp, r5
  4070ce:	d2b2      	bcs.n	407036 <__ssprint_r+0x1a>
  4070d0:	4635      	mov	r5, r6
  4070d2:	46b3      	mov	fp, r6
  4070d4:	e7e2      	b.n	40709c <__ssprint_r+0x80>
  4070d6:	4650      	mov	r0, sl
  4070d8:	f000 fa60 	bl	40759c <_realloc_r>
  4070dc:	4603      	mov	r3, r0
  4070de:	2800      	cmp	r0, #0
  4070e0:	d1d2      	bne.n	407088 <__ssprint_r+0x6c>
  4070e2:	6921      	ldr	r1, [r4, #16]
  4070e4:	4650      	mov	r0, sl
  4070e6:	f000 f8f9 	bl	4072dc <_free_r>
  4070ea:	230c      	movs	r3, #12
  4070ec:	f8ca 3000 	str.w	r3, [sl]
  4070f0:	89a3      	ldrh	r3, [r4, #12]
  4070f2:	2200      	movs	r2, #0
  4070f4:	f043 0340 	orr.w	r3, r3, #64	; 0x40
  4070f8:	f04f 30ff 	mov.w	r0, #4294967295
  4070fc:	81a3      	strh	r3, [r4, #12]
  4070fe:	f8c8 2008 	str.w	r2, [r8, #8]
  407102:	f8c8 2004 	str.w	r2, [r8, #4]
  407106:	b003      	add	sp, #12
  407108:	e8bd 8ff0 	ldmia.w	sp!, {r4, r5, r6, r7, r8, r9, sl, fp, pc}
  40710c:	2000      	movs	r0, #0
  40710e:	f8c8 0004 	str.w	r0, [r8, #4]
  407112:	b003      	add	sp, #12
  407114:	e8bd 8ff0 	ldmia.w	sp!, {r4, r5, r6, r7, r8, r9, sl, fp, pc}

00407118 <__register_exitproc>:
  407118:	e92d 43f8 	stmdb	sp!, {r3, r4, r5, r6, r7, r8, r9, lr}
  40711c:	4d2c      	ldr	r5, [pc, #176]	; (4071d0 <__register_exitproc+0xb8>)
  40711e:	4606      	mov	r6, r0
  407120:	6828      	ldr	r0, [r5, #0]
  407122:	4698      	mov	r8, r3
  407124:	460f      	mov	r7, r1
  407126:	4691      	mov	r9, r2
  407128:	f7fe ff98 	bl	40605c <__retarget_lock_acquire_recursive>
  40712c:	4b29      	ldr	r3, [pc, #164]	; (4071d4 <__register_exitproc+0xbc>)
  40712e:	681c      	ldr	r4, [r3, #0]
  407130:	f8d4 3148 	ldr.w	r3, [r4, #328]	; 0x148
  407134:	2b00      	cmp	r3, #0
  407136:	d03e      	beq.n	4071b6 <__register_exitproc+0x9e>
  407138:	685a      	ldr	r2, [r3, #4]
  40713a:	2a1f      	cmp	r2, #31
  40713c:	dc1c      	bgt.n	407178 <__register_exitproc+0x60>
  40713e:	f102 0e01 	add.w	lr, r2, #1
  407142:	b176      	cbz	r6, 407162 <__register_exitproc+0x4a>
  407144:	eb03 0182 	add.w	r1, r3, r2, lsl #2
  407148:	2401      	movs	r4, #1
  40714a:	f8c1 9088 	str.w	r9, [r1, #136]	; 0x88
  40714e:	f8d3 0188 	ldr.w	r0, [r3, #392]	; 0x188
  407152:	4094      	lsls	r4, r2
  407154:	4320      	orrs	r0, r4
  407156:	2e02      	cmp	r6, #2
  407158:	f8c3 0188 	str.w	r0, [r3, #392]	; 0x188
  40715c:	f8c1 8108 	str.w	r8, [r1, #264]	; 0x108
  407160:	d023      	beq.n	4071aa <__register_exitproc+0x92>
  407162:	3202      	adds	r2, #2
  407164:	f8c3 e004 	str.w	lr, [r3, #4]
  407168:	6828      	ldr	r0, [r5, #0]
  40716a:	f843 7022 	str.w	r7, [r3, r2, lsl #2]
  40716e:	f7fe ff77 	bl	406060 <__retarget_lock_release_recursive>
  407172:	2000      	movs	r0, #0
  407174:	e8bd 83f8 	ldmia.w	sp!, {r3, r4, r5, r6, r7, r8, r9, pc}
  407178:	4b17      	ldr	r3, [pc, #92]	; (4071d8 <__register_exitproc+0xc0>)
  40717a:	b30b      	cbz	r3, 4071c0 <__register_exitproc+0xa8>
  40717c:	f44f 70c8 	mov.w	r0, #400	; 0x190
  407180:	f3af 8000 	nop.w
  407184:	4603      	mov	r3, r0
  407186:	b1d8      	cbz	r0, 4071c0 <__register_exitproc+0xa8>
  407188:	f8d4 2148 	ldr.w	r2, [r4, #328]	; 0x148
  40718c:	6002      	str	r2, [r0, #0]
  40718e:	2100      	movs	r1, #0
  407190:	6041      	str	r1, [r0, #4]
  407192:	460a      	mov	r2, r1
  407194:	f8c4 0148 	str.w	r0, [r4, #328]	; 0x148
  407198:	f04f 0e01 	mov.w	lr, #1
  40719c:	f8c0 1188 	str.w	r1, [r0, #392]	; 0x188
  4071a0:	f8c0 118c 	str.w	r1, [r0, #396]	; 0x18c
  4071a4:	2e00      	cmp	r6, #0
  4071a6:	d0dc      	beq.n	407162 <__register_exitproc+0x4a>
  4071a8:	e7cc      	b.n	407144 <__register_exitproc+0x2c>
  4071aa:	f8d3 118c 	ldr.w	r1, [r3, #396]	; 0x18c
  4071ae:	430c      	orrs	r4, r1
  4071b0:	f8c3 418c 	str.w	r4, [r3, #396]	; 0x18c
  4071b4:	e7d5      	b.n	407162 <__register_exitproc+0x4a>
  4071b6:	f504 73a6 	add.w	r3, r4, #332	; 0x14c
  4071ba:	f8c4 3148 	str.w	r3, [r4, #328]	; 0x148
  4071be:	e7bb      	b.n	407138 <__register_exitproc+0x20>
  4071c0:	6828      	ldr	r0, [r5, #0]
  4071c2:	f7fe ff4d 	bl	406060 <__retarget_lock_release_recursive>
  4071c6:	f04f 30ff 	mov.w	r0, #4294967295
  4071ca:	e8bd 83f8 	ldmia.w	sp!, {r3, r4, r5, r6, r7, r8, r9, pc}
  4071ce:	bf00      	nop
  4071d0:	20000440 	.word	0x20000440
  4071d4:	00408ebc 	.word	0x00408ebc
  4071d8:	00000000 	.word	0x00000000

004071dc <_calloc_r>:
  4071dc:	b510      	push	{r4, lr}
  4071de:	fb02 f101 	mul.w	r1, r2, r1
  4071e2:	f7fe ff3f 	bl	406064 <_malloc_r>
  4071e6:	4604      	mov	r4, r0
  4071e8:	b1d8      	cbz	r0, 407222 <_calloc_r+0x46>
  4071ea:	f850 2c04 	ldr.w	r2, [r0, #-4]
  4071ee:	f022 0203 	bic.w	r2, r2, #3
  4071f2:	3a04      	subs	r2, #4
  4071f4:	2a24      	cmp	r2, #36	; 0x24
  4071f6:	d818      	bhi.n	40722a <_calloc_r+0x4e>
  4071f8:	2a13      	cmp	r2, #19
  4071fa:	d914      	bls.n	407226 <_calloc_r+0x4a>
  4071fc:	2300      	movs	r3, #0
  4071fe:	2a1b      	cmp	r2, #27
  407200:	6003      	str	r3, [r0, #0]
  407202:	6043      	str	r3, [r0, #4]
  407204:	d916      	bls.n	407234 <_calloc_r+0x58>
  407206:	2a24      	cmp	r2, #36	; 0x24
  407208:	6083      	str	r3, [r0, #8]
  40720a:	60c3      	str	r3, [r0, #12]
  40720c:	bf11      	iteee	ne
  40720e:	f100 0210 	addne.w	r2, r0, #16
  407212:	6103      	streq	r3, [r0, #16]
  407214:	6143      	streq	r3, [r0, #20]
  407216:	f100 0218 	addeq.w	r2, r0, #24
  40721a:	2300      	movs	r3, #0
  40721c:	6013      	str	r3, [r2, #0]
  40721e:	6053      	str	r3, [r2, #4]
  407220:	6093      	str	r3, [r2, #8]
  407222:	4620      	mov	r0, r4
  407224:	bd10      	pop	{r4, pc}
  407226:	4602      	mov	r2, r0
  407228:	e7f7      	b.n	40721a <_calloc_r+0x3e>
  40722a:	2100      	movs	r1, #0
  40722c:	f7fc fa1a 	bl	403664 <memset>
  407230:	4620      	mov	r0, r4
  407232:	bd10      	pop	{r4, pc}
  407234:	f100 0208 	add.w	r2, r0, #8
  407238:	e7ef      	b.n	40721a <_calloc_r+0x3e>
  40723a:	bf00      	nop

0040723c <_malloc_trim_r>:
  40723c:	b5f8      	push	{r3, r4, r5, r6, r7, lr}
  40723e:	4f24      	ldr	r7, [pc, #144]	; (4072d0 <_malloc_trim_r+0x94>)
  407240:	460c      	mov	r4, r1
  407242:	4606      	mov	r6, r0
  407244:	f7ff fade 	bl	406804 <__malloc_lock>
  407248:	68bb      	ldr	r3, [r7, #8]
  40724a:	685d      	ldr	r5, [r3, #4]
  40724c:	f5c4 617e 	rsb	r1, r4, #4064	; 0xfe0
  407250:	310f      	adds	r1, #15
  407252:	f025 0503 	bic.w	r5, r5, #3
  407256:	4429      	add	r1, r5
  407258:	f421 617f 	bic.w	r1, r1, #4080	; 0xff0
  40725c:	f021 010f 	bic.w	r1, r1, #15
  407260:	f5a1 5480 	sub.w	r4, r1, #4096	; 0x1000
  407264:	f5b4 5f80 	cmp.w	r4, #4096	; 0x1000
  407268:	db07      	blt.n	40727a <_malloc_trim_r+0x3e>
  40726a:	2100      	movs	r1, #0
  40726c:	4630      	mov	r0, r6
  40726e:	f7ff fdcf 	bl	406e10 <_sbrk_r>
  407272:	68bb      	ldr	r3, [r7, #8]
  407274:	442b      	add	r3, r5
  407276:	4298      	cmp	r0, r3
  407278:	d004      	beq.n	407284 <_malloc_trim_r+0x48>
  40727a:	4630      	mov	r0, r6
  40727c:	f7ff fac8 	bl	406810 <__malloc_unlock>
  407280:	2000      	movs	r0, #0
  407282:	bdf8      	pop	{r3, r4, r5, r6, r7, pc}
  407284:	4261      	negs	r1, r4
  407286:	4630      	mov	r0, r6
  407288:	f7ff fdc2 	bl	406e10 <_sbrk_r>
  40728c:	3001      	adds	r0, #1
  40728e:	d00d      	beq.n	4072ac <_malloc_trim_r+0x70>
  407290:	4b10      	ldr	r3, [pc, #64]	; (4072d4 <_malloc_trim_r+0x98>)
  407292:	68ba      	ldr	r2, [r7, #8]
  407294:	6819      	ldr	r1, [r3, #0]
  407296:	1b2d      	subs	r5, r5, r4
  407298:	f045 0501 	orr.w	r5, r5, #1
  40729c:	4630      	mov	r0, r6
  40729e:	1b09      	subs	r1, r1, r4
  4072a0:	6055      	str	r5, [r2, #4]
  4072a2:	6019      	str	r1, [r3, #0]
  4072a4:	f7ff fab4 	bl	406810 <__malloc_unlock>
  4072a8:	2001      	movs	r0, #1
  4072aa:	bdf8      	pop	{r3, r4, r5, r6, r7, pc}
  4072ac:	2100      	movs	r1, #0
  4072ae:	4630      	mov	r0, r6
  4072b0:	f7ff fdae 	bl	406e10 <_sbrk_r>
  4072b4:	68ba      	ldr	r2, [r7, #8]
  4072b6:	1a83      	subs	r3, r0, r2
  4072b8:	2b0f      	cmp	r3, #15
  4072ba:	ddde      	ble.n	40727a <_malloc_trim_r+0x3e>
  4072bc:	4c06      	ldr	r4, [pc, #24]	; (4072d8 <_malloc_trim_r+0x9c>)
  4072be:	4905      	ldr	r1, [pc, #20]	; (4072d4 <_malloc_trim_r+0x98>)
  4072c0:	6824      	ldr	r4, [r4, #0]
  4072c2:	f043 0301 	orr.w	r3, r3, #1
  4072c6:	1b00      	subs	r0, r0, r4
  4072c8:	6053      	str	r3, [r2, #4]
  4072ca:	6008      	str	r0, [r1, #0]
  4072cc:	e7d5      	b.n	40727a <_malloc_trim_r+0x3e>
  4072ce:	bf00      	nop
  4072d0:	20000444 	.word	0x20000444
  4072d4:	20000a78 	.word	0x20000a78
  4072d8:	2000084c 	.word	0x2000084c

004072dc <_free_r>:
  4072dc:	2900      	cmp	r1, #0
  4072de:	d044      	beq.n	40736a <_free_r+0x8e>
  4072e0:	e92d 41f0 	stmdb	sp!, {r4, r5, r6, r7, r8, lr}
  4072e4:	460d      	mov	r5, r1
  4072e6:	4680      	mov	r8, r0
  4072e8:	f7ff fa8c 	bl	406804 <__malloc_lock>
  4072ec:	f855 7c04 	ldr.w	r7, [r5, #-4]
  4072f0:	4969      	ldr	r1, [pc, #420]	; (407498 <_free_r+0x1bc>)
  4072f2:	f027 0301 	bic.w	r3, r7, #1
  4072f6:	f1a5 0408 	sub.w	r4, r5, #8
  4072fa:	18e2      	adds	r2, r4, r3
  4072fc:	688e      	ldr	r6, [r1, #8]
  4072fe:	6850      	ldr	r0, [r2, #4]
  407300:	42b2      	cmp	r2, r6
  407302:	f020 0003 	bic.w	r0, r0, #3
  407306:	d05e      	beq.n	4073c6 <_free_r+0xea>
  407308:	07fe      	lsls	r6, r7, #31
  40730a:	6050      	str	r0, [r2, #4]
  40730c:	d40b      	bmi.n	407326 <_free_r+0x4a>
  40730e:	f855 7c08 	ldr.w	r7, [r5, #-8]
  407312:	1be4      	subs	r4, r4, r7
  407314:	f101 0e08 	add.w	lr, r1, #8
  407318:	68a5      	ldr	r5, [r4, #8]
  40731a:	4575      	cmp	r5, lr
  40731c:	443b      	add	r3, r7
  40731e:	d06d      	beq.n	4073fc <_free_r+0x120>
  407320:	68e7      	ldr	r7, [r4, #12]
  407322:	60ef      	str	r7, [r5, #12]
  407324:	60bd      	str	r5, [r7, #8]
  407326:	1815      	adds	r5, r2, r0
  407328:	686d      	ldr	r5, [r5, #4]
  40732a:	07ed      	lsls	r5, r5, #31
  40732c:	d53e      	bpl.n	4073ac <_free_r+0xd0>
  40732e:	f043 0201 	orr.w	r2, r3, #1
  407332:	6062      	str	r2, [r4, #4]
  407334:	50e3      	str	r3, [r4, r3]
  407336:	f5b3 7f00 	cmp.w	r3, #512	; 0x200
  40733a:	d217      	bcs.n	40736c <_free_r+0x90>
  40733c:	08db      	lsrs	r3, r3, #3
  40733e:	1c58      	adds	r0, r3, #1
  407340:	109a      	asrs	r2, r3, #2
  407342:	684d      	ldr	r5, [r1, #4]
  407344:	f851 7030 	ldr.w	r7, [r1, r0, lsl #3]
  407348:	60a7      	str	r7, [r4, #8]
  40734a:	2301      	movs	r3, #1
  40734c:	4093      	lsls	r3, r2
  40734e:	eb01 02c0 	add.w	r2, r1, r0, lsl #3
  407352:	432b      	orrs	r3, r5
  407354:	3a08      	subs	r2, #8
  407356:	60e2      	str	r2, [r4, #12]
  407358:	604b      	str	r3, [r1, #4]
  40735a:	f841 4030 	str.w	r4, [r1, r0, lsl #3]
  40735e:	60fc      	str	r4, [r7, #12]
  407360:	4640      	mov	r0, r8
  407362:	e8bd 41f0 	ldmia.w	sp!, {r4, r5, r6, r7, r8, lr}
  407366:	f7ff ba53 	b.w	406810 <__malloc_unlock>
  40736a:	4770      	bx	lr
  40736c:	0a5a      	lsrs	r2, r3, #9
  40736e:	2a04      	cmp	r2, #4
  407370:	d852      	bhi.n	407418 <_free_r+0x13c>
  407372:	099a      	lsrs	r2, r3, #6
  407374:	f102 0739 	add.w	r7, r2, #57	; 0x39
  407378:	00ff      	lsls	r7, r7, #3
  40737a:	f102 0538 	add.w	r5, r2, #56	; 0x38
  40737e:	19c8      	adds	r0, r1, r7
  407380:	59ca      	ldr	r2, [r1, r7]
  407382:	3808      	subs	r0, #8
  407384:	4290      	cmp	r0, r2
  407386:	d04f      	beq.n	407428 <_free_r+0x14c>
  407388:	6851      	ldr	r1, [r2, #4]
  40738a:	f021 0103 	bic.w	r1, r1, #3
  40738e:	428b      	cmp	r3, r1
  407390:	d232      	bcs.n	4073f8 <_free_r+0x11c>
  407392:	6892      	ldr	r2, [r2, #8]
  407394:	4290      	cmp	r0, r2
  407396:	d1f7      	bne.n	407388 <_free_r+0xac>
  407398:	68c3      	ldr	r3, [r0, #12]
  40739a:	60a0      	str	r0, [r4, #8]
  40739c:	60e3      	str	r3, [r4, #12]
  40739e:	609c      	str	r4, [r3, #8]
  4073a0:	60c4      	str	r4, [r0, #12]
  4073a2:	4640      	mov	r0, r8
  4073a4:	e8bd 41f0 	ldmia.w	sp!, {r4, r5, r6, r7, r8, lr}
  4073a8:	f7ff ba32 	b.w	406810 <__malloc_unlock>
  4073ac:	6895      	ldr	r5, [r2, #8]
  4073ae:	4f3b      	ldr	r7, [pc, #236]	; (40749c <_free_r+0x1c0>)
  4073b0:	42bd      	cmp	r5, r7
  4073b2:	4403      	add	r3, r0
  4073b4:	d040      	beq.n	407438 <_free_r+0x15c>
  4073b6:	68d0      	ldr	r0, [r2, #12]
  4073b8:	60e8      	str	r0, [r5, #12]
  4073ba:	f043 0201 	orr.w	r2, r3, #1
  4073be:	6085      	str	r5, [r0, #8]
  4073c0:	6062      	str	r2, [r4, #4]
  4073c2:	50e3      	str	r3, [r4, r3]
  4073c4:	e7b7      	b.n	407336 <_free_r+0x5a>
  4073c6:	07ff      	lsls	r7, r7, #31
  4073c8:	4403      	add	r3, r0
  4073ca:	d407      	bmi.n	4073dc <_free_r+0x100>
  4073cc:	f855 2c08 	ldr.w	r2, [r5, #-8]
  4073d0:	1aa4      	subs	r4, r4, r2
  4073d2:	4413      	add	r3, r2
  4073d4:	68a0      	ldr	r0, [r4, #8]
  4073d6:	68e2      	ldr	r2, [r4, #12]
  4073d8:	60c2      	str	r2, [r0, #12]
  4073da:	6090      	str	r0, [r2, #8]
  4073dc:	4a30      	ldr	r2, [pc, #192]	; (4074a0 <_free_r+0x1c4>)
  4073de:	6812      	ldr	r2, [r2, #0]
  4073e0:	f043 0001 	orr.w	r0, r3, #1
  4073e4:	4293      	cmp	r3, r2
  4073e6:	6060      	str	r0, [r4, #4]
  4073e8:	608c      	str	r4, [r1, #8]
  4073ea:	d3b9      	bcc.n	407360 <_free_r+0x84>
  4073ec:	4b2d      	ldr	r3, [pc, #180]	; (4074a4 <_free_r+0x1c8>)
  4073ee:	4640      	mov	r0, r8
  4073f0:	6819      	ldr	r1, [r3, #0]
  4073f2:	f7ff ff23 	bl	40723c <_malloc_trim_r>
  4073f6:	e7b3      	b.n	407360 <_free_r+0x84>
  4073f8:	4610      	mov	r0, r2
  4073fa:	e7cd      	b.n	407398 <_free_r+0xbc>
  4073fc:	1811      	adds	r1, r2, r0
  4073fe:	6849      	ldr	r1, [r1, #4]
  407400:	07c9      	lsls	r1, r1, #31
  407402:	d444      	bmi.n	40748e <_free_r+0x1b2>
  407404:	6891      	ldr	r1, [r2, #8]
  407406:	68d2      	ldr	r2, [r2, #12]
  407408:	60ca      	str	r2, [r1, #12]
  40740a:	4403      	add	r3, r0
  40740c:	f043 0001 	orr.w	r0, r3, #1
  407410:	6091      	str	r1, [r2, #8]
  407412:	6060      	str	r0, [r4, #4]
  407414:	50e3      	str	r3, [r4, r3]
  407416:	e7a3      	b.n	407360 <_free_r+0x84>
  407418:	2a14      	cmp	r2, #20
  40741a:	d816      	bhi.n	40744a <_free_r+0x16e>
  40741c:	f102 075c 	add.w	r7, r2, #92	; 0x5c
  407420:	00ff      	lsls	r7, r7, #3
  407422:	f102 055b 	add.w	r5, r2, #91	; 0x5b
  407426:	e7aa      	b.n	40737e <_free_r+0xa2>
  407428:	10aa      	asrs	r2, r5, #2
  40742a:	2301      	movs	r3, #1
  40742c:	684d      	ldr	r5, [r1, #4]
  40742e:	4093      	lsls	r3, r2
  407430:	432b      	orrs	r3, r5
  407432:	604b      	str	r3, [r1, #4]
  407434:	4603      	mov	r3, r0
  407436:	e7b0      	b.n	40739a <_free_r+0xbe>
  407438:	f043 0201 	orr.w	r2, r3, #1
  40743c:	614c      	str	r4, [r1, #20]
  40743e:	610c      	str	r4, [r1, #16]
  407440:	60e5      	str	r5, [r4, #12]
  407442:	60a5      	str	r5, [r4, #8]
  407444:	6062      	str	r2, [r4, #4]
  407446:	50e3      	str	r3, [r4, r3]
  407448:	e78a      	b.n	407360 <_free_r+0x84>
  40744a:	2a54      	cmp	r2, #84	; 0x54
  40744c:	d806      	bhi.n	40745c <_free_r+0x180>
  40744e:	0b1a      	lsrs	r2, r3, #12
  407450:	f102 076f 	add.w	r7, r2, #111	; 0x6f
  407454:	00ff      	lsls	r7, r7, #3
  407456:	f102 056e 	add.w	r5, r2, #110	; 0x6e
  40745a:	e790      	b.n	40737e <_free_r+0xa2>
  40745c:	f5b2 7faa 	cmp.w	r2, #340	; 0x154
  407460:	d806      	bhi.n	407470 <_free_r+0x194>
  407462:	0bda      	lsrs	r2, r3, #15
  407464:	f102 0778 	add.w	r7, r2, #120	; 0x78
  407468:	00ff      	lsls	r7, r7, #3
  40746a:	f102 0577 	add.w	r5, r2, #119	; 0x77
  40746e:	e786      	b.n	40737e <_free_r+0xa2>
  407470:	f240 5054 	movw	r0, #1364	; 0x554
  407474:	4282      	cmp	r2, r0
  407476:	d806      	bhi.n	407486 <_free_r+0x1aa>
  407478:	0c9a      	lsrs	r2, r3, #18
  40747a:	f102 077d 	add.w	r7, r2, #125	; 0x7d
  40747e:	00ff      	lsls	r7, r7, #3
  407480:	f102 057c 	add.w	r5, r2, #124	; 0x7c
  407484:	e77b      	b.n	40737e <_free_r+0xa2>
  407486:	f44f 777e 	mov.w	r7, #1016	; 0x3f8
  40748a:	257e      	movs	r5, #126	; 0x7e
  40748c:	e777      	b.n	40737e <_free_r+0xa2>
  40748e:	f043 0101 	orr.w	r1, r3, #1
  407492:	6061      	str	r1, [r4, #4]
  407494:	6013      	str	r3, [r2, #0]
  407496:	e763      	b.n	407360 <_free_r+0x84>
  407498:	20000444 	.word	0x20000444
  40749c:	2000044c 	.word	0x2000044c
  4074a0:	20000850 	.word	0x20000850
  4074a4:	20000aa8 	.word	0x20000aa8

004074a8 <__ascii_mbtowc>:
  4074a8:	b082      	sub	sp, #8
  4074aa:	b149      	cbz	r1, 4074c0 <__ascii_mbtowc+0x18>
  4074ac:	b15a      	cbz	r2, 4074c6 <__ascii_mbtowc+0x1e>
  4074ae:	b16b      	cbz	r3, 4074cc <__ascii_mbtowc+0x24>
  4074b0:	7813      	ldrb	r3, [r2, #0]
  4074b2:	600b      	str	r3, [r1, #0]
  4074b4:	7812      	ldrb	r2, [r2, #0]
  4074b6:	1c10      	adds	r0, r2, #0
  4074b8:	bf18      	it	ne
  4074ba:	2001      	movne	r0, #1
  4074bc:	b002      	add	sp, #8
  4074be:	4770      	bx	lr
  4074c0:	a901      	add	r1, sp, #4
  4074c2:	2a00      	cmp	r2, #0
  4074c4:	d1f3      	bne.n	4074ae <__ascii_mbtowc+0x6>
  4074c6:	4610      	mov	r0, r2
  4074c8:	b002      	add	sp, #8
  4074ca:	4770      	bx	lr
  4074cc:	f06f 0001 	mvn.w	r0, #1
  4074d0:	e7f4      	b.n	4074bc <__ascii_mbtowc+0x14>
  4074d2:	bf00      	nop

004074d4 <memmove>:
  4074d4:	4288      	cmp	r0, r1
  4074d6:	b5f0      	push	{r4, r5, r6, r7, lr}
  4074d8:	d90d      	bls.n	4074f6 <memmove+0x22>
  4074da:	188b      	adds	r3, r1, r2
  4074dc:	4298      	cmp	r0, r3
  4074de:	d20a      	bcs.n	4074f6 <memmove+0x22>
  4074e0:	1884      	adds	r4, r0, r2
  4074e2:	2a00      	cmp	r2, #0
  4074e4:	d051      	beq.n	40758a <memmove+0xb6>
  4074e6:	4622      	mov	r2, r4
  4074e8:	f813 4d01 	ldrb.w	r4, [r3, #-1]!
  4074ec:	f802 4d01 	strb.w	r4, [r2, #-1]!
  4074f0:	4299      	cmp	r1, r3
  4074f2:	d1f9      	bne.n	4074e8 <memmove+0x14>
  4074f4:	bdf0      	pop	{r4, r5, r6, r7, pc}
  4074f6:	2a0f      	cmp	r2, #15
  4074f8:	d948      	bls.n	40758c <memmove+0xb8>
  4074fa:	ea41 0300 	orr.w	r3, r1, r0
  4074fe:	079b      	lsls	r3, r3, #30
  407500:	d146      	bne.n	407590 <memmove+0xbc>
  407502:	f100 0410 	add.w	r4, r0, #16
  407506:	f101 0310 	add.w	r3, r1, #16
  40750a:	4615      	mov	r5, r2
  40750c:	f853 6c10 	ldr.w	r6, [r3, #-16]
  407510:	f844 6c10 	str.w	r6, [r4, #-16]
  407514:	f853 6c0c 	ldr.w	r6, [r3, #-12]
  407518:	f844 6c0c 	str.w	r6, [r4, #-12]
  40751c:	f853 6c08 	ldr.w	r6, [r3, #-8]
  407520:	f844 6c08 	str.w	r6, [r4, #-8]
  407524:	3d10      	subs	r5, #16
  407526:	f853 6c04 	ldr.w	r6, [r3, #-4]
  40752a:	f844 6c04 	str.w	r6, [r4, #-4]
  40752e:	2d0f      	cmp	r5, #15
  407530:	f103 0310 	add.w	r3, r3, #16
  407534:	f104 0410 	add.w	r4, r4, #16
  407538:	d8e8      	bhi.n	40750c <memmove+0x38>
  40753a:	f1a2 0310 	sub.w	r3, r2, #16
  40753e:	f023 030f 	bic.w	r3, r3, #15
  407542:	f002 0e0f 	and.w	lr, r2, #15
  407546:	3310      	adds	r3, #16
  407548:	f1be 0f03 	cmp.w	lr, #3
  40754c:	4419      	add	r1, r3
  40754e:	4403      	add	r3, r0
  407550:	d921      	bls.n	407596 <memmove+0xc2>
  407552:	1f1e      	subs	r6, r3, #4
  407554:	460d      	mov	r5, r1
  407556:	4674      	mov	r4, lr
  407558:	3c04      	subs	r4, #4
  40755a:	f855 7b04 	ldr.w	r7, [r5], #4
  40755e:	f846 7f04 	str.w	r7, [r6, #4]!
  407562:	2c03      	cmp	r4, #3
  407564:	d8f8      	bhi.n	407558 <memmove+0x84>
  407566:	f1ae 0404 	sub.w	r4, lr, #4
  40756a:	f024 0403 	bic.w	r4, r4, #3
  40756e:	3404      	adds	r4, #4
  407570:	4421      	add	r1, r4
  407572:	4423      	add	r3, r4
  407574:	f002 0203 	and.w	r2, r2, #3
  407578:	b162      	cbz	r2, 407594 <memmove+0xc0>
  40757a:	3b01      	subs	r3, #1
  40757c:	440a      	add	r2, r1
  40757e:	f811 4b01 	ldrb.w	r4, [r1], #1
  407582:	f803 4f01 	strb.w	r4, [r3, #1]!
  407586:	428a      	cmp	r2, r1
  407588:	d1f9      	bne.n	40757e <memmove+0xaa>
  40758a:	bdf0      	pop	{r4, r5, r6, r7, pc}
  40758c:	4603      	mov	r3, r0
  40758e:	e7f3      	b.n	407578 <memmove+0xa4>
  407590:	4603      	mov	r3, r0
  407592:	e7f2      	b.n	40757a <memmove+0xa6>
  407594:	bdf0      	pop	{r4, r5, r6, r7, pc}
  407596:	4672      	mov	r2, lr
  407598:	e7ee      	b.n	407578 <memmove+0xa4>
  40759a:	bf00      	nop

0040759c <_realloc_r>:
  40759c:	2900      	cmp	r1, #0
  40759e:	f000 8095 	beq.w	4076cc <_realloc_r+0x130>
  4075a2:	e92d 4ff0 	stmdb	sp!, {r4, r5, r6, r7, r8, r9, sl, fp, lr}
  4075a6:	460d      	mov	r5, r1
  4075a8:	4616      	mov	r6, r2
  4075aa:	b083      	sub	sp, #12
  4075ac:	4680      	mov	r8, r0
  4075ae:	f106 070b 	add.w	r7, r6, #11
  4075b2:	f7ff f927 	bl	406804 <__malloc_lock>
  4075b6:	f855 ec04 	ldr.w	lr, [r5, #-4]
  4075ba:	2f16      	cmp	r7, #22
  4075bc:	f02e 0403 	bic.w	r4, lr, #3
  4075c0:	f1a5 0908 	sub.w	r9, r5, #8
  4075c4:	d83c      	bhi.n	407640 <_realloc_r+0xa4>
  4075c6:	2210      	movs	r2, #16
  4075c8:	4617      	mov	r7, r2
  4075ca:	42be      	cmp	r6, r7
  4075cc:	d83d      	bhi.n	40764a <_realloc_r+0xae>
  4075ce:	4294      	cmp	r4, r2
  4075d0:	da43      	bge.n	40765a <_realloc_r+0xbe>
  4075d2:	4bc4      	ldr	r3, [pc, #784]	; (4078e4 <_realloc_r+0x348>)
  4075d4:	6899      	ldr	r1, [r3, #8]
  4075d6:	eb09 0004 	add.w	r0, r9, r4
  4075da:	4288      	cmp	r0, r1
  4075dc:	f000 80b4 	beq.w	407748 <_realloc_r+0x1ac>
  4075e0:	6843      	ldr	r3, [r0, #4]
  4075e2:	f023 0101 	bic.w	r1, r3, #1
  4075e6:	4401      	add	r1, r0
  4075e8:	6849      	ldr	r1, [r1, #4]
  4075ea:	07c9      	lsls	r1, r1, #31
  4075ec:	d54c      	bpl.n	407688 <_realloc_r+0xec>
  4075ee:	f01e 0f01 	tst.w	lr, #1
  4075f2:	f000 809b 	beq.w	40772c <_realloc_r+0x190>
  4075f6:	4631      	mov	r1, r6
  4075f8:	4640      	mov	r0, r8
  4075fa:	f7fe fd33 	bl	406064 <_malloc_r>
  4075fe:	4606      	mov	r6, r0
  407600:	2800      	cmp	r0, #0
  407602:	d03a      	beq.n	40767a <_realloc_r+0xde>
  407604:	f855 3c04 	ldr.w	r3, [r5, #-4]
  407608:	f023 0301 	bic.w	r3, r3, #1
  40760c:	444b      	add	r3, r9
  40760e:	f1a0 0208 	sub.w	r2, r0, #8
  407612:	429a      	cmp	r2, r3
  407614:	f000 8121 	beq.w	40785a <_realloc_r+0x2be>
  407618:	1f22      	subs	r2, r4, #4
  40761a:	2a24      	cmp	r2, #36	; 0x24
  40761c:	f200 8107 	bhi.w	40782e <_realloc_r+0x292>
  407620:	2a13      	cmp	r2, #19
  407622:	f200 80db 	bhi.w	4077dc <_realloc_r+0x240>
  407626:	4603      	mov	r3, r0
  407628:	462a      	mov	r2, r5
  40762a:	6811      	ldr	r1, [r2, #0]
  40762c:	6019      	str	r1, [r3, #0]
  40762e:	6851      	ldr	r1, [r2, #4]
  407630:	6059      	str	r1, [r3, #4]
  407632:	6892      	ldr	r2, [r2, #8]
  407634:	609a      	str	r2, [r3, #8]
  407636:	4629      	mov	r1, r5
  407638:	4640      	mov	r0, r8
  40763a:	f7ff fe4f 	bl	4072dc <_free_r>
  40763e:	e01c      	b.n	40767a <_realloc_r+0xde>
  407640:	f027 0707 	bic.w	r7, r7, #7
  407644:	2f00      	cmp	r7, #0
  407646:	463a      	mov	r2, r7
  407648:	dabf      	bge.n	4075ca <_realloc_r+0x2e>
  40764a:	2600      	movs	r6, #0
  40764c:	230c      	movs	r3, #12
  40764e:	4630      	mov	r0, r6
  407650:	f8c8 3000 	str.w	r3, [r8]
  407654:	b003      	add	sp, #12
  407656:	e8bd 8ff0 	ldmia.w	sp!, {r4, r5, r6, r7, r8, r9, sl, fp, pc}
  40765a:	462e      	mov	r6, r5
  40765c:	1be3      	subs	r3, r4, r7
  40765e:	2b0f      	cmp	r3, #15
  407660:	d81e      	bhi.n	4076a0 <_realloc_r+0x104>
  407662:	f8d9 3004 	ldr.w	r3, [r9, #4]
  407666:	f003 0301 	and.w	r3, r3, #1
  40766a:	4323      	orrs	r3, r4
  40766c:	444c      	add	r4, r9
  40766e:	f8c9 3004 	str.w	r3, [r9, #4]
  407672:	6863      	ldr	r3, [r4, #4]
  407674:	f043 0301 	orr.w	r3, r3, #1
  407678:	6063      	str	r3, [r4, #4]
  40767a:	4640      	mov	r0, r8
  40767c:	f7ff f8c8 	bl	406810 <__malloc_unlock>
  407680:	4630      	mov	r0, r6
  407682:	b003      	add	sp, #12
  407684:	e8bd 8ff0 	ldmia.w	sp!, {r4, r5, r6, r7, r8, r9, sl, fp, pc}
  407688:	f023 0303 	bic.w	r3, r3, #3
  40768c:	18e1      	adds	r1, r4, r3
  40768e:	4291      	cmp	r1, r2
  407690:	db1f      	blt.n	4076d2 <_realloc_r+0x136>
  407692:	68c3      	ldr	r3, [r0, #12]
  407694:	6882      	ldr	r2, [r0, #8]
  407696:	462e      	mov	r6, r5
  407698:	60d3      	str	r3, [r2, #12]
  40769a:	460c      	mov	r4, r1
  40769c:	609a      	str	r2, [r3, #8]
  40769e:	e7dd      	b.n	40765c <_realloc_r+0xc0>
  4076a0:	f8d9 2004 	ldr.w	r2, [r9, #4]
  4076a4:	eb09 0107 	add.w	r1, r9, r7
  4076a8:	f002 0201 	and.w	r2, r2, #1
  4076ac:	444c      	add	r4, r9
  4076ae:	f043 0301 	orr.w	r3, r3, #1
  4076b2:	4317      	orrs	r7, r2
  4076b4:	f8c9 7004 	str.w	r7, [r9, #4]
  4076b8:	604b      	str	r3, [r1, #4]
  4076ba:	6863      	ldr	r3, [r4, #4]
  4076bc:	f043 0301 	orr.w	r3, r3, #1
  4076c0:	3108      	adds	r1, #8
  4076c2:	6063      	str	r3, [r4, #4]
  4076c4:	4640      	mov	r0, r8
  4076c6:	f7ff fe09 	bl	4072dc <_free_r>
  4076ca:	e7d6      	b.n	40767a <_realloc_r+0xde>
  4076cc:	4611      	mov	r1, r2
  4076ce:	f7fe bcc9 	b.w	406064 <_malloc_r>
  4076d2:	f01e 0f01 	tst.w	lr, #1
  4076d6:	d18e      	bne.n	4075f6 <_realloc_r+0x5a>
  4076d8:	f855 1c08 	ldr.w	r1, [r5, #-8]
  4076dc:	eba9 0a01 	sub.w	sl, r9, r1
  4076e0:	f8da 1004 	ldr.w	r1, [sl, #4]
  4076e4:	f021 0103 	bic.w	r1, r1, #3
  4076e8:	440b      	add	r3, r1
  4076ea:	4423      	add	r3, r4
  4076ec:	4293      	cmp	r3, r2
  4076ee:	db25      	blt.n	40773c <_realloc_r+0x1a0>
  4076f0:	68c2      	ldr	r2, [r0, #12]
  4076f2:	6881      	ldr	r1, [r0, #8]
  4076f4:	4656      	mov	r6, sl
  4076f6:	60ca      	str	r2, [r1, #12]
  4076f8:	6091      	str	r1, [r2, #8]
  4076fa:	f8da 100c 	ldr.w	r1, [sl, #12]
  4076fe:	f856 0f08 	ldr.w	r0, [r6, #8]!
  407702:	1f22      	subs	r2, r4, #4
  407704:	2a24      	cmp	r2, #36	; 0x24
  407706:	60c1      	str	r1, [r0, #12]
  407708:	6088      	str	r0, [r1, #8]
  40770a:	f200 8094 	bhi.w	407836 <_realloc_r+0x29a>
  40770e:	2a13      	cmp	r2, #19
  407710:	d96f      	bls.n	4077f2 <_realloc_r+0x256>
  407712:	6829      	ldr	r1, [r5, #0]
  407714:	f8ca 1008 	str.w	r1, [sl, #8]
  407718:	6869      	ldr	r1, [r5, #4]
  40771a:	f8ca 100c 	str.w	r1, [sl, #12]
  40771e:	2a1b      	cmp	r2, #27
  407720:	f200 80a2 	bhi.w	407868 <_realloc_r+0x2cc>
  407724:	3508      	adds	r5, #8
  407726:	f10a 0210 	add.w	r2, sl, #16
  40772a:	e063      	b.n	4077f4 <_realloc_r+0x258>
  40772c:	f855 3c08 	ldr.w	r3, [r5, #-8]
  407730:	eba9 0a03 	sub.w	sl, r9, r3
  407734:	f8da 1004 	ldr.w	r1, [sl, #4]
  407738:	f021 0103 	bic.w	r1, r1, #3
  40773c:	1863      	adds	r3, r4, r1
  40773e:	4293      	cmp	r3, r2
  407740:	f6ff af59 	blt.w	4075f6 <_realloc_r+0x5a>
  407744:	4656      	mov	r6, sl
  407746:	e7d8      	b.n	4076fa <_realloc_r+0x15e>
  407748:	6841      	ldr	r1, [r0, #4]
  40774a:	f021 0b03 	bic.w	fp, r1, #3
  40774e:	44a3      	add	fp, r4
  407750:	f107 0010 	add.w	r0, r7, #16
  407754:	4583      	cmp	fp, r0
  407756:	da56      	bge.n	407806 <_realloc_r+0x26a>
  407758:	f01e 0f01 	tst.w	lr, #1
  40775c:	f47f af4b 	bne.w	4075f6 <_realloc_r+0x5a>
  407760:	f855 1c08 	ldr.w	r1, [r5, #-8]
  407764:	eba9 0a01 	sub.w	sl, r9, r1
  407768:	f8da 1004 	ldr.w	r1, [sl, #4]
  40776c:	f021 0103 	bic.w	r1, r1, #3
  407770:	448b      	add	fp, r1
  407772:	4558      	cmp	r0, fp
  407774:	dce2      	bgt.n	40773c <_realloc_r+0x1a0>
  407776:	4656      	mov	r6, sl
  407778:	f8da 100c 	ldr.w	r1, [sl, #12]
  40777c:	f856 0f08 	ldr.w	r0, [r6, #8]!
  407780:	1f22      	subs	r2, r4, #4
  407782:	2a24      	cmp	r2, #36	; 0x24
  407784:	60c1      	str	r1, [r0, #12]
  407786:	6088      	str	r0, [r1, #8]
  407788:	f200 808f 	bhi.w	4078aa <_realloc_r+0x30e>
  40778c:	2a13      	cmp	r2, #19
  40778e:	f240 808a 	bls.w	4078a6 <_realloc_r+0x30a>
  407792:	6829      	ldr	r1, [r5, #0]
  407794:	f8ca 1008 	str.w	r1, [sl, #8]
  407798:	6869      	ldr	r1, [r5, #4]
  40779a:	f8ca 100c 	str.w	r1, [sl, #12]
  40779e:	2a1b      	cmp	r2, #27
  4077a0:	f200 808a 	bhi.w	4078b8 <_realloc_r+0x31c>
  4077a4:	3508      	adds	r5, #8
  4077a6:	f10a 0210 	add.w	r2, sl, #16
  4077aa:	6829      	ldr	r1, [r5, #0]
  4077ac:	6011      	str	r1, [r2, #0]
  4077ae:	6869      	ldr	r1, [r5, #4]
  4077b0:	6051      	str	r1, [r2, #4]
  4077b2:	68a9      	ldr	r1, [r5, #8]
  4077b4:	6091      	str	r1, [r2, #8]
  4077b6:	eb0a 0107 	add.w	r1, sl, r7
  4077ba:	ebab 0207 	sub.w	r2, fp, r7
  4077be:	f042 0201 	orr.w	r2, r2, #1
  4077c2:	6099      	str	r1, [r3, #8]
  4077c4:	604a      	str	r2, [r1, #4]
  4077c6:	f8da 3004 	ldr.w	r3, [sl, #4]
  4077ca:	f003 0301 	and.w	r3, r3, #1
  4077ce:	431f      	orrs	r7, r3
  4077d0:	4640      	mov	r0, r8
  4077d2:	f8ca 7004 	str.w	r7, [sl, #4]
  4077d6:	f7ff f81b 	bl	406810 <__malloc_unlock>
  4077da:	e751      	b.n	407680 <_realloc_r+0xe4>
  4077dc:	682b      	ldr	r3, [r5, #0]
  4077de:	6003      	str	r3, [r0, #0]
  4077e0:	686b      	ldr	r3, [r5, #4]
  4077e2:	6043      	str	r3, [r0, #4]
  4077e4:	2a1b      	cmp	r2, #27
  4077e6:	d82d      	bhi.n	407844 <_realloc_r+0x2a8>
  4077e8:	f100 0308 	add.w	r3, r0, #8
  4077ec:	f105 0208 	add.w	r2, r5, #8
  4077f0:	e71b      	b.n	40762a <_realloc_r+0x8e>
  4077f2:	4632      	mov	r2, r6
  4077f4:	6829      	ldr	r1, [r5, #0]
  4077f6:	6011      	str	r1, [r2, #0]
  4077f8:	6869      	ldr	r1, [r5, #4]
  4077fa:	6051      	str	r1, [r2, #4]
  4077fc:	68a9      	ldr	r1, [r5, #8]
  4077fe:	6091      	str	r1, [r2, #8]
  407800:	461c      	mov	r4, r3
  407802:	46d1      	mov	r9, sl
  407804:	e72a      	b.n	40765c <_realloc_r+0xc0>
  407806:	eb09 0107 	add.w	r1, r9, r7
  40780a:	ebab 0b07 	sub.w	fp, fp, r7
  40780e:	f04b 0201 	orr.w	r2, fp, #1
  407812:	6099      	str	r1, [r3, #8]
  407814:	604a      	str	r2, [r1, #4]
  407816:	f855 3c04 	ldr.w	r3, [r5, #-4]
  40781a:	f003 0301 	and.w	r3, r3, #1
  40781e:	431f      	orrs	r7, r3
  407820:	4640      	mov	r0, r8
  407822:	f845 7c04 	str.w	r7, [r5, #-4]
  407826:	f7fe fff3 	bl	406810 <__malloc_unlock>
  40782a:	462e      	mov	r6, r5
  40782c:	e728      	b.n	407680 <_realloc_r+0xe4>
  40782e:	4629      	mov	r1, r5
  407830:	f7ff fe50 	bl	4074d4 <memmove>
  407834:	e6ff      	b.n	407636 <_realloc_r+0x9a>
  407836:	4629      	mov	r1, r5
  407838:	4630      	mov	r0, r6
  40783a:	461c      	mov	r4, r3
  40783c:	46d1      	mov	r9, sl
  40783e:	f7ff fe49 	bl	4074d4 <memmove>
  407842:	e70b      	b.n	40765c <_realloc_r+0xc0>
  407844:	68ab      	ldr	r3, [r5, #8]
  407846:	6083      	str	r3, [r0, #8]
  407848:	68eb      	ldr	r3, [r5, #12]
  40784a:	60c3      	str	r3, [r0, #12]
  40784c:	2a24      	cmp	r2, #36	; 0x24
  40784e:	d017      	beq.n	407880 <_realloc_r+0x2e4>
  407850:	f100 0310 	add.w	r3, r0, #16
  407854:	f105 0210 	add.w	r2, r5, #16
  407858:	e6e7      	b.n	40762a <_realloc_r+0x8e>
  40785a:	f850 3c04 	ldr.w	r3, [r0, #-4]
  40785e:	f023 0303 	bic.w	r3, r3, #3
  407862:	441c      	add	r4, r3
  407864:	462e      	mov	r6, r5
  407866:	e6f9      	b.n	40765c <_realloc_r+0xc0>
  407868:	68a9      	ldr	r1, [r5, #8]
  40786a:	f8ca 1010 	str.w	r1, [sl, #16]
  40786e:	68e9      	ldr	r1, [r5, #12]
  407870:	f8ca 1014 	str.w	r1, [sl, #20]
  407874:	2a24      	cmp	r2, #36	; 0x24
  407876:	d00c      	beq.n	407892 <_realloc_r+0x2f6>
  407878:	3510      	adds	r5, #16
  40787a:	f10a 0218 	add.w	r2, sl, #24
  40787e:	e7b9      	b.n	4077f4 <_realloc_r+0x258>
  407880:	692b      	ldr	r3, [r5, #16]
  407882:	6103      	str	r3, [r0, #16]
  407884:	696b      	ldr	r3, [r5, #20]
  407886:	6143      	str	r3, [r0, #20]
  407888:	f105 0218 	add.w	r2, r5, #24
  40788c:	f100 0318 	add.w	r3, r0, #24
  407890:	e6cb      	b.n	40762a <_realloc_r+0x8e>
  407892:	692a      	ldr	r2, [r5, #16]
  407894:	f8ca 2018 	str.w	r2, [sl, #24]
  407898:	696a      	ldr	r2, [r5, #20]
  40789a:	f8ca 201c 	str.w	r2, [sl, #28]
  40789e:	3518      	adds	r5, #24
  4078a0:	f10a 0220 	add.w	r2, sl, #32
  4078a4:	e7a6      	b.n	4077f4 <_realloc_r+0x258>
  4078a6:	4632      	mov	r2, r6
  4078a8:	e77f      	b.n	4077aa <_realloc_r+0x20e>
  4078aa:	4629      	mov	r1, r5
  4078ac:	4630      	mov	r0, r6
  4078ae:	9301      	str	r3, [sp, #4]
  4078b0:	f7ff fe10 	bl	4074d4 <memmove>
  4078b4:	9b01      	ldr	r3, [sp, #4]
  4078b6:	e77e      	b.n	4077b6 <_realloc_r+0x21a>
  4078b8:	68a9      	ldr	r1, [r5, #8]
  4078ba:	f8ca 1010 	str.w	r1, [sl, #16]
  4078be:	68e9      	ldr	r1, [r5, #12]
  4078c0:	f8ca 1014 	str.w	r1, [sl, #20]
  4078c4:	2a24      	cmp	r2, #36	; 0x24
  4078c6:	d003      	beq.n	4078d0 <_realloc_r+0x334>
  4078c8:	3510      	adds	r5, #16
  4078ca:	f10a 0218 	add.w	r2, sl, #24
  4078ce:	e76c      	b.n	4077aa <_realloc_r+0x20e>
  4078d0:	692a      	ldr	r2, [r5, #16]
  4078d2:	f8ca 2018 	str.w	r2, [sl, #24]
  4078d6:	696a      	ldr	r2, [r5, #20]
  4078d8:	f8ca 201c 	str.w	r2, [sl, #28]
  4078dc:	3518      	adds	r5, #24
  4078de:	f10a 0220 	add.w	r2, sl, #32
  4078e2:	e762      	b.n	4077aa <_realloc_r+0x20e>
  4078e4:	20000444 	.word	0x20000444

004078e8 <__ascii_wctomb>:
  4078e8:	b121      	cbz	r1, 4078f4 <__ascii_wctomb+0xc>
  4078ea:	2aff      	cmp	r2, #255	; 0xff
  4078ec:	d804      	bhi.n	4078f8 <__ascii_wctomb+0x10>
  4078ee:	700a      	strb	r2, [r1, #0]
  4078f0:	2001      	movs	r0, #1
  4078f2:	4770      	bx	lr
  4078f4:	4608      	mov	r0, r1
  4078f6:	4770      	bx	lr
  4078f8:	238a      	movs	r3, #138	; 0x8a
  4078fa:	6003      	str	r3, [r0, #0]
  4078fc:	f04f 30ff 	mov.w	r0, #4294967295
  407900:	4770      	bx	lr
  407902:	bf00      	nop

00407904 <__aeabi_drsub>:
  407904:	f081 4100 	eor.w	r1, r1, #2147483648	; 0x80000000
  407908:	e002      	b.n	407910 <__adddf3>
  40790a:	bf00      	nop

0040790c <__aeabi_dsub>:
  40790c:	f083 4300 	eor.w	r3, r3, #2147483648	; 0x80000000

00407910 <__adddf3>:
  407910:	b530      	push	{r4, r5, lr}
  407912:	ea4f 0441 	mov.w	r4, r1, lsl #1
  407916:	ea4f 0543 	mov.w	r5, r3, lsl #1
  40791a:	ea94 0f05 	teq	r4, r5
  40791e:	bf08      	it	eq
  407920:	ea90 0f02 	teqeq	r0, r2
  407924:	bf1f      	itttt	ne
  407926:	ea54 0c00 	orrsne.w	ip, r4, r0
  40792a:	ea55 0c02 	orrsne.w	ip, r5, r2
  40792e:	ea7f 5c64 	mvnsne.w	ip, r4, asr #21
  407932:	ea7f 5c65 	mvnsne.w	ip, r5, asr #21
  407936:	f000 80e2 	beq.w	407afe <__adddf3+0x1ee>
  40793a:	ea4f 5454 	mov.w	r4, r4, lsr #21
  40793e:	ebd4 5555 	rsbs	r5, r4, r5, lsr #21
  407942:	bfb8      	it	lt
  407944:	426d      	neglt	r5, r5
  407946:	dd0c      	ble.n	407962 <__adddf3+0x52>
  407948:	442c      	add	r4, r5
  40794a:	ea80 0202 	eor.w	r2, r0, r2
  40794e:	ea81 0303 	eor.w	r3, r1, r3
  407952:	ea82 0000 	eor.w	r0, r2, r0
  407956:	ea83 0101 	eor.w	r1, r3, r1
  40795a:	ea80 0202 	eor.w	r2, r0, r2
  40795e:	ea81 0303 	eor.w	r3, r1, r3
  407962:	2d36      	cmp	r5, #54	; 0x36
  407964:	bf88      	it	hi
  407966:	bd30      	pophi	{r4, r5, pc}
  407968:	f011 4f00 	tst.w	r1, #2147483648	; 0x80000000
  40796c:	ea4f 3101 	mov.w	r1, r1, lsl #12
  407970:	f44f 1c80 	mov.w	ip, #1048576	; 0x100000
  407974:	ea4c 3111 	orr.w	r1, ip, r1, lsr #12
  407978:	d002      	beq.n	407980 <__adddf3+0x70>
  40797a:	4240      	negs	r0, r0
  40797c:	eb61 0141 	sbc.w	r1, r1, r1, lsl #1
  407980:	f013 4f00 	tst.w	r3, #2147483648	; 0x80000000
  407984:	ea4f 3303 	mov.w	r3, r3, lsl #12
  407988:	ea4c 3313 	orr.w	r3, ip, r3, lsr #12
  40798c:	d002      	beq.n	407994 <__adddf3+0x84>
  40798e:	4252      	negs	r2, r2
  407990:	eb63 0343 	sbc.w	r3, r3, r3, lsl #1
  407994:	ea94 0f05 	teq	r4, r5
  407998:	f000 80a7 	beq.w	407aea <__adddf3+0x1da>
  40799c:	f1a4 0401 	sub.w	r4, r4, #1
  4079a0:	f1d5 0e20 	rsbs	lr, r5, #32
  4079a4:	db0d      	blt.n	4079c2 <__adddf3+0xb2>
  4079a6:	fa02 fc0e 	lsl.w	ip, r2, lr
  4079aa:	fa22 f205 	lsr.w	r2, r2, r5
  4079ae:	1880      	adds	r0, r0, r2
  4079b0:	f141 0100 	adc.w	r1, r1, #0
  4079b4:	fa03 f20e 	lsl.w	r2, r3, lr
  4079b8:	1880      	adds	r0, r0, r2
  4079ba:	fa43 f305 	asr.w	r3, r3, r5
  4079be:	4159      	adcs	r1, r3
  4079c0:	e00e      	b.n	4079e0 <__adddf3+0xd0>
  4079c2:	f1a5 0520 	sub.w	r5, r5, #32
  4079c6:	f10e 0e20 	add.w	lr, lr, #32
  4079ca:	2a01      	cmp	r2, #1
  4079cc:	fa03 fc0e 	lsl.w	ip, r3, lr
  4079d0:	bf28      	it	cs
  4079d2:	f04c 0c02 	orrcs.w	ip, ip, #2
  4079d6:	fa43 f305 	asr.w	r3, r3, r5
  4079da:	18c0      	adds	r0, r0, r3
  4079dc:	eb51 71e3 	adcs.w	r1, r1, r3, asr #31
  4079e0:	f001 4500 	and.w	r5, r1, #2147483648	; 0x80000000
  4079e4:	d507      	bpl.n	4079f6 <__adddf3+0xe6>
  4079e6:	f04f 0e00 	mov.w	lr, #0
  4079ea:	f1dc 0c00 	rsbs	ip, ip, #0
  4079ee:	eb7e 0000 	sbcs.w	r0, lr, r0
  4079f2:	eb6e 0101 	sbc.w	r1, lr, r1
  4079f6:	f5b1 1f80 	cmp.w	r1, #1048576	; 0x100000
  4079fa:	d31b      	bcc.n	407a34 <__adddf3+0x124>
  4079fc:	f5b1 1f00 	cmp.w	r1, #2097152	; 0x200000
  407a00:	d30c      	bcc.n	407a1c <__adddf3+0x10c>
  407a02:	0849      	lsrs	r1, r1, #1
  407a04:	ea5f 0030 	movs.w	r0, r0, rrx
  407a08:	ea4f 0c3c 	mov.w	ip, ip, rrx
  407a0c:	f104 0401 	add.w	r4, r4, #1
  407a10:	ea4f 5244 	mov.w	r2, r4, lsl #21
  407a14:	f512 0f80 	cmn.w	r2, #4194304	; 0x400000
  407a18:	f080 809a 	bcs.w	407b50 <__adddf3+0x240>
  407a1c:	f1bc 4f00 	cmp.w	ip, #2147483648	; 0x80000000
  407a20:	bf08      	it	eq
  407a22:	ea5f 0c50 	movseq.w	ip, r0, lsr #1
  407a26:	f150 0000 	adcs.w	r0, r0, #0
  407a2a:	eb41 5104 	adc.w	r1, r1, r4, lsl #20
  407a2e:	ea41 0105 	orr.w	r1, r1, r5
  407a32:	bd30      	pop	{r4, r5, pc}
  407a34:	ea5f 0c4c 	movs.w	ip, ip, lsl #1
  407a38:	4140      	adcs	r0, r0
  407a3a:	eb41 0101 	adc.w	r1, r1, r1
  407a3e:	f411 1f80 	tst.w	r1, #1048576	; 0x100000
  407a42:	f1a4 0401 	sub.w	r4, r4, #1
  407a46:	d1e9      	bne.n	407a1c <__adddf3+0x10c>
  407a48:	f091 0f00 	teq	r1, #0
  407a4c:	bf04      	itt	eq
  407a4e:	4601      	moveq	r1, r0
  407a50:	2000      	moveq	r0, #0
  407a52:	fab1 f381 	clz	r3, r1
  407a56:	bf08      	it	eq
  407a58:	3320      	addeq	r3, #32
  407a5a:	f1a3 030b 	sub.w	r3, r3, #11
  407a5e:	f1b3 0220 	subs.w	r2, r3, #32
  407a62:	da0c      	bge.n	407a7e <__adddf3+0x16e>
  407a64:	320c      	adds	r2, #12
  407a66:	dd08      	ble.n	407a7a <__adddf3+0x16a>
  407a68:	f102 0c14 	add.w	ip, r2, #20
  407a6c:	f1c2 020c 	rsb	r2, r2, #12
  407a70:	fa01 f00c 	lsl.w	r0, r1, ip
  407a74:	fa21 f102 	lsr.w	r1, r1, r2
  407a78:	e00c      	b.n	407a94 <__adddf3+0x184>
  407a7a:	f102 0214 	add.w	r2, r2, #20
  407a7e:	bfd8      	it	le
  407a80:	f1c2 0c20 	rsble	ip, r2, #32
  407a84:	fa01 f102 	lsl.w	r1, r1, r2
  407a88:	fa20 fc0c 	lsr.w	ip, r0, ip
  407a8c:	bfdc      	itt	le
  407a8e:	ea41 010c 	orrle.w	r1, r1, ip
  407a92:	4090      	lslle	r0, r2
  407a94:	1ae4      	subs	r4, r4, r3
  407a96:	bfa2      	ittt	ge
  407a98:	eb01 5104 	addge.w	r1, r1, r4, lsl #20
  407a9c:	4329      	orrge	r1, r5
  407a9e:	bd30      	popge	{r4, r5, pc}
  407aa0:	ea6f 0404 	mvn.w	r4, r4
  407aa4:	3c1f      	subs	r4, #31
  407aa6:	da1c      	bge.n	407ae2 <__adddf3+0x1d2>
  407aa8:	340c      	adds	r4, #12
  407aaa:	dc0e      	bgt.n	407aca <__adddf3+0x1ba>
  407aac:	f104 0414 	add.w	r4, r4, #20
  407ab0:	f1c4 0220 	rsb	r2, r4, #32
  407ab4:	fa20 f004 	lsr.w	r0, r0, r4
  407ab8:	fa01 f302 	lsl.w	r3, r1, r2
  407abc:	ea40 0003 	orr.w	r0, r0, r3
  407ac0:	fa21 f304 	lsr.w	r3, r1, r4
  407ac4:	ea45 0103 	orr.w	r1, r5, r3
  407ac8:	bd30      	pop	{r4, r5, pc}
  407aca:	f1c4 040c 	rsb	r4, r4, #12
  407ace:	f1c4 0220 	rsb	r2, r4, #32
  407ad2:	fa20 f002 	lsr.w	r0, r0, r2
  407ad6:	fa01 f304 	lsl.w	r3, r1, r4
  407ada:	ea40 0003 	orr.w	r0, r0, r3
  407ade:	4629      	mov	r1, r5
  407ae0:	bd30      	pop	{r4, r5, pc}
  407ae2:	fa21 f004 	lsr.w	r0, r1, r4
  407ae6:	4629      	mov	r1, r5
  407ae8:	bd30      	pop	{r4, r5, pc}
  407aea:	f094 0f00 	teq	r4, #0
  407aee:	f483 1380 	eor.w	r3, r3, #1048576	; 0x100000
  407af2:	bf06      	itte	eq
  407af4:	f481 1180 	eoreq.w	r1, r1, #1048576	; 0x100000
  407af8:	3401      	addeq	r4, #1
  407afa:	3d01      	subne	r5, #1
  407afc:	e74e      	b.n	40799c <__adddf3+0x8c>
  407afe:	ea7f 5c64 	mvns.w	ip, r4, asr #21
  407b02:	bf18      	it	ne
  407b04:	ea7f 5c65 	mvnsne.w	ip, r5, asr #21
  407b08:	d029      	beq.n	407b5e <__adddf3+0x24e>
  407b0a:	ea94 0f05 	teq	r4, r5
  407b0e:	bf08      	it	eq
  407b10:	ea90 0f02 	teqeq	r0, r2
  407b14:	d005      	beq.n	407b22 <__adddf3+0x212>
  407b16:	ea54 0c00 	orrs.w	ip, r4, r0
  407b1a:	bf04      	itt	eq
  407b1c:	4619      	moveq	r1, r3
  407b1e:	4610      	moveq	r0, r2
  407b20:	bd30      	pop	{r4, r5, pc}
  407b22:	ea91 0f03 	teq	r1, r3
  407b26:	bf1e      	ittt	ne
  407b28:	2100      	movne	r1, #0
  407b2a:	2000      	movne	r0, #0
  407b2c:	bd30      	popne	{r4, r5, pc}
  407b2e:	ea5f 5c54 	movs.w	ip, r4, lsr #21
  407b32:	d105      	bne.n	407b40 <__adddf3+0x230>
  407b34:	0040      	lsls	r0, r0, #1
  407b36:	4149      	adcs	r1, r1
  407b38:	bf28      	it	cs
  407b3a:	f041 4100 	orrcs.w	r1, r1, #2147483648	; 0x80000000
  407b3e:	bd30      	pop	{r4, r5, pc}
  407b40:	f514 0480 	adds.w	r4, r4, #4194304	; 0x400000
  407b44:	bf3c      	itt	cc
  407b46:	f501 1180 	addcc.w	r1, r1, #1048576	; 0x100000
  407b4a:	bd30      	popcc	{r4, r5, pc}
  407b4c:	f001 4500 	and.w	r5, r1, #2147483648	; 0x80000000
  407b50:	f045 41fe 	orr.w	r1, r5, #2130706432	; 0x7f000000
  407b54:	f441 0170 	orr.w	r1, r1, #15728640	; 0xf00000
  407b58:	f04f 0000 	mov.w	r0, #0
  407b5c:	bd30      	pop	{r4, r5, pc}
  407b5e:	ea7f 5c64 	mvns.w	ip, r4, asr #21
  407b62:	bf1a      	itte	ne
  407b64:	4619      	movne	r1, r3
  407b66:	4610      	movne	r0, r2
  407b68:	ea7f 5c65 	mvnseq.w	ip, r5, asr #21
  407b6c:	bf1c      	itt	ne
  407b6e:	460b      	movne	r3, r1
  407b70:	4602      	movne	r2, r0
  407b72:	ea50 3401 	orrs.w	r4, r0, r1, lsl #12
  407b76:	bf06      	itte	eq
  407b78:	ea52 3503 	orrseq.w	r5, r2, r3, lsl #12
  407b7c:	ea91 0f03 	teqeq	r1, r3
  407b80:	f441 2100 	orrne.w	r1, r1, #524288	; 0x80000
  407b84:	bd30      	pop	{r4, r5, pc}
  407b86:	bf00      	nop

00407b88 <__aeabi_ui2d>:
  407b88:	f090 0f00 	teq	r0, #0
  407b8c:	bf04      	itt	eq
  407b8e:	2100      	moveq	r1, #0
  407b90:	4770      	bxeq	lr
  407b92:	b530      	push	{r4, r5, lr}
  407b94:	f44f 6480 	mov.w	r4, #1024	; 0x400
  407b98:	f104 0432 	add.w	r4, r4, #50	; 0x32
  407b9c:	f04f 0500 	mov.w	r5, #0
  407ba0:	f04f 0100 	mov.w	r1, #0
  407ba4:	e750      	b.n	407a48 <__adddf3+0x138>
  407ba6:	bf00      	nop

00407ba8 <__aeabi_i2d>:
  407ba8:	f090 0f00 	teq	r0, #0
  407bac:	bf04      	itt	eq
  407bae:	2100      	moveq	r1, #0
  407bb0:	4770      	bxeq	lr
  407bb2:	b530      	push	{r4, r5, lr}
  407bb4:	f44f 6480 	mov.w	r4, #1024	; 0x400
  407bb8:	f104 0432 	add.w	r4, r4, #50	; 0x32
  407bbc:	f010 4500 	ands.w	r5, r0, #2147483648	; 0x80000000
  407bc0:	bf48      	it	mi
  407bc2:	4240      	negmi	r0, r0
  407bc4:	f04f 0100 	mov.w	r1, #0
  407bc8:	e73e      	b.n	407a48 <__adddf3+0x138>
  407bca:	bf00      	nop

00407bcc <__aeabi_f2d>:
  407bcc:	0042      	lsls	r2, r0, #1
  407bce:	ea4f 01e2 	mov.w	r1, r2, asr #3
  407bd2:	ea4f 0131 	mov.w	r1, r1, rrx
  407bd6:	ea4f 7002 	mov.w	r0, r2, lsl #28
  407bda:	bf1f      	itttt	ne
  407bdc:	f012 437f 	andsne.w	r3, r2, #4278190080	; 0xff000000
  407be0:	f093 4f7f 	teqne	r3, #4278190080	; 0xff000000
  407be4:	f081 5160 	eorne.w	r1, r1, #939524096	; 0x38000000
  407be8:	4770      	bxne	lr
  407bea:	f092 0f00 	teq	r2, #0
  407bee:	bf14      	ite	ne
  407bf0:	f093 4f7f 	teqne	r3, #4278190080	; 0xff000000
  407bf4:	4770      	bxeq	lr
  407bf6:	b530      	push	{r4, r5, lr}
  407bf8:	f44f 7460 	mov.w	r4, #896	; 0x380
  407bfc:	f001 4500 	and.w	r5, r1, #2147483648	; 0x80000000
  407c00:	f021 4100 	bic.w	r1, r1, #2147483648	; 0x80000000
  407c04:	e720      	b.n	407a48 <__adddf3+0x138>
  407c06:	bf00      	nop

00407c08 <__aeabi_ul2d>:
  407c08:	ea50 0201 	orrs.w	r2, r0, r1
  407c0c:	bf08      	it	eq
  407c0e:	4770      	bxeq	lr
  407c10:	b530      	push	{r4, r5, lr}
  407c12:	f04f 0500 	mov.w	r5, #0
  407c16:	e00a      	b.n	407c2e <__aeabi_l2d+0x16>

00407c18 <__aeabi_l2d>:
  407c18:	ea50 0201 	orrs.w	r2, r0, r1
  407c1c:	bf08      	it	eq
  407c1e:	4770      	bxeq	lr
  407c20:	b530      	push	{r4, r5, lr}
  407c22:	f011 4500 	ands.w	r5, r1, #2147483648	; 0x80000000
  407c26:	d502      	bpl.n	407c2e <__aeabi_l2d+0x16>
  407c28:	4240      	negs	r0, r0
  407c2a:	eb61 0141 	sbc.w	r1, r1, r1, lsl #1
  407c2e:	f44f 6480 	mov.w	r4, #1024	; 0x400
  407c32:	f104 0432 	add.w	r4, r4, #50	; 0x32
  407c36:	ea5f 5c91 	movs.w	ip, r1, lsr #22
  407c3a:	f43f aedc 	beq.w	4079f6 <__adddf3+0xe6>
  407c3e:	f04f 0203 	mov.w	r2, #3
  407c42:	ea5f 0cdc 	movs.w	ip, ip, lsr #3
  407c46:	bf18      	it	ne
  407c48:	3203      	addne	r2, #3
  407c4a:	ea5f 0cdc 	movs.w	ip, ip, lsr #3
  407c4e:	bf18      	it	ne
  407c50:	3203      	addne	r2, #3
  407c52:	eb02 02dc 	add.w	r2, r2, ip, lsr #3
  407c56:	f1c2 0320 	rsb	r3, r2, #32
  407c5a:	fa00 fc03 	lsl.w	ip, r0, r3
  407c5e:	fa20 f002 	lsr.w	r0, r0, r2
  407c62:	fa01 fe03 	lsl.w	lr, r1, r3
  407c66:	ea40 000e 	orr.w	r0, r0, lr
  407c6a:	fa21 f102 	lsr.w	r1, r1, r2
  407c6e:	4414      	add	r4, r2
  407c70:	e6c1      	b.n	4079f6 <__adddf3+0xe6>
  407c72:	bf00      	nop

00407c74 <__aeabi_dmul>:
  407c74:	b570      	push	{r4, r5, r6, lr}
  407c76:	f04f 0cff 	mov.w	ip, #255	; 0xff
  407c7a:	f44c 6ce0 	orr.w	ip, ip, #1792	; 0x700
  407c7e:	ea1c 5411 	ands.w	r4, ip, r1, lsr #20
  407c82:	bf1d      	ittte	ne
  407c84:	ea1c 5513 	andsne.w	r5, ip, r3, lsr #20
  407c88:	ea94 0f0c 	teqne	r4, ip
  407c8c:	ea95 0f0c 	teqne	r5, ip
  407c90:	f000 f8de 	bleq	407e50 <__aeabi_dmul+0x1dc>
  407c94:	442c      	add	r4, r5
  407c96:	ea81 0603 	eor.w	r6, r1, r3
  407c9a:	ea21 514c 	bic.w	r1, r1, ip, lsl #21
  407c9e:	ea23 534c 	bic.w	r3, r3, ip, lsl #21
  407ca2:	ea50 3501 	orrs.w	r5, r0, r1, lsl #12
  407ca6:	bf18      	it	ne
  407ca8:	ea52 3503 	orrsne.w	r5, r2, r3, lsl #12
  407cac:	f441 1180 	orr.w	r1, r1, #1048576	; 0x100000
  407cb0:	f443 1380 	orr.w	r3, r3, #1048576	; 0x100000
  407cb4:	d038      	beq.n	407d28 <__aeabi_dmul+0xb4>
  407cb6:	fba0 ce02 	umull	ip, lr, r0, r2
  407cba:	f04f 0500 	mov.w	r5, #0
  407cbe:	fbe1 e502 	umlal	lr, r5, r1, r2
  407cc2:	f006 4200 	and.w	r2, r6, #2147483648	; 0x80000000
  407cc6:	fbe0 e503 	umlal	lr, r5, r0, r3
  407cca:	f04f 0600 	mov.w	r6, #0
  407cce:	fbe1 5603 	umlal	r5, r6, r1, r3
  407cd2:	f09c 0f00 	teq	ip, #0
  407cd6:	bf18      	it	ne
  407cd8:	f04e 0e01 	orrne.w	lr, lr, #1
  407cdc:	f1a4 04ff 	sub.w	r4, r4, #255	; 0xff
  407ce0:	f5b6 7f00 	cmp.w	r6, #512	; 0x200
  407ce4:	f564 7440 	sbc.w	r4, r4, #768	; 0x300
  407ce8:	d204      	bcs.n	407cf4 <__aeabi_dmul+0x80>
  407cea:	ea5f 0e4e 	movs.w	lr, lr, lsl #1
  407cee:	416d      	adcs	r5, r5
  407cf0:	eb46 0606 	adc.w	r6, r6, r6
  407cf4:	ea42 21c6 	orr.w	r1, r2, r6, lsl #11
  407cf8:	ea41 5155 	orr.w	r1, r1, r5, lsr #21
  407cfc:	ea4f 20c5 	mov.w	r0, r5, lsl #11
  407d00:	ea40 505e 	orr.w	r0, r0, lr, lsr #21
  407d04:	ea4f 2ece 	mov.w	lr, lr, lsl #11
  407d08:	f1b4 0cfd 	subs.w	ip, r4, #253	; 0xfd
  407d0c:	bf88      	it	hi
  407d0e:	f5bc 6fe0 	cmphi.w	ip, #1792	; 0x700
  407d12:	d81e      	bhi.n	407d52 <__aeabi_dmul+0xde>
  407d14:	f1be 4f00 	cmp.w	lr, #2147483648	; 0x80000000
  407d18:	bf08      	it	eq
  407d1a:	ea5f 0e50 	movseq.w	lr, r0, lsr #1
  407d1e:	f150 0000 	adcs.w	r0, r0, #0
  407d22:	eb41 5104 	adc.w	r1, r1, r4, lsl #20
  407d26:	bd70      	pop	{r4, r5, r6, pc}
  407d28:	f006 4600 	and.w	r6, r6, #2147483648	; 0x80000000
  407d2c:	ea46 0101 	orr.w	r1, r6, r1
  407d30:	ea40 0002 	orr.w	r0, r0, r2
  407d34:	ea81 0103 	eor.w	r1, r1, r3
  407d38:	ebb4 045c 	subs.w	r4, r4, ip, lsr #1
  407d3c:	bfc2      	ittt	gt
  407d3e:	ebd4 050c 	rsbsgt	r5, r4, ip
  407d42:	ea41 5104 	orrgt.w	r1, r1, r4, lsl #20
  407d46:	bd70      	popgt	{r4, r5, r6, pc}
  407d48:	f441 1180 	orr.w	r1, r1, #1048576	; 0x100000
  407d4c:	f04f 0e00 	mov.w	lr, #0
  407d50:	3c01      	subs	r4, #1
  407d52:	f300 80ab 	bgt.w	407eac <__aeabi_dmul+0x238>
  407d56:	f114 0f36 	cmn.w	r4, #54	; 0x36
  407d5a:	bfde      	ittt	le
  407d5c:	2000      	movle	r0, #0
  407d5e:	f001 4100 	andle.w	r1, r1, #2147483648	; 0x80000000
  407d62:	bd70      	pople	{r4, r5, r6, pc}
  407d64:	f1c4 0400 	rsb	r4, r4, #0
  407d68:	3c20      	subs	r4, #32
  407d6a:	da35      	bge.n	407dd8 <__aeabi_dmul+0x164>
  407d6c:	340c      	adds	r4, #12
  407d6e:	dc1b      	bgt.n	407da8 <__aeabi_dmul+0x134>
  407d70:	f104 0414 	add.w	r4, r4, #20
  407d74:	f1c4 0520 	rsb	r5, r4, #32
  407d78:	fa00 f305 	lsl.w	r3, r0, r5
  407d7c:	fa20 f004 	lsr.w	r0, r0, r4
  407d80:	fa01 f205 	lsl.w	r2, r1, r5
  407d84:	ea40 0002 	orr.w	r0, r0, r2
  407d88:	f001 4200 	and.w	r2, r1, #2147483648	; 0x80000000
  407d8c:	f021 4100 	bic.w	r1, r1, #2147483648	; 0x80000000
  407d90:	eb10 70d3 	adds.w	r0, r0, r3, lsr #31
  407d94:	fa21 f604 	lsr.w	r6, r1, r4
  407d98:	eb42 0106 	adc.w	r1, r2, r6
  407d9c:	ea5e 0e43 	orrs.w	lr, lr, r3, lsl #1
  407da0:	bf08      	it	eq
  407da2:	ea20 70d3 	biceq.w	r0, r0, r3, lsr #31
  407da6:	bd70      	pop	{r4, r5, r6, pc}
  407da8:	f1c4 040c 	rsb	r4, r4, #12
  407dac:	f1c4 0520 	rsb	r5, r4, #32
  407db0:	fa00 f304 	lsl.w	r3, r0, r4
  407db4:	fa20 f005 	lsr.w	r0, r0, r5
  407db8:	fa01 f204 	lsl.w	r2, r1, r4
  407dbc:	ea40 0002 	orr.w	r0, r0, r2
  407dc0:	f001 4100 	and.w	r1, r1, #2147483648	; 0x80000000
  407dc4:	eb10 70d3 	adds.w	r0, r0, r3, lsr #31
  407dc8:	f141 0100 	adc.w	r1, r1, #0
  407dcc:	ea5e 0e43 	orrs.w	lr, lr, r3, lsl #1
  407dd0:	bf08      	it	eq
  407dd2:	ea20 70d3 	biceq.w	r0, r0, r3, lsr #31
  407dd6:	bd70      	pop	{r4, r5, r6, pc}
  407dd8:	f1c4 0520 	rsb	r5, r4, #32
  407ddc:	fa00 f205 	lsl.w	r2, r0, r5
  407de0:	ea4e 0e02 	orr.w	lr, lr, r2
  407de4:	fa20 f304 	lsr.w	r3, r0, r4
  407de8:	fa01 f205 	lsl.w	r2, r1, r5
  407dec:	ea43 0302 	orr.w	r3, r3, r2
  407df0:	fa21 f004 	lsr.w	r0, r1, r4
  407df4:	f001 4100 	and.w	r1, r1, #2147483648	; 0x80000000
  407df8:	fa21 f204 	lsr.w	r2, r1, r4
  407dfc:	ea20 0002 	bic.w	r0, r0, r2
  407e00:	eb00 70d3 	add.w	r0, r0, r3, lsr #31
  407e04:	ea5e 0e43 	orrs.w	lr, lr, r3, lsl #1
  407e08:	bf08      	it	eq
  407e0a:	ea20 70d3 	biceq.w	r0, r0, r3, lsr #31
  407e0e:	bd70      	pop	{r4, r5, r6, pc}
  407e10:	f094 0f00 	teq	r4, #0
  407e14:	d10f      	bne.n	407e36 <__aeabi_dmul+0x1c2>
  407e16:	f001 4600 	and.w	r6, r1, #2147483648	; 0x80000000
  407e1a:	0040      	lsls	r0, r0, #1
  407e1c:	eb41 0101 	adc.w	r1, r1, r1
  407e20:	f411 1f80 	tst.w	r1, #1048576	; 0x100000
  407e24:	bf08      	it	eq
  407e26:	3c01      	subeq	r4, #1
  407e28:	d0f7      	beq.n	407e1a <__aeabi_dmul+0x1a6>
  407e2a:	ea41 0106 	orr.w	r1, r1, r6
  407e2e:	f095 0f00 	teq	r5, #0
  407e32:	bf18      	it	ne
  407e34:	4770      	bxne	lr
  407e36:	f003 4600 	and.w	r6, r3, #2147483648	; 0x80000000
  407e3a:	0052      	lsls	r2, r2, #1
  407e3c:	eb43 0303 	adc.w	r3, r3, r3
  407e40:	f413 1f80 	tst.w	r3, #1048576	; 0x100000
  407e44:	bf08      	it	eq
  407e46:	3d01      	subeq	r5, #1
  407e48:	d0f7      	beq.n	407e3a <__aeabi_dmul+0x1c6>
  407e4a:	ea43 0306 	orr.w	r3, r3, r6
  407e4e:	4770      	bx	lr
  407e50:	ea94 0f0c 	teq	r4, ip
  407e54:	ea0c 5513 	and.w	r5, ip, r3, lsr #20
  407e58:	bf18      	it	ne
  407e5a:	ea95 0f0c 	teqne	r5, ip
  407e5e:	d00c      	beq.n	407e7a <__aeabi_dmul+0x206>
  407e60:	ea50 0641 	orrs.w	r6, r0, r1, lsl #1
  407e64:	bf18      	it	ne
  407e66:	ea52 0643 	orrsne.w	r6, r2, r3, lsl #1
  407e6a:	d1d1      	bne.n	407e10 <__aeabi_dmul+0x19c>
  407e6c:	ea81 0103 	eor.w	r1, r1, r3
  407e70:	f001 4100 	and.w	r1, r1, #2147483648	; 0x80000000
  407e74:	f04f 0000 	mov.w	r0, #0
  407e78:	bd70      	pop	{r4, r5, r6, pc}
  407e7a:	ea50 0641 	orrs.w	r6, r0, r1, lsl #1
  407e7e:	bf06      	itte	eq
  407e80:	4610      	moveq	r0, r2
  407e82:	4619      	moveq	r1, r3
  407e84:	ea52 0643 	orrsne.w	r6, r2, r3, lsl #1
  407e88:	d019      	beq.n	407ebe <__aeabi_dmul+0x24a>
  407e8a:	ea94 0f0c 	teq	r4, ip
  407e8e:	d102      	bne.n	407e96 <__aeabi_dmul+0x222>
  407e90:	ea50 3601 	orrs.w	r6, r0, r1, lsl #12
  407e94:	d113      	bne.n	407ebe <__aeabi_dmul+0x24a>
  407e96:	ea95 0f0c 	teq	r5, ip
  407e9a:	d105      	bne.n	407ea8 <__aeabi_dmul+0x234>
  407e9c:	ea52 3603 	orrs.w	r6, r2, r3, lsl #12
  407ea0:	bf1c      	itt	ne
  407ea2:	4610      	movne	r0, r2
  407ea4:	4619      	movne	r1, r3
  407ea6:	d10a      	bne.n	407ebe <__aeabi_dmul+0x24a>
  407ea8:	ea81 0103 	eor.w	r1, r1, r3
  407eac:	f001 4100 	and.w	r1, r1, #2147483648	; 0x80000000
  407eb0:	f041 41fe 	orr.w	r1, r1, #2130706432	; 0x7f000000
  407eb4:	f441 0170 	orr.w	r1, r1, #15728640	; 0xf00000
  407eb8:	f04f 0000 	mov.w	r0, #0
  407ebc:	bd70      	pop	{r4, r5, r6, pc}
  407ebe:	f041 41fe 	orr.w	r1, r1, #2130706432	; 0x7f000000
  407ec2:	f441 0178 	orr.w	r1, r1, #16252928	; 0xf80000
  407ec6:	bd70      	pop	{r4, r5, r6, pc}

00407ec8 <__aeabi_ddiv>:
  407ec8:	b570      	push	{r4, r5, r6, lr}
  407eca:	f04f 0cff 	mov.w	ip, #255	; 0xff
  407ece:	f44c 6ce0 	orr.w	ip, ip, #1792	; 0x700
  407ed2:	ea1c 5411 	ands.w	r4, ip, r1, lsr #20
  407ed6:	bf1d      	ittte	ne
  407ed8:	ea1c 5513 	andsne.w	r5, ip, r3, lsr #20
  407edc:	ea94 0f0c 	teqne	r4, ip
  407ee0:	ea95 0f0c 	teqne	r5, ip
  407ee4:	f000 f8a7 	bleq	408036 <__aeabi_ddiv+0x16e>
  407ee8:	eba4 0405 	sub.w	r4, r4, r5
  407eec:	ea81 0e03 	eor.w	lr, r1, r3
  407ef0:	ea52 3503 	orrs.w	r5, r2, r3, lsl #12
  407ef4:	ea4f 3101 	mov.w	r1, r1, lsl #12
  407ef8:	f000 8088 	beq.w	40800c <__aeabi_ddiv+0x144>
  407efc:	ea4f 3303 	mov.w	r3, r3, lsl #12
  407f00:	f04f 5580 	mov.w	r5, #268435456	; 0x10000000
  407f04:	ea45 1313 	orr.w	r3, r5, r3, lsr #4
  407f08:	ea43 6312 	orr.w	r3, r3, r2, lsr #24
  407f0c:	ea4f 2202 	mov.w	r2, r2, lsl #8
  407f10:	ea45 1511 	orr.w	r5, r5, r1, lsr #4
  407f14:	ea45 6510 	orr.w	r5, r5, r0, lsr #24
  407f18:	ea4f 2600 	mov.w	r6, r0, lsl #8
  407f1c:	f00e 4100 	and.w	r1, lr, #2147483648	; 0x80000000
  407f20:	429d      	cmp	r5, r3
  407f22:	bf08      	it	eq
  407f24:	4296      	cmpeq	r6, r2
  407f26:	f144 04fd 	adc.w	r4, r4, #253	; 0xfd
  407f2a:	f504 7440 	add.w	r4, r4, #768	; 0x300
  407f2e:	d202      	bcs.n	407f36 <__aeabi_ddiv+0x6e>
  407f30:	085b      	lsrs	r3, r3, #1
  407f32:	ea4f 0232 	mov.w	r2, r2, rrx
  407f36:	1ab6      	subs	r6, r6, r2
  407f38:	eb65 0503 	sbc.w	r5, r5, r3
  407f3c:	085b      	lsrs	r3, r3, #1
  407f3e:	ea4f 0232 	mov.w	r2, r2, rrx
  407f42:	f44f 1080 	mov.w	r0, #1048576	; 0x100000
  407f46:	f44f 2c00 	mov.w	ip, #524288	; 0x80000
  407f4a:	ebb6 0e02 	subs.w	lr, r6, r2
  407f4e:	eb75 0e03 	sbcs.w	lr, r5, r3
  407f52:	bf22      	ittt	cs
  407f54:	1ab6      	subcs	r6, r6, r2
  407f56:	4675      	movcs	r5, lr
  407f58:	ea40 000c 	orrcs.w	r0, r0, ip
  407f5c:	085b      	lsrs	r3, r3, #1
  407f5e:	ea4f 0232 	mov.w	r2, r2, rrx
  407f62:	ebb6 0e02 	subs.w	lr, r6, r2
  407f66:	eb75 0e03 	sbcs.w	lr, r5, r3
  407f6a:	bf22      	ittt	cs
  407f6c:	1ab6      	subcs	r6, r6, r2
  407f6e:	4675      	movcs	r5, lr
  407f70:	ea40 005c 	orrcs.w	r0, r0, ip, lsr #1
  407f74:	085b      	lsrs	r3, r3, #1
  407f76:	ea4f 0232 	mov.w	r2, r2, rrx
  407f7a:	ebb6 0e02 	subs.w	lr, r6, r2
  407f7e:	eb75 0e03 	sbcs.w	lr, r5, r3
  407f82:	bf22      	ittt	cs
  407f84:	1ab6      	subcs	r6, r6, r2
  407f86:	4675      	movcs	r5, lr
  407f88:	ea40 009c 	orrcs.w	r0, r0, ip, lsr #2
  407f8c:	085b      	lsrs	r3, r3, #1
  407f8e:	ea4f 0232 	mov.w	r2, r2, rrx
  407f92:	ebb6 0e02 	subs.w	lr, r6, r2
  407f96:	eb75 0e03 	sbcs.w	lr, r5, r3
  407f9a:	bf22      	ittt	cs
  407f9c:	1ab6      	subcs	r6, r6, r2
  407f9e:	4675      	movcs	r5, lr
  407fa0:	ea40 00dc 	orrcs.w	r0, r0, ip, lsr #3
  407fa4:	ea55 0e06 	orrs.w	lr, r5, r6
  407fa8:	d018      	beq.n	407fdc <__aeabi_ddiv+0x114>
  407faa:	ea4f 1505 	mov.w	r5, r5, lsl #4
  407fae:	ea45 7516 	orr.w	r5, r5, r6, lsr #28
  407fb2:	ea4f 1606 	mov.w	r6, r6, lsl #4
  407fb6:	ea4f 03c3 	mov.w	r3, r3, lsl #3
  407fba:	ea43 7352 	orr.w	r3, r3, r2, lsr #29
  407fbe:	ea4f 02c2 	mov.w	r2, r2, lsl #3
  407fc2:	ea5f 1c1c 	movs.w	ip, ip, lsr #4
  407fc6:	d1c0      	bne.n	407f4a <__aeabi_ddiv+0x82>
  407fc8:	f411 1f80 	tst.w	r1, #1048576	; 0x100000
  407fcc:	d10b      	bne.n	407fe6 <__aeabi_ddiv+0x11e>
  407fce:	ea41 0100 	orr.w	r1, r1, r0
  407fd2:	f04f 0000 	mov.w	r0, #0
  407fd6:	f04f 4c00 	mov.w	ip, #2147483648	; 0x80000000
  407fda:	e7b6      	b.n	407f4a <__aeabi_ddiv+0x82>
  407fdc:	f411 1f80 	tst.w	r1, #1048576	; 0x100000
  407fe0:	bf04      	itt	eq
  407fe2:	4301      	orreq	r1, r0
  407fe4:	2000      	moveq	r0, #0
  407fe6:	f1b4 0cfd 	subs.w	ip, r4, #253	; 0xfd
  407fea:	bf88      	it	hi
  407fec:	f5bc 6fe0 	cmphi.w	ip, #1792	; 0x700
  407ff0:	f63f aeaf 	bhi.w	407d52 <__aeabi_dmul+0xde>
  407ff4:	ebb5 0c03 	subs.w	ip, r5, r3
  407ff8:	bf04      	itt	eq
  407ffa:	ebb6 0c02 	subseq.w	ip, r6, r2
  407ffe:	ea5f 0c50 	movseq.w	ip, r0, lsr #1
  408002:	f150 0000 	adcs.w	r0, r0, #0
  408006:	eb41 5104 	adc.w	r1, r1, r4, lsl #20
  40800a:	bd70      	pop	{r4, r5, r6, pc}
  40800c:	f00e 4e00 	and.w	lr, lr, #2147483648	; 0x80000000
  408010:	ea4e 3111 	orr.w	r1, lr, r1, lsr #12
  408014:	eb14 045c 	adds.w	r4, r4, ip, lsr #1
  408018:	bfc2      	ittt	gt
  40801a:	ebd4 050c 	rsbsgt	r5, r4, ip
  40801e:	ea41 5104 	orrgt.w	r1, r1, r4, lsl #20
  408022:	bd70      	popgt	{r4, r5, r6, pc}
  408024:	f441 1180 	orr.w	r1, r1, #1048576	; 0x100000
  408028:	f04f 0e00 	mov.w	lr, #0
  40802c:	3c01      	subs	r4, #1
  40802e:	e690      	b.n	407d52 <__aeabi_dmul+0xde>
  408030:	ea45 0e06 	orr.w	lr, r5, r6
  408034:	e68d      	b.n	407d52 <__aeabi_dmul+0xde>
  408036:	ea0c 5513 	and.w	r5, ip, r3, lsr #20
  40803a:	ea94 0f0c 	teq	r4, ip
  40803e:	bf08      	it	eq
  408040:	ea95 0f0c 	teqeq	r5, ip
  408044:	f43f af3b 	beq.w	407ebe <__aeabi_dmul+0x24a>
  408048:	ea94 0f0c 	teq	r4, ip
  40804c:	d10a      	bne.n	408064 <__aeabi_ddiv+0x19c>
  40804e:	ea50 3401 	orrs.w	r4, r0, r1, lsl #12
  408052:	f47f af34 	bne.w	407ebe <__aeabi_dmul+0x24a>
  408056:	ea95 0f0c 	teq	r5, ip
  40805a:	f47f af25 	bne.w	407ea8 <__aeabi_dmul+0x234>
  40805e:	4610      	mov	r0, r2
  408060:	4619      	mov	r1, r3
  408062:	e72c      	b.n	407ebe <__aeabi_dmul+0x24a>
  408064:	ea95 0f0c 	teq	r5, ip
  408068:	d106      	bne.n	408078 <__aeabi_ddiv+0x1b0>
  40806a:	ea52 3503 	orrs.w	r5, r2, r3, lsl #12
  40806e:	f43f aefd 	beq.w	407e6c <__aeabi_dmul+0x1f8>
  408072:	4610      	mov	r0, r2
  408074:	4619      	mov	r1, r3
  408076:	e722      	b.n	407ebe <__aeabi_dmul+0x24a>
  408078:	ea50 0641 	orrs.w	r6, r0, r1, lsl #1
  40807c:	bf18      	it	ne
  40807e:	ea52 0643 	orrsne.w	r6, r2, r3, lsl #1
  408082:	f47f aec5 	bne.w	407e10 <__aeabi_dmul+0x19c>
  408086:	ea50 0441 	orrs.w	r4, r0, r1, lsl #1
  40808a:	f47f af0d 	bne.w	407ea8 <__aeabi_dmul+0x234>
  40808e:	ea52 0543 	orrs.w	r5, r2, r3, lsl #1
  408092:	f47f aeeb 	bne.w	407e6c <__aeabi_dmul+0x1f8>
  408096:	e712      	b.n	407ebe <__aeabi_dmul+0x24a>

00408098 <__gedf2>:
  408098:	f04f 3cff 	mov.w	ip, #4294967295
  40809c:	e006      	b.n	4080ac <__cmpdf2+0x4>
  40809e:	bf00      	nop

004080a0 <__ledf2>:
  4080a0:	f04f 0c01 	mov.w	ip, #1
  4080a4:	e002      	b.n	4080ac <__cmpdf2+0x4>
  4080a6:	bf00      	nop

004080a8 <__cmpdf2>:
  4080a8:	f04f 0c01 	mov.w	ip, #1
  4080ac:	f84d cd04 	str.w	ip, [sp, #-4]!
  4080b0:	ea4f 0c41 	mov.w	ip, r1, lsl #1
  4080b4:	ea7f 5c6c 	mvns.w	ip, ip, asr #21
  4080b8:	ea4f 0c43 	mov.w	ip, r3, lsl #1
  4080bc:	bf18      	it	ne
  4080be:	ea7f 5c6c 	mvnsne.w	ip, ip, asr #21
  4080c2:	d01b      	beq.n	4080fc <__cmpdf2+0x54>
  4080c4:	b001      	add	sp, #4
  4080c6:	ea50 0c41 	orrs.w	ip, r0, r1, lsl #1
  4080ca:	bf0c      	ite	eq
  4080cc:	ea52 0c43 	orrseq.w	ip, r2, r3, lsl #1
  4080d0:	ea91 0f03 	teqne	r1, r3
  4080d4:	bf02      	ittt	eq
  4080d6:	ea90 0f02 	teqeq	r0, r2
  4080da:	2000      	moveq	r0, #0
  4080dc:	4770      	bxeq	lr
  4080de:	f110 0f00 	cmn.w	r0, #0
  4080e2:	ea91 0f03 	teq	r1, r3
  4080e6:	bf58      	it	pl
  4080e8:	4299      	cmppl	r1, r3
  4080ea:	bf08      	it	eq
  4080ec:	4290      	cmpeq	r0, r2
  4080ee:	bf2c      	ite	cs
  4080f0:	17d8      	asrcs	r0, r3, #31
  4080f2:	ea6f 70e3 	mvncc.w	r0, r3, asr #31
  4080f6:	f040 0001 	orr.w	r0, r0, #1
  4080fa:	4770      	bx	lr
  4080fc:	ea4f 0c41 	mov.w	ip, r1, lsl #1
  408100:	ea7f 5c6c 	mvns.w	ip, ip, asr #21
  408104:	d102      	bne.n	40810c <__cmpdf2+0x64>
  408106:	ea50 3c01 	orrs.w	ip, r0, r1, lsl #12
  40810a:	d107      	bne.n	40811c <__cmpdf2+0x74>
  40810c:	ea4f 0c43 	mov.w	ip, r3, lsl #1
  408110:	ea7f 5c6c 	mvns.w	ip, ip, asr #21
  408114:	d1d6      	bne.n	4080c4 <__cmpdf2+0x1c>
  408116:	ea52 3c03 	orrs.w	ip, r2, r3, lsl #12
  40811a:	d0d3      	beq.n	4080c4 <__cmpdf2+0x1c>
  40811c:	f85d 0b04 	ldr.w	r0, [sp], #4
  408120:	4770      	bx	lr
  408122:	bf00      	nop

00408124 <__aeabi_cdrcmple>:
  408124:	4684      	mov	ip, r0
  408126:	4610      	mov	r0, r2
  408128:	4662      	mov	r2, ip
  40812a:	468c      	mov	ip, r1
  40812c:	4619      	mov	r1, r3
  40812e:	4663      	mov	r3, ip
  408130:	e000      	b.n	408134 <__aeabi_cdcmpeq>
  408132:	bf00      	nop

00408134 <__aeabi_cdcmpeq>:
  408134:	b501      	push	{r0, lr}
  408136:	f7ff ffb7 	bl	4080a8 <__cmpdf2>
  40813a:	2800      	cmp	r0, #0
  40813c:	bf48      	it	mi
  40813e:	f110 0f00 	cmnmi.w	r0, #0
  408142:	bd01      	pop	{r0, pc}

00408144 <__aeabi_dcmpeq>:
  408144:	f84d ed08 	str.w	lr, [sp, #-8]!
  408148:	f7ff fff4 	bl	408134 <__aeabi_cdcmpeq>
  40814c:	bf0c      	ite	eq
  40814e:	2001      	moveq	r0, #1
  408150:	2000      	movne	r0, #0
  408152:	f85d fb08 	ldr.w	pc, [sp], #8
  408156:	bf00      	nop

00408158 <__aeabi_dcmplt>:
  408158:	f84d ed08 	str.w	lr, [sp, #-8]!
  40815c:	f7ff ffea 	bl	408134 <__aeabi_cdcmpeq>
  408160:	bf34      	ite	cc
  408162:	2001      	movcc	r0, #1
  408164:	2000      	movcs	r0, #0
  408166:	f85d fb08 	ldr.w	pc, [sp], #8
  40816a:	bf00      	nop

0040816c <__aeabi_dcmple>:
  40816c:	f84d ed08 	str.w	lr, [sp, #-8]!
  408170:	f7ff ffe0 	bl	408134 <__aeabi_cdcmpeq>
  408174:	bf94      	ite	ls
  408176:	2001      	movls	r0, #1
  408178:	2000      	movhi	r0, #0
  40817a:	f85d fb08 	ldr.w	pc, [sp], #8
  40817e:	bf00      	nop

00408180 <__aeabi_dcmpge>:
  408180:	f84d ed08 	str.w	lr, [sp, #-8]!
  408184:	f7ff ffce 	bl	408124 <__aeabi_cdrcmple>
  408188:	bf94      	ite	ls
  40818a:	2001      	movls	r0, #1
  40818c:	2000      	movhi	r0, #0
  40818e:	f85d fb08 	ldr.w	pc, [sp], #8
  408192:	bf00      	nop

00408194 <__aeabi_dcmpgt>:
  408194:	f84d ed08 	str.w	lr, [sp, #-8]!
  408198:	f7ff ffc4 	bl	408124 <__aeabi_cdrcmple>
  40819c:	bf34      	ite	cc
  40819e:	2001      	movcc	r0, #1
  4081a0:	2000      	movcs	r0, #0
  4081a2:	f85d fb08 	ldr.w	pc, [sp], #8
  4081a6:	bf00      	nop

004081a8 <__aeabi_dcmpun>:
  4081a8:	ea4f 0c41 	mov.w	ip, r1, lsl #1
  4081ac:	ea7f 5c6c 	mvns.w	ip, ip, asr #21
  4081b0:	d102      	bne.n	4081b8 <__aeabi_dcmpun+0x10>
  4081b2:	ea50 3c01 	orrs.w	ip, r0, r1, lsl #12
  4081b6:	d10a      	bne.n	4081ce <__aeabi_dcmpun+0x26>
  4081b8:	ea4f 0c43 	mov.w	ip, r3, lsl #1
  4081bc:	ea7f 5c6c 	mvns.w	ip, ip, asr #21
  4081c0:	d102      	bne.n	4081c8 <__aeabi_dcmpun+0x20>
  4081c2:	ea52 3c03 	orrs.w	ip, r2, r3, lsl #12
  4081c6:	d102      	bne.n	4081ce <__aeabi_dcmpun+0x26>
  4081c8:	f04f 0000 	mov.w	r0, #0
  4081cc:	4770      	bx	lr
  4081ce:	f04f 0001 	mov.w	r0, #1
  4081d2:	4770      	bx	lr

004081d4 <__aeabi_d2iz>:
  4081d4:	ea4f 0241 	mov.w	r2, r1, lsl #1
  4081d8:	f512 1200 	adds.w	r2, r2, #2097152	; 0x200000
  4081dc:	d215      	bcs.n	40820a <__aeabi_d2iz+0x36>
  4081de:	d511      	bpl.n	408204 <__aeabi_d2iz+0x30>
  4081e0:	f46f 7378 	mvn.w	r3, #992	; 0x3e0
  4081e4:	ebb3 5262 	subs.w	r2, r3, r2, asr #21
  4081e8:	d912      	bls.n	408210 <__aeabi_d2iz+0x3c>
  4081ea:	ea4f 23c1 	mov.w	r3, r1, lsl #11
  4081ee:	f043 4300 	orr.w	r3, r3, #2147483648	; 0x80000000
  4081f2:	ea43 5350 	orr.w	r3, r3, r0, lsr #21
  4081f6:	f011 4f00 	tst.w	r1, #2147483648	; 0x80000000
  4081fa:	fa23 f002 	lsr.w	r0, r3, r2
  4081fe:	bf18      	it	ne
  408200:	4240      	negne	r0, r0
  408202:	4770      	bx	lr
  408204:	f04f 0000 	mov.w	r0, #0
  408208:	4770      	bx	lr
  40820a:	ea50 3001 	orrs.w	r0, r0, r1, lsl #12
  40820e:	d105      	bne.n	40821c <__aeabi_d2iz+0x48>
  408210:	f011 4000 	ands.w	r0, r1, #2147483648	; 0x80000000
  408214:	bf08      	it	eq
  408216:	f06f 4000 	mvneq.w	r0, #2147483648	; 0x80000000
  40821a:	4770      	bx	lr
  40821c:	f04f 0000 	mov.w	r0, #0
  408220:	4770      	bx	lr
  408222:	bf00      	nop

00408224 <OV2640_JPEG_INIT>:
  408224:	00ff ff2c df2e 01ff 323c 0111 0209 2804     ..,.....<2.....(
  408234:	e513 4814 0c2c 7833 333a fb3b 003e 1143     ...H,.3x:3;.>.C.
  408244:	1016 9239 da35 1a22 c337 0023 c034 1a36     ..9.5.".7.#.4.6.
  408254:	8806 c007 870d 410e 004c 0048 005b 0342     .......AL.H.[.B.
  408264:	814a 9921 4024 3825 8226 005c 0063 7061     J.!.$@%8&.\.c.ap
  408274:	8062 057c 8020 3028 006c 806d 006e 0270     b.|. .(0l.m.n.p.
  408284:	9471 c173 4012 1117 4318 0019 4b1a 0932     q.s..@...C...K2.
  408294:	c037 604f a850 006d 383d 3f46 604f 3c0c     7.O`P.m.=8F?O`.<
  4082a4:	00ff 7fe5 c0f9 2441 14e0 ff76 a033 2042     ......A$..v.3.B 
  4082b4:	1843 004c d587 3f88 03d7 10d9 82d3 08c8     C.L....?........
  4082c4:	80c9 007c 007d 037c 487d 487d 087c 207d     ..|.}.|.}H}H|.} 
  4082d4:	107d 0e7d 0090 0e91 1a91 3191 5a91 6991     }.}........1.Z.i
  4082e4:	7591 7e91 8891 8f91 9691 a391 af91 c491     .u.~............
  4082f4:	d791 e891 2091 0092 0693 e393 0593 0593     ..... ..........
  408304:	0093 0493 0093 0093 0093 0093 0093 0093     ................
  408314:	0093 0096 0897 1997 0297 0c97 2497 3097     .............$.0
  408324:	2897 2697 0297 9897 8097 0097 0097 edc3     .(.&............
  408334:	00a4 00a8 11c5 51c6 80bf 10c7 66b6 a5b8     .......Q.....f..
  408344:	64b7 7cb9 afb3 97b4 ffb5 c5b0 94b1 0fb2     .d.|............
  408354:	5cc4 64c0 4bc1 008c 3d86 0050 c851 9652     .\.d.K...=P.Q.R.
  408364:	0053 0054 0055 c85a 965b 005c 00d3 edc3     S.T.U.Z.[.\.....
  408374:	007f 00da 1fe5 67e1 00e0 7fdd 0005 4012     .......g.......@
  408384:	04d3 16c0 12c1 008c 3d86 0050 2c51 2452     .........=P.Q,R$
  408394:	0053 0054 0055 2c5a 245b 005c ffff 0000     S.T.U.Z,[$\.....

004083a4 <OV2640_YUV422>:
  4083a4:	00ff 0005 10da 03d7 00df 8033 403c 77e1     ..........3.<@.w
  4083b4:	0000 ffff                                   ....

004083b8 <OV2640_JPEG>:
  4083b8:	14e0 77e1 1fe5 03d7 10da 00e0 01ff 0804     ...w............
  4083c8:	ffff 0000                                   ....

004083cc <OV2640_JPEG_320x240>:
  4083cc:	01ff 4012 1117 4318 0019 4b1a 0932 ca4f     ...@...C...K2.O.
  4083dc:	a850 235a 006d 1239 da35 1a22 c337 0023     P.Z#m.9.5.".7.#.
  4083ec:	c034 1a36 8806 c007 870d 410e 004c 00ff     4.6........AL...
  4083fc:	04e0 64c0 4bc1 3586 8950 c851 9652 0053     ...d.K.5P.Q.R.S.
  40840c:	0054 0055 0057 505a 3c5b 005c 00e0 ffff     T.U.W.ZP[<\.....

0040841c <OV2640_JPEG_640x480>:
  40841c:	01ff 0111 0012 1117 7518 3632 0119 971a     .........u26....
  40842c:	0f03 4037 bb4f 9c50 575a 806d 343d 0239     ..7@O.P.ZWm.=49.
  40843c:	8835 0a22 4037 a034 0206 b70d 010e 00ff     5.".7@4.........
  40844c:	04e0 c8c0 96c1 3d86 8950 9051 2c52 0053     .......=P.Q.R,S.
  40845c:	0054 8855 0057 a05a 785b 005c 04d3 00e0     T.U.W.Z.[x\.....
  40846c:	ffff 0000                                   ....

00408470 <OV2640_JPEG_800x600>:
  408470:	01ff 0111 0012 1117 7518 3632 0119 971a     .........u26....
  408480:	0f03 4037 bb4f 9c50 575a 806d 343d 0239     ..7@O.P.ZWm.=49.
  408490:	8835 0a22 4037 a034 0206 b70d 010e 00ff     5.".7@4.........
  4084a0:	04e0 c8c0 96c1 3586 8950 9051 2c52 0053     .......5P.Q.R,S.
  4084b0:	0054 8855 0057 c85a 965b 005c 02d3 00e0     T.U.W.Z.[.\.....
  4084c0:	ffff 0000                                   ....

004084c4 <OV2640_JPEG_1024x768>:
  4084c4:	01ff 0111 0012 1117 7518 3632 0119 971a     .........u26....
  4084d4:	0f03 4037 bb4f 9c50 575a 806d 343d 0239     ..7@O.P.ZWm.=49.
  4084e4:	8835 0a22 4037 a034 0206 b70d 010e 00ff     5.".7@4.........
  4084f4:	c8c0 96c1 008c 3d86 0050 9051 2c52 0053     .......=P.Q.R,S.
  408504:	0054 8855 005a c05b 015c 02d3 ffff 0000     T.U.Z.[.\.......

00408514 <OV2640_JPEG_1280x1024>:
  408514:	01ff 0111 0012 1117 7518 3632 0119 971a     .........u26....
  408524:	0f03 4037 bb4f 9c50 575a 806d 343d 0239     ..7@O.P.ZWm.=49.
  408534:	8835 0a22 4037 a034 0206 b70d 010e 00ff     5.".7@4.........
  408544:	04e0 c8c0 96c1 3d86 0050 9051 2c52 0053     .......=P.Q.R,S.
  408554:	0054 8855 0057 405a f05b 015c 02d3 00e0     T.U.W.Z@[.\.....
  408564:	ffff 0000                                   ....

00408568 <OV2640_JPEG_1600x1200>:
  408568:	01ff 0111 0012 1117 7518 3632 0119 971a     .........u26....
  408578:	0f03 4037 bb4f 9c50 575a 806d 343d 0239     ..7@O.P.ZWm.=49.
  408588:	8835 0a22 4037 a034 0206 b70d 010e 00ff     5.".7@4.........
  408598:	04e0 c8c0 96c1 3d86 0050 9051 2c52 0053     .......=P.Q.R,S.
  4085a8:	0054 8855 0057 905a 2c5b 055c 02d3 00e0     T.U.W.Z.[,\.....
  4085b8:	ffff 0000                                   ....

004085bc <OV2640_QVGA_YUV422_10FPS>:
  4085bc:	000e 8012 05fe 0013 0511 0012 10d5 d40c     ................
  4085cc:	340d 0116 2517 a018 0319 f01a 891b 0322     .4...%........".
  4085dc:	1829 f82b 012c a031 f032 c433 b43a 3f36     ).+.,.1.2.3.:.6?
  4085ec:	6004 8027 0f3d 803e 403f 7f40 6a41 2942     .`'.=.>.?@@.AjB)
  4085fc:	e544 4145 0247 6449 a14a 704b 1a4c 504d     D.EAG.IdJ.KpL.MP
  40860c:	134e 0064 8867 1a68 3814 3c24 3025 7226     N.d.g.h..8$<%0&r
  40861c:	9750 7e51 0052 0053 0020 2321 1438 00e9     P.Q~R.S. .!#8...
  40862c:	5556 ff57 ff58 ff59 045f 00ec ff13 7f80     VUW.X.Y._.......
  40863c:	3f81 3282 0183 1138 0085 0386 0187 0588     .?.2..8.........
  40864c:	3089 308d 858f 3093 8595 3099 859b 089c     .0.0...0...0....
  40865c:	129d 239e 459f 55a0 64a1 72a2 7fa3 8ba4     ...#.E.U.d.r....
  40866c:	95a5 a7a6 b5a7 cba8 dda9 ecaa 1aab 78ce     ...............x
  40867c:	6ecf 0ad0 0cd1 84d2 90d3 1ed4 245a 1f5b     .n..........Z$[.
  40868c:	885c 605d 6eac ffbe 00bf 5031 7832 3f82     \.]`.n....1P2x.?
  40869c:	0012 3f36 0053 c433 891b 0322 0228 ffff     ..6?S.3...".(...

004086ac <OV2640_QVGA_YUV422_15FPS>:
  4086ac:	000e 8012 05fe 0013 0311 0012 10d5 d40c     ................
  4086bc:	340d 0116 2517 a018 0319 f01a 891b 0322     .4...%........".
  4086cc:	1829 f82b 012c a031 f032 c433 b43a 3f36     ).+.,.1.2.3.:.6?
  4086dc:	6004 8027 0f3d 803e 403f 7f40 6a41 2942     .`'.=.>.?@@.AjB)
  4086ec:	e544 4145 0247 6449 a14a 704b 1a4c 504d     D.EAG.IdJ.KpL.MP
  4086fc:	134e 0064 8867 1a68 3814 3c24 3025 7226     N.d.g.h..8$<%0&r
  40870c:	9750 7e51 0052 0053 0020 2321 1438 00e9     P.Q~R.S. .!#8...
  40871c:	5556 ff57 ff58 ff59 045f 00ec ff13 7f80     VUW.X.Y._.......
  40872c:	3f81 3282 0183 1138 0085 0386 0187 0588     .?.2..8.........
  40873c:	3089 308d 858f 3093 8595 3099 859b 089c     .0.0...0...0....
  40874c:	129d 239e 459f 55a0 64a1 72a2 7fa3 8ba4     ...#.E.U.d.r....
  40875c:	95a5 a7a6 b5a7 cba8 dda9 ecaa 1aab 78ce     ...............x
  40876c:	6ecf 0ad0 0cd1 84d2 90d3 1ed4 245a 1f5b     .n..........Z$[.
  40877c:	885c 605d 6eac ffbe 00bf 5031 7832 3f82     \.]`.n....1P2x.?
  40878c:	0012 3f36 0053 c433 891b 0322 0228 ffff     ..6?S.3...".(...

0040879c <OV2640_QVGA_YUV422_20FPS>:
  40879c:	000e 8012 05fe 0013 0211 0012 10d5 d40c     ................
  4087ac:	340d 0116 2517 a018 0319 f01a 891b 0322     .4...%........".
  4087bc:	1829 f82b 012c a031 f032 c433 b43a 3f36     ).+.,.1.2.3.:.6?
  4087cc:	6004 8027 0f3d 803e 403f 7f40 6a41 2942     .`'.=.>.?@@.AjB)
  4087dc:	e544 4145 0247 6449 a14a 704b 1a4c 504d     D.EAG.IdJ.KpL.MP
  4087ec:	134e 0064 8867 1a68 3814 3c24 3025 7226     N.d.g.h..8$<%0&r
  4087fc:	9750 7e51 0052 0053 0020 2321 1438 00e9     P.Q~R.S. .!#8...
  40880c:	5556 ff57 ff58 ff59 045f 00ec ff13 7f80     VUW.X.Y._.......
  40881c:	3f81 3282 0183 1138 0085 0386 0187 0588     .?.2..8.........
  40882c:	3089 308d 858f 3093 8595 3099 859b 089c     .0.0...0...0....
  40883c:	129d 239e 459f 55a0 64a1 72a2 7fa3 8ba4     ...#.E.U.d.r....
  40884c:	95a5 a7a6 b5a7 cba8 dda9 ecaa 1aab 78ce     ...............x
  40885c:	6ecf 0ad0 0cd1 84d2 90d3 1ed4 245a 1f5b     .n..........Z$[.
  40886c:	885c 605d 6eac ffbe 00bf 5031 7832 3f82     \.]`.n....1P2x.?
  40887c:	0012 3f36 0053 c433 891b 0322 0228 ffff     ..6?S.3...".(...

0040888c <OV2640_QVGA_YUV422_30FPS>:
  40888c:	000e 8012 05fe 0013 0111 0012 10d5 d40c     ................
  40889c:	340d 0116 2517 a018 0319 f01a 891b 0322     .4...%........".
  4088ac:	1829 f82b 012c a031 f032 c433 b43a 3f36     ).+.,.1.2.3.:.6?
  4088bc:	6004 8027 0f3d 803e 403f 7f40 6a41 2942     .`'.=.>.?@@.AjB)
  4088cc:	e544 4145 0247 6449 a14a 704b 1a4c 504d     D.EAG.IdJ.KpL.MP
  4088dc:	134e 0064 8867 1a68 3814 3c24 3025 7226     N.d.g.h..8$<%0&r
  4088ec:	9750 7e51 0052 0053 0020 2321 1438 00e9     P.Q~R.S. .!#8...
  4088fc:	5556 ff57 ff58 ff59 045f 00ec ff13 7f80     VUW.X.Y._.......
  40890c:	3f81 3282 0183 1138 0085 0386 0187 0588     .?.2..8.........
  40891c:	3089 308d 858f 3093 8595 3099 859b 089c     .0.0...0...0....
  40892c:	129d 239e 459f 55a0 64a1 72a2 7fa3 8ba4     ...#.E.U.d.r....
  40893c:	95a5 a7a6 b5a7 cba8 dda9 ecaa 1aab 78ce     ...............x
  40894c:	6ecf 0ad0 0cd1 84d2 90d3 1ed4 245a 1f5b     .n..........Z$[.
  40895c:	885c 605d 6eac ffbe 00bf 5031 7832 3f82     \.]`.n....1P2x.?
  40896c:	0012 3f36 0053 c433 891b 0322 0228 ffff     ..6?S.3...".(...

0040897c <OV2640_QVGA_RGB888>:
  40897c:	000e 8012 0013 0111 0012 10d5 120c 340d     ...............4
  40898c:	2517 a018 0319 f01a 891b 0322 1829 f82b     .%........".).+.
  40899c:	012c a031 f032 c433 b43a 3f36 6004 8027     ,.1.2.3.:.6?.`'.
  4089ac:	0f3d 803e 403f 7f40 6a41 2942 e544 4145     =.>.?@@.AjB)D.EA
  4089bc:	0247 6449 a14a 704b 1a4c 504d 134e 0064     G.IdJ.KpL.MPN.d.
  4089cc:	8867 1a68 3814 3c24 3025 7226 9750 7e51     g.h..8$<%0&rP.Q~
  4089dc:	0052 0053 0020 2321 1438 00e9 5556 ff57     R.S. .!#8...VUW.
  4089ec:	ff58 ff59 045f 00ec ff13 7f80 3f81 3282     X.Y._........?.2
  4089fc:	0183 1138 7084 0085 0386 0187 0588 3089     ..8..p.........0
  408a0c:	308d 858f 3093 8595 3099 859b 089c 129d     .0...0...0......
  408a1c:	239e 459f 55a0 64a1 72a2 7fa3 8ba4 95a5     .#.E.U.d.r......
  408a2c:	a7a6 b5a7 cba8 dda9 ecaa 1aab 78ce 6ecf     .............x.n
  408a3c:	0ad0 0cd1 84d2 90d3 1ed4 245a 1f5b 885c     ..........Z$[.\.
  408a4c:	605d 6eac ffbe 00bf 5031 7832 3f82 0112     ]`.n....1P2x.?..
  408a5c:	2f36 0483 0053 f433 8a1b 0322 0084 0084     6/..S.3...".....
  408a6c:	0228 ffff                                   (...

00408a70 <OV2640_QQVGA_YUV422>:
  408a70:	000e 8012 0013 0111 0012 10d5 540c 340d     .............T.4
  408a80:	0116 2517 a018 0319 f01a 891b 0322 1829     ...%........".).
  408a90:	f82b 012c a031 f032 c433 b43a 3f36 6004     +.,.1.2.3.:.6?.`
  408aa0:	8027 0f3d 803e 403f 7f40 6a41 2942 e544     '.=.>.?@@.AjB)D.
  408ab0:	4145 0247 6449 a14a 704b 1a4c 504d 134e     EAG.IdJ.KpL.MPN.
  408ac0:	0064 8867 1a68 3814 3c24 3025 7226 9750     d.g.h..8$<%0&rP.
  408ad0:	7e51 0052 0053 0020 2321 1438 00e9 5556     Q~R.S. .!#8...VU
  408ae0:	ff57 ff58 ff59 045f 00ec ff13 7f80 3f81     W.X.Y._........?
  408af0:	3282 0183 1138 7084 0085 0386 0187 0588     .2..8..p........
  408b00:	3089 308d 858f 3093 8595 3099 859b 089c     .0.0...0...0....
  408b10:	129d 239e 459f 55a0 64a1 72a2 7fa3 8ba4     ...#.E.U.d.r....
  408b20:	95a5 a7a6 b5a7 cba8 dda9 ecaa 1aab 78ce     ...............x
  408b30:	6ecf 0ad0 0cd1 84d2 90d3 1ed4 245a 1f5b     .n..........Z$[.
  408b40:	885c 605d 6eac ffbe 00bf 2831 3c32 0034     \.]`.n....1(2<4.
  408b50:	3f82 0012 3f36 0053 0033 891b 0322 0228     .?..6?S.3...".(.
  408b60:	00d9 ffff                                   ....

00408b64 <OV2640_QQVGA_RGB888>:
  408b64:	000e 8012 0013 0111 0012 10d5 120c 340d     ...............4
  408b74:	2517 a018 0319 f01a 891b 0322 1829 f82b     .%........".).+.
  408b84:	012c a031 f032 c433 b43a 3f36 6004 8027     ,.1.2.3.:.6?.`'.
  408b94:	0f3d 803e 403f 7f40 6a41 2942 e544 4145     =.>.?@@.AjB)D.EA
  408ba4:	0247 6449 a14a 704b 1a4c 504d 134e 0064     G.IdJ.KpL.MPN.d.
  408bb4:	8867 1a68 3814 3c24 3025 7226 9750 7e51     g.h..8$<%0&rP.Q~
  408bc4:	0052 0053 0020 2321 1438 00e9 5556 ff57     R.S. .!#8...VUW.
  408bd4:	ff58 ff59 045f 00ec ff13 7f80 3f81 3282     X.Y._........?.2
  408be4:	0183 1138 7084 0085 0386 0187 0588 3089     ..8..p.........0
  408bf4:	308d 858f 3093 8595 3099 859b 089c 129d     .0...0...0......
  408c04:	239e 459f 55a0 64a1 72a2 7fa3 8ba4 95a5     .#.E.U.d.r......
  408c14:	a7a6 b5a7 cba8 dda9 ecaa 1aab 78ce 6ecf     .............x.n
  408c24:	0ad0 0cd1 84d2 90d3 1ed4 245a 1f5b 885c     ..........Z$[.\.
  408c34:	605d 6eac ffbe 00bf 2831 3c32 3f82 0112     ]`.n....1(2<.?..
  408c44:	2f36 0483 0053 f433 8a1b 0322 0084 0084     6/..S.3...".....
  408c54:	0228 ffff                                   (...

00408c58 <OV2640_TEST_PATTERN>:
  408c58:	000e 8012 05fe 0013 0211 0012 10d5 d40c     ................
  408c68:	340d 0116 2517 a018 0319 f01a 891b 0322     .4...%........".
  408c78:	1829 f82b 012c a031 f032 c433 b43a 3f36     ).+.,.1.2.3.:.6?
  408c88:	6004 8027 0f3d 803e 403f 7f40 6a41 2942     .`'.=.>.?@@.AjB)
  408c98:	e544 4145 0247 6449 a14a 704b 1a4c 504d     D.EAG.IdJ.KpL.MP
  408ca8:	134e 0064 8867 1a68 3814 3c24 3025 7226     N.d.g.h..8$<%0&r
  408cb8:	9750 7e51 0052 0053 0020 2321 0738 0284     P.Q~R.S. .!#8...
  408cc8:	1438 00e9 5556 ff57 ff58 ff59 045f 00ec     8...VUW.X.Y._...
  408cd8:	ff13 7f80 3f81 3282 0183 1138 0085 0386     .....?.2..8.....
  408ce8:	0187 0588 3089 308d 858f 3093 8595 3099     .....0.0...0...0
  408cf8:	859b 089c 129d 239e 459f 55a0 64a1 72a2     .......#.E.U.d.r
  408d08:	7fa3 8ba4 95a5 a7a6 b5a7 cba8 dda9 ecaa     ................
  408d18:	1aab 78ce 6ecf 0ad0 0cd1 84d2 90d3 1ed4     ...x.n..........
  408d28:	245a 1f5b 885c 605d 6eac ffbe 00bf 5031     Z$[.\.]`.n....1P
  408d38:	7832 3f82 0012 3f36 0053 c433 891b 0322     2x.?..6?S.3...".
  408d48:	0228 ffff                                   (...

00408d4c <OV2640_VGA_YUV422_20FPS>:
  408d4c:	000e 8012 05fe 0013 0211 0012 10d5 d40c     ................
  408d5c:	340d 0116 2517 a018 0319 f01a 891b 0322     .4...%........".
  408d6c:	1829 f82b 012c a031 f032 c433 b43a 3f36     ).+.,.1.2.3.:.6?
  408d7c:	6004 8027 0f3d 803e 403f 7f40 6a41 2942     .`'.=.>.?@@.AjB)
  408d8c:	e544 4145 0247 6449 a14a 704b 1a4c 504d     D.EAG.IdJ.KpL.MP
  408d9c:	134e 0064 8867 1a68 3814 3c24 3025 7226     N.d.g.h..8$<%0&r
  408dac:	9750 7e51 0052 0053 0020 2321 1438 00e9     P.Q~R.S. .!#8...
  408dbc:	5556 ff57 ff58 ff59 045f 00ec ff13 7f80     VUW.X.Y._.......
  408dcc:	3f81 3282 0183 1138 0085 0386 0187 0588     .?.2..8.........
  408ddc:	3089 308d 858f 3093 8595 3099 859b 089c     .0.0...0...0....
  408dec:	129d 239e 459f 55a0 64a1 72a2 7fa3 8ba4     ...#.E.U.d.r....
  408dfc:	95a5 a7a6 b5a7 cba8 dda9 ecaa 1aab 78ce     ...............x
  408e0c:	6ecf 0ad0 0cd1 84d2 90d3 1ed4 245a 1f5b     .n..........Z$[.
  408e1c:	885c 605d 6eac ffbe 00bf a031 f032 3f82     \.]`.n....1.2..?
  408e2c:	0012 3f36 0053 c433 891b 0322 0228 ffff     ..6?S.3...".(...
  408e3c:	7453 7261 2074 7274 6e61 6673 7265 0000     Start transfer..
  408e4c:	6c43 6569 746e 6e20 746f 6320 6e6f 656e     Client not conne
  408e5c:	7463 6465 0000 0000 6f43 6d6d 6e61 2064     cted....Command 
  408e6c:	6166 6c69 6465 0000 c200 0001 00c0 0000     failed..........
  408e7c:	0800 0000 0000 0000 0000 0000 0000 0000     ................
  408e8c:	6d69 6761 5f65 7274 6e61 6673 7265 2520     image_transfer %
  408e9c:	0d64 000a 6573 7574 2070 6577 0d62 000a     d...setup web...
  408eac:	7473 6572 6d61 705f 6c6f 206c 0d30 000a     stream_poll 0...

00408ebc <_global_impure_ptr>:
  408ebc:	0018 2000 4e49 0046 6e69 0066 414e 004e     ... INF.inf.NAN.
  408ecc:	616e 006e 3130 3332 3534 3736 3938 4241     nan.0123456789AB
  408edc:	4443 4645 0000 0000 3130 3332 3534 3736     CDEF....01234567
  408eec:	3938 6261 6463 6665 0000 0000 6e28 6c75     89abcdef....(nul
  408efc:	296c 0000 0030 0000                         l)..0...

00408f04 <blanks.7223>:
  408f04:	2020 2020 2020 2020 2020 2020 2020 2020                     

00408f14 <zeroes.7224>:
  408f14:	3030 3030 3030 3030 3030 3030 3030 3030     0000000000000000
  408f24:	6e49 6966 696e 7974 0000 0000 614e 004e     Infinity....NaN.
  408f34:	0000 0000                                   ....

00408f38 <__mprec_bigtens>:
  408f38:	8000 37e0 c379 4341 6e17 b505 b8b5 4693     ...7y.AC.n.....F
  408f48:	f9f5 e93f 4f03 4d38 1d32 f930 7748 5a82     ..?..O8M2.0.Hw.Z
  408f58:	bf3c 7f73 4fdd 7515                         <.s..O.u

00408f60 <__mprec_tens>:
  408f60:	0000 0000 0000 3ff0 0000 0000 0000 4024     .......?......$@
  408f70:	0000 0000 0000 4059 0000 0000 4000 408f     ......Y@.....@.@
  408f80:	0000 0000 8800 40c3 0000 0000 6a00 40f8     .......@.....j.@
  408f90:	0000 0000 8480 412e 0000 0000 12d0 4163     .......A......cA
  408fa0:	0000 0000 d784 4197 0000 0000 cd65 41cd     .......A....e..A
  408fb0:	0000 2000 a05f 4202 0000 e800 4876 4237     ... _..B....vH7B
  408fc0:	0000 a200 1a94 426d 0000 e540 309c 42a2     ......mB..@..0.B
  408fd0:	0000 1e90 bcc4 42d6 0000 2634 6bf5 430c     .......B..4&.k.C
  408fe0:	8000 37e0 c379 4341 a000 85d8 3457 4376     ...7y.AC....W4vC
  408ff0:	c800 674e c16d 43ab 3d00 6091 58e4 43e1     ..Ngm..C.=.`.X.C
  409000:	8c40 78b5 af1d 4415 ef50 d6e2 1ae4 444b     @..x...DP.....KD
  409010:	d592 064d f0cf 4480 4af6 c7e1 2d02 44b5     ..M....D.J...-.D
  409020:	9db4 79d9 7843 44ea                         ...yCx.D

00409028 <p05.6055>:
  409028:	0005 0000 0019 0000 007d 0000 0043 0000     ........}...C...
  409038:	4f50 4953 0058 0000 002e 0000               POSIX.......

00409044 <_ctype_>:
  409044:	2000 2020 2020 2020 2020 2828 2828 2028     .         ((((( 
  409054:	2020 2020 2020 2020 2020 2020 2020 2020                     
  409064:	8820 1010 1010 1010 1010 1010 1010 1010      ...............
  409074:	0410 0404 0404 0404 0404 1004 1010 1010     ................
  409084:	1010 4141 4141 4141 0101 0101 0101 0101     ..AAAAAA........
  409094:	0101 0101 0101 0101 0101 0101 1010 1010     ................
  4090a4:	1010 4242 4242 4242 0202 0202 0202 0202     ..BBBBBB........
  4090b4:	0202 0202 0202 0202 0202 0202 1010 1010     ................
  4090c4:	0020 0000 0000 0000 0000 0000 0000 0000      ...............
	...

00409148 <_init>:
  409148:	b5f8      	push	{r3, r4, r5, r6, r7, lr}
  40914a:	bf00      	nop
  40914c:	bcf8      	pop	{r3, r4, r5, r6, r7}
  40914e:	bc08      	pop	{r3}
  409150:	469e      	mov	lr, r3
  409152:	4770      	bx	lr

00409154 <__init_array_start>:
  409154:	00405071 	.word	0x00405071

00409158 <__frame_dummy_init_array_entry>:
  409158:	004000f1                                ..@.

0040915c <_fini>:
  40915c:	b5f8      	push	{r3, r4, r5, r6, r7, lr}
  40915e:	bf00      	nop
  409160:	bcf8      	pop	{r3, r4, r5, r6, r7}
  409162:	bc08      	pop	{r3}
  409164:	469e      	mov	lr, r3
  409166:	4770      	bx	lr

00409168 <__fini_array_start>:
  409168:	004000cd 	.word	0x004000cd

Disassembly of section .relocate:

20000000 <portable_delay_cycles>:
RAMFUNC
void portable_delay_cycles(unsigned long n)
{
	UNUSED(n);

	__asm (
20000000:	f3bf 8f5f 	dmb	sy
20000004:	3801      	subs	r0, #1
20000006:	d1fb      	bne.n	20000000 <portable_delay_cycles>
20000008:	4770      	bx	lr

2000000a <g_us_cap_size>:
2000000a:	9c40                                        @.

2000000c <SystemCoreClock>:
2000000c:	0900 003d                                   ..=.

20000010 <_impure_ptr>:
20000010:	0018 2000 0000 0000                         ... ....

20000018 <impure_data>:
20000018:	0000 0000 0304 2000 036c 2000 03d4 2000     ....... l.. ... 
	...
200000c0:	0001 0000 0000 0000 330e abcd 1234 e66d     .........3..4.m.
200000d0:	deec 0005 000b 0000 0000 0000 0000 0000     ................
	...

20000440 <__atexit_recursive_mutex>:
20000440:	953c 2001                                   <.. 

20000444 <__malloc_av_>:
	...
2000044c:	0444 2000 0444 2000 044c 2000 044c 2000     D.. D.. L.. L.. 
2000045c:	0454 2000 0454 2000 045c 2000 045c 2000     T.. T.. \.. \.. 
2000046c:	0464 2000 0464 2000 046c 2000 046c 2000     d.. d.. l.. l.. 
2000047c:	0474 2000 0474 2000 047c 2000 047c 2000     t.. t.. |.. |.. 
2000048c:	0484 2000 0484 2000 048c 2000 048c 2000     ... ... ... ... 
2000049c:	0494 2000 0494 2000 049c 2000 049c 2000     ... ... ... ... 
200004ac:	04a4 2000 04a4 2000 04ac 2000 04ac 2000     ... ... ... ... 
200004bc:	04b4 2000 04b4 2000 04bc 2000 04bc 2000     ... ... ... ... 
200004cc:	04c4 2000 04c4 2000 04cc 2000 04cc 2000     ... ... ... ... 
200004dc:	04d4 2000 04d4 2000 04dc 2000 04dc 2000     ... ... ... ... 
200004ec:	04e4 2000 04e4 2000 04ec 2000 04ec 2000     ... ... ... ... 
200004fc:	04f4 2000 04f4 2000 04fc 2000 04fc 2000     ... ... ... ... 
2000050c:	0504 2000 0504 2000 050c 2000 050c 2000     ... ... ... ... 
2000051c:	0514 2000 0514 2000 051c 2000 051c 2000     ... ... ... ... 
2000052c:	0524 2000 0524 2000 052c 2000 052c 2000     $.. $.. ,.. ,.. 
2000053c:	0534 2000 0534 2000 053c 2000 053c 2000     4.. 4.. <.. <.. 
2000054c:	0544 2000 0544 2000 054c 2000 054c 2000     D.. D.. L.. L.. 
2000055c:	0554 2000 0554 2000 055c 2000 055c 2000     T.. T.. \.. \.. 
2000056c:	0564 2000 0564 2000 056c 2000 056c 2000     d.. d.. l.. l.. 
2000057c:	0574 2000 0574 2000 057c 2000 057c 2000     t.. t.. |.. |.. 
2000058c:	0584 2000 0584 2000 058c 2000 058c 2000     ... ... ... ... 
2000059c:	0594 2000 0594 2000 059c 2000 059c 2000     ... ... ... ... 
200005ac:	05a4 2000 05a4 2000 05ac 2000 05ac 2000     ... ... ... ... 
200005bc:	05b4 2000 05b4 2000 05bc 2000 05bc 2000     ... ... ... ... 
200005cc:	05c4 2000 05c4 2000 05cc 2000 05cc 2000     ... ... ... ... 
200005dc:	05d4 2000 05d4 2000 05dc 2000 05dc 2000     ... ... ... ... 
200005ec:	05e4 2000 05e4 2000 05ec 2000 05ec 2000     ... ... ... ... 
200005fc:	05f4 2000 05f4 2000 05fc 2000 05fc 2000     ... ... ... ... 
2000060c:	0604 2000 0604 2000 060c 2000 060c 2000     ... ... ... ... 
2000061c:	0614 2000 0614 2000 061c 2000 061c 2000     ... ... ... ... 
2000062c:	0624 2000 0624 2000 062c 2000 062c 2000     $.. $.. ,.. ,.. 
2000063c:	0634 2000 0634 2000 063c 2000 063c 2000     4.. 4.. <.. <.. 
2000064c:	0644 2000 0644 2000 064c 2000 064c 2000     D.. D.. L.. L.. 
2000065c:	0654 2000 0654 2000 065c 2000 065c 2000     T.. T.. \.. \.. 
2000066c:	0664 2000 0664 2000 066c 2000 066c 2000     d.. d.. l.. l.. 
2000067c:	0674 2000 0674 2000 067c 2000 067c 2000     t.. t.. |.. |.. 
2000068c:	0684 2000 0684 2000 068c 2000 068c 2000     ... ... ... ... 
2000069c:	0694 2000 0694 2000 069c 2000 069c 2000     ... ... ... ... 
200006ac:	06a4 2000 06a4 2000 06ac 2000 06ac 2000     ... ... ... ... 
200006bc:	06b4 2000 06b4 2000 06bc 2000 06bc 2000     ... ... ... ... 
200006cc:	06c4 2000 06c4 2000 06cc 2000 06cc 2000     ... ... ... ... 
200006dc:	06d4 2000 06d4 2000 06dc 2000 06dc 2000     ... ... ... ... 
200006ec:	06e4 2000 06e4 2000 06ec 2000 06ec 2000     ... ... ... ... 
200006fc:	06f4 2000 06f4 2000 06fc 2000 06fc 2000     ... ... ... ... 
2000070c:	0704 2000 0704 2000 070c 2000 070c 2000     ... ... ... ... 
2000071c:	0714 2000 0714 2000 071c 2000 071c 2000     ... ... ... ... 
2000072c:	0724 2000 0724 2000 072c 2000 072c 2000     $.. $.. ,.. ,.. 
2000073c:	0734 2000 0734 2000 073c 2000 073c 2000     4.. 4.. <.. <.. 
2000074c:	0744 2000 0744 2000 074c 2000 074c 2000     D.. D.. L.. L.. 
2000075c:	0754 2000 0754 2000 075c 2000 075c 2000     T.. T.. \.. \.. 
2000076c:	0764 2000 0764 2000 076c 2000 076c 2000     d.. d.. l.. l.. 
2000077c:	0774 2000 0774 2000 077c 2000 077c 2000     t.. t.. |.. |.. 
2000078c:	0784 2000 0784 2000 078c 2000 078c 2000     ... ... ... ... 
2000079c:	0794 2000 0794 2000 079c 2000 079c 2000     ... ... ... ... 
200007ac:	07a4 2000 07a4 2000 07ac 2000 07ac 2000     ... ... ... ... 
200007bc:	07b4 2000 07b4 2000 07bc 2000 07bc 2000     ... ... ... ... 
200007cc:	07c4 2000 07c4 2000 07cc 2000 07cc 2000     ... ... ... ... 
200007dc:	07d4 2000 07d4 2000 07dc 2000 07dc 2000     ... ... ... ... 
200007ec:	07e4 2000 07e4 2000 07ec 2000 07ec 2000     ... ... ... ... 
200007fc:	07f4 2000 07f4 2000 07fc 2000 07fc 2000     ... ... ... ... 
2000080c:	0804 2000 0804 2000 080c 2000 080c 2000     ... ... ... ... 
2000081c:	0814 2000 0814 2000 081c 2000 081c 2000     ... ... ... ... 
2000082c:	0824 2000 0824 2000 082c 2000 082c 2000     $.. $.. ,.. ,.. 
2000083c:	0834 2000 0834 2000 083c 2000 083c 2000     4.. 4.. <.. <.. 

2000084c <__malloc_sbrk_base>:
2000084c:	ffff ffff                                   ....

20000850 <__malloc_trim_threshold>:
20000850:	0000 0002                                   ....

20000854 <__global_locale>:
20000854:	0043 0000 0000 0000 0000 0000 0000 0000     C...............
	...
20000874:	0043 0000 0000 0000 0000 0000 0000 0000     C...............
	...
20000894:	0043 0000 0000 0000 0000 0000 0000 0000     C...............
	...
200008b4:	0043 0000 0000 0000 0000 0000 0000 0000     C...............
	...
200008d4:	0043 0000 0000 0000 0000 0000 0000 0000     C...............
	...
200008f4:	0043 0000 0000 0000 0000 0000 0000 0000     C...............
	...
20000914:	0043 0000 0000 0000 0000 0000 0000 0000     C...............
	...
20000934:	78e9 0040 74a9 0040 0000 0000 9044 0040     .x@..t@.....D.@.
20000944:	9040 0040 8ee0 0040 8ee0 0040 8ee0 0040     @.@...@...@...@.
20000954:	8ee0 0040 8ee0 0040 8ee0 0040 8ee0 0040     ..@...@...@...@.
20000964:	8ee0 0040 8ee0 0040 ffff ffff ffff ffff     ..@...@.........
20000974:	ffff ffff ffff 0000 0001 5341 4943 0049     ..........ASCII.
	...
2000099c:	0000 5341 4943 0049 0000 0000 0000 0000     ..ASCII.........
	...
